
outputs/output.elf:     file format elf32-littlearm


Disassembly of section .text:

00000000 <interrupt_vectors>:
#include "utils.h"

void clocks_start( void )
{
	//Start external 16MHz crystal
    NRF_CLOCK->EVENTS_HFCLKSTARTED = 0;
       0:	00 80 00 20 49 06 00 00 45 06 00 00 45 06 00 00     ... I...E...E...
	...
    int16_t color_index = (value-min)/values_per_color;
    if(color_index >= colors_count)
    {
        color_index = colors_count-1;
    }
    printf(" \033[%dm %d", colors_vt100[color_index],value);
      2c:	45 06 00 00 00 00 00 00 00 00 00 00 45 06 00 00     E...........E...
      3c:	45 06 00 00 45 06 00 00 35 05 00 00 45 06 00 00     E...E...5...E...
      4c:	45 06 00 00 45 06 00 00 00 00 00 00 45 06 00 00     E...E.......E...
      5c:	45 06 00 00 45 06 00 00 45 06 00 00 81 07 00 00     E...E...E.......
      6c:	45 06 00 00 45 06 00 00 45 06 00 00 45 06 00 00     E...E...E...E...
      7c:	45 06 00 00 45 06 00 00 45 06 00 00 45 06 00 00     E...E...E...E...
      8c:	45 06 00 00 45 06 00 00 45 06 00 00 45 06 00 00     E...E...E...E...
      9c:	45 06 00 00 45 06 00 00 45 06 00 00 00 00 00 00     E...E...E.......
	...

000000c0 <__divsi3>:
      c0:	2900      	cmp	r1, #0
      c2:	d041      	beq.n	148 <.divsi3_skip_div0_test+0x84>

000000c4 <.divsi3_skip_div0_test>:
      c4:	b410      	push	{r4}
      c6:	0004      	movs	r4, r0
      c8:	404c      	eors	r4, r1
      ca:	46a4      	mov	ip, r4
      cc:	2301      	movs	r3, #1
      ce:	2200      	movs	r2, #0
      d0:	2900      	cmp	r1, #0
      d2:	d500      	bpl.n	d6 <.divsi3_skip_div0_test+0x12>
      d4:	4249      	negs	r1, r1
      d6:	2800      	cmp	r0, #0
      d8:	d500      	bpl.n	dc <.divsi3_skip_div0_test+0x18>
      da:	4240      	negs	r0, r0
      dc:	4288      	cmp	r0, r1
      de:	d32c      	bcc.n	13a <.divsi3_skip_div0_test+0x76>
      e0:	2401      	movs	r4, #1
      e2:	0724      	lsls	r4, r4, #28
      e4:	42a1      	cmp	r1, r4
      e6:	d204      	bcs.n	f2 <.divsi3_skip_div0_test+0x2e>
      e8:	4281      	cmp	r1, r0
      ea:	d202      	bcs.n	f2 <.divsi3_skip_div0_test+0x2e>
      ec:	0109      	lsls	r1, r1, #4
      ee:	011b      	lsls	r3, r3, #4
      f0:	e7f8      	b.n	e4 <.divsi3_skip_div0_test+0x20>
      f2:	00e4      	lsls	r4, r4, #3
      f4:	42a1      	cmp	r1, r4
      f6:	d204      	bcs.n	102 <.divsi3_skip_div0_test+0x3e>
      f8:	4281      	cmp	r1, r0
      fa:	d202      	bcs.n	102 <.divsi3_skip_div0_test+0x3e>
      fc:	0049      	lsls	r1, r1, #1
      fe:	005b      	lsls	r3, r3, #1
     100:	e7f8      	b.n	f4 <.divsi3_skip_div0_test+0x30>
     102:	4288      	cmp	r0, r1
     104:	d301      	bcc.n	10a <.divsi3_skip_div0_test+0x46>
     106:	1a40      	subs	r0, r0, r1
     108:	431a      	orrs	r2, r3
     10a:	084c      	lsrs	r4, r1, #1
     10c:	42a0      	cmp	r0, r4
     10e:	d302      	bcc.n	116 <.divsi3_skip_div0_test+0x52>
     110:	1b00      	subs	r0, r0, r4
     112:	085c      	lsrs	r4, r3, #1
     114:	4322      	orrs	r2, r4
     116:	088c      	lsrs	r4, r1, #2
     118:	42a0      	cmp	r0, r4
     11a:	d302      	bcc.n	122 <.divsi3_skip_div0_test+0x5e>
     11c:	1b00      	subs	r0, r0, r4
     11e:	089c      	lsrs	r4, r3, #2
     120:	4322      	orrs	r2, r4
     122:	08cc      	lsrs	r4, r1, #3
     124:	42a0      	cmp	r0, r4
     126:	d302      	bcc.n	12e <.divsi3_skip_div0_test+0x6a>
     128:	1b00      	subs	r0, r0, r4
     12a:	08dc      	lsrs	r4, r3, #3
     12c:	4322      	orrs	r2, r4
     12e:	2800      	cmp	r0, #0
     130:	d003      	beq.n	13a <.divsi3_skip_div0_test+0x76>
     132:	091b      	lsrs	r3, r3, #4
     134:	d001      	beq.n	13a <.divsi3_skip_div0_test+0x76>
     136:	0909      	lsrs	r1, r1, #4
     138:	e7e3      	b.n	102 <.divsi3_skip_div0_test+0x3e>
     13a:	0010      	movs	r0, r2
     13c:	4664      	mov	r4, ip
     13e:	2c00      	cmp	r4, #0
     140:	d500      	bpl.n	144 <.divsi3_skip_div0_test+0x80>
     142:	4240      	negs	r0, r0
     144:	bc10      	pop	{r4}
     146:	4770      	bx	lr
     148:	b501      	push	{r0, lr}
     14a:	2000      	movs	r0, #0
     14c:	f000 f80c 	bl	168 <__aeabi_idiv0>
     150:	bd02      	pop	{r1, pc}
     152:	46c0      	nop			@ (mov r8, r8)

00000154 <__aeabi_idivmod>:
     154:	2900      	cmp	r1, #0
     156:	d0f7      	beq.n	148 <.divsi3_skip_div0_test+0x84>
     158:	b503      	push	{r0, r1, lr}
     15a:	f7ff ffb3 	bl	c4 <.divsi3_skip_div0_test>
     15e:	bc0e      	pop	{r1, r2, r3}
     160:	4342      	muls	r2, r0
     162:	1a89      	subs	r1, r1, r2
     164:	4718      	bx	r3
     166:	46c0      	nop			@ (mov r8, r8)

00000168 <__aeabi_idiv0>:
     168:	4770      	bx	lr
     16a:	46c0      	nop			@ (mov r8, r8)

0000016c <__udivsi3>:
     16c:	2900      	cmp	r1, #0
     16e:	d034      	beq.n	1da <.udivsi3_skip_div0_test+0x6a>

00000170 <.udivsi3_skip_div0_test>:
     170:	2301      	movs	r3, #1
     172:	2200      	movs	r2, #0
     174:	b410      	push	{r4}
     176:	4288      	cmp	r0, r1
     178:	d32c      	bcc.n	1d4 <.udivsi3_skip_div0_test+0x64>
     17a:	2401      	movs	r4, #1
     17c:	0724      	lsls	r4, r4, #28
     17e:	42a1      	cmp	r1, r4
     180:	d204      	bcs.n	18c <.udivsi3_skip_div0_test+0x1c>
     182:	4281      	cmp	r1, r0
     184:	d202      	bcs.n	18c <.udivsi3_skip_div0_test+0x1c>
     186:	0109      	lsls	r1, r1, #4
     188:	011b      	lsls	r3, r3, #4
     18a:	e7f8      	b.n	17e <.udivsi3_skip_div0_test+0xe>
     18c:	00e4      	lsls	r4, r4, #3
     18e:	42a1      	cmp	r1, r4
     190:	d204      	bcs.n	19c <.udivsi3_skip_div0_test+0x2c>
     192:	4281      	cmp	r1, r0
     194:	d202      	bcs.n	19c <.udivsi3_skip_div0_test+0x2c>
     196:	0049      	lsls	r1, r1, #1
     198:	005b      	lsls	r3, r3, #1
     19a:	e7f8      	b.n	18e <.udivsi3_skip_div0_test+0x1e>
     19c:	4288      	cmp	r0, r1
     19e:	d301      	bcc.n	1a4 <.udivsi3_skip_div0_test+0x34>
     1a0:	1a40      	subs	r0, r0, r1
     1a2:	431a      	orrs	r2, r3
     1a4:	084c      	lsrs	r4, r1, #1
     1a6:	42a0      	cmp	r0, r4
     1a8:	d302      	bcc.n	1b0 <.udivsi3_skip_div0_test+0x40>
     1aa:	1b00      	subs	r0, r0, r4
     1ac:	085c      	lsrs	r4, r3, #1
     1ae:	4322      	orrs	r2, r4
     1b0:	088c      	lsrs	r4, r1, #2
     1b2:	42a0      	cmp	r0, r4
     1b4:	d302      	bcc.n	1bc <.udivsi3_skip_div0_test+0x4c>
     1b6:	1b00      	subs	r0, r0, r4
     1b8:	089c      	lsrs	r4, r3, #2
     1ba:	4322      	orrs	r2, r4
     1bc:	08cc      	lsrs	r4, r1, #3
     1be:	42a0      	cmp	r0, r4
     1c0:	d302      	bcc.n	1c8 <.udivsi3_skip_div0_test+0x58>
     1c2:	1b00      	subs	r0, r0, r4
     1c4:	08dc      	lsrs	r4, r3, #3
     1c6:	4322      	orrs	r2, r4
     1c8:	2800      	cmp	r0, #0
     1ca:	d003      	beq.n	1d4 <.udivsi3_skip_div0_test+0x64>
     1cc:	091b      	lsrs	r3, r3, #4
     1ce:	d001      	beq.n	1d4 <.udivsi3_skip_div0_test+0x64>
     1d0:	0909      	lsrs	r1, r1, #4
     1d2:	e7e3      	b.n	19c <.udivsi3_skip_div0_test+0x2c>
     1d4:	0010      	movs	r0, r2
     1d6:	bc10      	pop	{r4}
     1d8:	4770      	bx	lr
     1da:	b501      	push	{r0, lr}
     1dc:	2000      	movs	r0, #0
     1de:	f7ff ffc3 	bl	168 <__aeabi_idiv0>
     1e2:	bd02      	pop	{r1, pc}

000001e4 <__aeabi_uidivmod>:
     1e4:	2900      	cmp	r1, #0
     1e6:	d0f8      	beq.n	1da <.udivsi3_skip_div0_test+0x6a>
     1e8:	b503      	push	{r0, r1, lr}
     1ea:	f7ff ffc1 	bl	170 <.udivsi3_skip_div0_test>
     1ee:	bc0e      	pop	{r1, r2, r3}
     1f0:	4342      	muls	r2, r0
     1f2:	1a89      	subs	r1, r1, r2
     1f4:	4718      	bx	r3
     1f6:	46c0      	nop			@ (mov r8, r8)

000001f8 <__aeabi_cdrcmple>:
     1f8:	4684      	mov	ip, r0
     1fa:	0010      	movs	r0, r2
     1fc:	4662      	mov	r2, ip
     1fe:	468c      	mov	ip, r1
     200:	0019      	movs	r1, r3
     202:	4663      	mov	r3, ip
     204:	e000      	b.n	208 <__aeabi_cdcmpeq>
     206:	46c0      	nop			@ (mov r8, r8)

00000208 <__aeabi_cdcmpeq>:
     208:	b51f      	push	{r0, r1, r2, r3, r4, lr}
     20a:	f008 f953 	bl	84b4 <__ledf2>
     20e:	2800      	cmp	r0, #0
     210:	d401      	bmi.n	216 <__aeabi_cdcmpeq+0xe>
     212:	2100      	movs	r1, #0
     214:	42c8      	cmn	r0, r1
     216:	bd1f      	pop	{r0, r1, r2, r3, r4, pc}

00000218 <__aeabi_dcmpeq>:
     218:	b510      	push	{r4, lr}
     21a:	f008 f8a5 	bl	8368 <__eqdf2>
     21e:	4240      	negs	r0, r0
     220:	3001      	adds	r0, #1
     222:	bd10      	pop	{r4, pc}

00000224 <__aeabi_dcmplt>:
     224:	b510      	push	{r4, lr}
     226:	f008 f945 	bl	84b4 <__ledf2>
     22a:	2800      	cmp	r0, #0
     22c:	db01      	blt.n	232 <__aeabi_dcmplt+0xe>
     22e:	2000      	movs	r0, #0
     230:	bd10      	pop	{r4, pc}
     232:	2001      	movs	r0, #1
     234:	bd10      	pop	{r4, pc}
     236:	46c0      	nop			@ (mov r8, r8)

00000238 <__aeabi_dcmple>:
     238:	b510      	push	{r4, lr}
     23a:	f008 f93b 	bl	84b4 <__ledf2>
     23e:	2800      	cmp	r0, #0
     240:	dd01      	ble.n	246 <__aeabi_dcmple+0xe>
     242:	2000      	movs	r0, #0
     244:	bd10      	pop	{r4, pc}
     246:	2001      	movs	r0, #1
     248:	bd10      	pop	{r4, pc}
     24a:	46c0      	nop			@ (mov r8, r8)

0000024c <__aeabi_dcmpgt>:
     24c:	b510      	push	{r4, lr}
     24e:	f008 f8cd 	bl	83ec <__gedf2>
     252:	2800      	cmp	r0, #0
     254:	dc01      	bgt.n	25a <__aeabi_dcmpgt+0xe>
     256:	2000      	movs	r0, #0
     258:	bd10      	pop	{r4, pc}
     25a:	2001      	movs	r0, #1
     25c:	bd10      	pop	{r4, pc}
     25e:	46c0      	nop			@ (mov r8, r8)

00000260 <__aeabi_dcmpge>:
     260:	b510      	push	{r4, lr}
     262:	f008 f8c3 	bl	83ec <__gedf2>
     266:	2800      	cmp	r0, #0
     268:	da01      	bge.n	26e <__aeabi_dcmpge+0xe>
     26a:	2000      	movs	r0, #0
     26c:	bd10      	pop	{r4, pc}
     26e:	2001      	movs	r0, #1
     270:	bd10      	pop	{r4, pc}
     272:	46c0      	nop			@ (mov r8, r8)

00000274 <__aeabi_uldivmod>:
     274:	2b00      	cmp	r3, #0
     276:	d111      	bne.n	29c <__aeabi_uldivmod+0x28>
     278:	2a00      	cmp	r2, #0
     27a:	d10f      	bne.n	29c <__aeabi_uldivmod+0x28>
     27c:	2900      	cmp	r1, #0
     27e:	d100      	bne.n	282 <__aeabi_uldivmod+0xe>
     280:	2800      	cmp	r0, #0
     282:	d002      	beq.n	28a <__aeabi_uldivmod+0x16>
     284:	2100      	movs	r1, #0
     286:	43c9      	mvns	r1, r1
     288:	0008      	movs	r0, r1
     28a:	b407      	push	{r0, r1, r2}
     28c:	4802      	ldr	r0, [pc, #8]	@ (298 <__aeabi_uldivmod+0x24>)
     28e:	a102      	add	r1, pc, #8	@ (adr r1, 298 <__aeabi_uldivmod+0x24>)
     290:	1840      	adds	r0, r0, r1
     292:	9002      	str	r0, [sp, #8]
     294:	bd03      	pop	{r0, r1, pc}
     296:	46c0      	nop			@ (mov r8, r8)
     298:	fffffed1 	.word	0xfffffed1
     29c:	b403      	push	{r0, r1}
     29e:	4668      	mov	r0, sp
     2a0:	b501      	push	{r0, lr}
     2a2:	9802      	ldr	r0, [sp, #8]
     2a4:	f007 fa9c 	bl	77e0 <__udivmoddi4>
     2a8:	9b01      	ldr	r3, [sp, #4]
     2aa:	469e      	mov	lr, r3
     2ac:	b002      	add	sp, #8
     2ae:	bc0c      	pop	{r2, r3}
     2b0:	4770      	bx	lr
     2b2:	46c0      	nop			@ (mov r8, r8)

000002b4 <__gnu_thumb1_case_uhi>:
     2b4:	b403      	push	{r0, r1}
     2b6:	4671      	mov	r1, lr
     2b8:	0849      	lsrs	r1, r1, #1
     2ba:	0040      	lsls	r0, r0, #1
     2bc:	0049      	lsls	r1, r1, #1
     2be:	5a09      	ldrh	r1, [r1, r0]
     2c0:	0049      	lsls	r1, r1, #1
     2c2:	448e      	add	lr, r1
     2c4:	bc03      	pop	{r0, r1}
     2c6:	4770      	bx	lr

000002c8 <__aeabi_llsr>:
     2c8:	40d0      	lsrs	r0, r2
     2ca:	000b      	movs	r3, r1
     2cc:	40d1      	lsrs	r1, r2
     2ce:	469c      	mov	ip, r3
     2d0:	3a20      	subs	r2, #32
     2d2:	40d3      	lsrs	r3, r2
     2d4:	4318      	orrs	r0, r3
     2d6:	4252      	negs	r2, r2
     2d8:	4663      	mov	r3, ip
     2da:	4093      	lsls	r3, r2
     2dc:	4318      	orrs	r0, r3
     2de:	4770      	bx	lr

000002e0 <__aeabi_llsl>:
     2e0:	4091      	lsls	r1, r2
     2e2:	0003      	movs	r3, r0
     2e4:	4090      	lsls	r0, r2
     2e6:	469c      	mov	ip, r3
     2e8:	3a20      	subs	r2, #32
     2ea:	4093      	lsls	r3, r2
     2ec:	4319      	orrs	r1, r3
     2ee:	4252      	negs	r2, r2
     2f0:	4663      	mov	r3, ip
     2f2:	40d3      	lsrs	r3, r2
     2f4:	4319      	orrs	r1, r3
     2f6:	4770      	bx	lr

000002f8 <__clzsi2>:
     2f8:	211c      	movs	r1, #28
     2fa:	2301      	movs	r3, #1
     2fc:	041b      	lsls	r3, r3, #16
     2fe:	4298      	cmp	r0, r3
     300:	d301      	bcc.n	306 <__clzsi2+0xe>
     302:	0c00      	lsrs	r0, r0, #16
     304:	3910      	subs	r1, #16
     306:	0a1b      	lsrs	r3, r3, #8
     308:	4298      	cmp	r0, r3
     30a:	d301      	bcc.n	310 <__clzsi2+0x18>
     30c:	0a00      	lsrs	r0, r0, #8
     30e:	3908      	subs	r1, #8
     310:	091b      	lsrs	r3, r3, #4
     312:	4298      	cmp	r0, r3
     314:	d301      	bcc.n	31a <__clzsi2+0x22>
     316:	0900      	lsrs	r0, r0, #4
     318:	3904      	subs	r1, #4
     31a:	a202      	add	r2, pc, #8	@ (adr r2, 324 <__clzsi2+0x2c>)
     31c:	5c10      	ldrb	r0, [r2, r0]
     31e:	1840      	adds	r0, r0, r1
     320:	4770      	bx	lr
     322:	46c0      	nop			@ (mov r8, r8)
     324:	02020304 	.word	0x02020304
     328:	01010101 	.word	0x01010101
	...

00000334 <__clzdi2>:
     334:	b510      	push	{r4, lr}
     336:	2900      	cmp	r1, #0
     338:	d103      	bne.n	342 <__clzdi2+0xe>
     33a:	f7ff ffdd 	bl	2f8 <__clzsi2>
     33e:	3020      	adds	r0, #32
     340:	e002      	b.n	348 <__clzdi2+0x14>
     342:	0008      	movs	r0, r1
     344:	f7ff ffd8 	bl	2f8 <__clzsi2>
     348:	bd10      	pop	{r4, pc}
     34a:	46c0      	nop			@ (mov r8, r8)

0000034c <led_toogle>:

void led_toogle(uint32_t pin_number)
{
    uint32_t pins_state = NRF_GPIO->OUT;

    NRF_GPIO->OUTSET = (~pins_state & (1UL << pin_number));
     34c:	2201      	movs	r2, #1
     34e:	4082      	lsls	r2, r0
    uint32_t pins_state = NRF_GPIO->OUT;
     350:	21a0      	movs	r1, #160	@ 0xa0
{
     352:	b510      	push	{r4, lr}
    NRF_GPIO->OUTSET = (~pins_state & (1UL << pin_number));
     354:	0014      	movs	r4, r2
     356:	20a1      	movs	r0, #161	@ 0xa1
    uint32_t pins_state = NRF_GPIO->OUT;
     358:	4b04      	ldr	r3, [pc, #16]	@ (36c <led_toogle+0x20>)
     35a:	05c9      	lsls	r1, r1, #23
     35c:	58cb      	ldr	r3, [r1, r3]
    NRF_GPIO->OUTSET = (~pins_state & (1UL << pin_number));
     35e:	00c0      	lsls	r0, r0, #3
     360:	439c      	bics	r4, r3
    NRF_GPIO->OUTCLR = (pins_state & (1UL << pin_number));
     362:	4013      	ands	r3, r2
     364:	4a02      	ldr	r2, [pc, #8]	@ (370 <led_toogle+0x24>)
    NRF_GPIO->OUTSET = (~pins_state & (1UL << pin_number));
     366:	500c      	str	r4, [r1, r0]
    NRF_GPIO->OUTCLR = (pins_state & (1UL << pin_number));
     368:	508b      	str	r3, [r1, r2]
}
     36a:	bd10      	pop	{r4, pc}
     36c:	00000504 	.word	0x00000504
     370:	0000050c 	.word	0x0000050c

00000374 <led_init>:

static void pin_init(uint32_t pin)
{
    NRF_GPIO->PIN_CNF[pin] = ((uint32_t)GPIO_PIN_CNF_DIR_Output << GPIO_PIN_CNF_DIR_Pos)
     374:	23a0      	movs	r3, #160	@ 0xa0
     376:	2203      	movs	r2, #3
     378:	490b      	ldr	r1, [pc, #44]	@ (3a8 <led_init+0x34>)
     37a:	05db      	lsls	r3, r3, #23
     37c:	505a      	str	r2, [r3, r1]
     37e:	3104      	adds	r1, #4
     380:	505a      	str	r2, [r3, r1]
     382:	490a      	ldr	r1, [pc, #40]	@ (3ac <led_init+0x38>)
     384:	505a      	str	r2, [r3, r1]
     386:	3104      	adds	r1, #4
     388:	505a      	str	r2, [r3, r1]
{
    pin_init(LED1);
    pin_init(LED2);
    pin_init(LED3);
    pin_init(LED4);
    NRF_GPIO->OUTSET = 1UL << LED1;
     38a:	22a1      	movs	r2, #161	@ 0xa1
     38c:	2180      	movs	r1, #128	@ 0x80
     38e:	00d2      	lsls	r2, r2, #3
     390:	0389      	lsls	r1, r1, #14
     392:	5099      	str	r1, [r3, r2]
    NRF_GPIO->OUTSET = 1UL << LED2;
     394:	2180      	movs	r1, #128	@ 0x80
     396:	03c9      	lsls	r1, r1, #15
     398:	5099      	str	r1, [r3, r2]
    NRF_GPIO->OUTSET = 1UL << LED3;
     39a:	2180      	movs	r1, #128	@ 0x80
     39c:	0409      	lsls	r1, r1, #16
     39e:	5099      	str	r1, [r3, r2]
    NRF_GPIO->OUTSET = 1UL << LED4;
     3a0:	2180      	movs	r1, #128	@ 0x80
     3a2:	0449      	lsls	r1, r1, #17
     3a4:	5099      	str	r1, [r3, r2]
     3a6:	4770      	bx	lr
     3a8:	00000754 	.word	0x00000754
     3ac:	0000075c 	.word	0x0000075c

000003b0 <main>:

    while (NRF_CLOCK->EVENTS_HFCLKSTARTED == 0);
}

int main()
{
     3b0:	b5f0      	push	{r4, r5, r6, r7, lr}
     3b2:	46c6      	mov	lr, r8
	setbuf(stdout, NULL);
     3b4:	4b1b      	ldr	r3, [pc, #108]	@ (424 <main+0x74>)
     3b6:	2100      	movs	r1, #0
     3b8:	681b      	ldr	r3, [r3, #0]
{
     3ba:	b500      	push	{lr}
	setbuf(stdout, NULL);
     3bc:	6898      	ldr	r0, [r3, #8]
     3be:	f000 fa3b 	bl	838 <setbuf>
    NRF_CLOCK->EVENTS_HFCLKSTARTED = 0;
     3c2:	2280      	movs	r2, #128	@ 0x80
     3c4:	2180      	movs	r1, #128	@ 0x80
     3c6:	2300      	movs	r3, #0
     3c8:	05d2      	lsls	r2, r2, #23
     3ca:	0049      	lsls	r1, r1, #1
     3cc:	5053      	str	r3, [r2, r1]
    NRF_CLOCK->TASKS_HFCLKSTART = 1;
     3ce:	3301      	adds	r3, #1
     3d0:	6013      	str	r3, [r2, #0]
    while (NRF_CLOCK->EVENTS_HFCLKSTARTED == 0);
     3d2:	5853      	ldr	r3, [r2, r1]
     3d4:	2b00      	cmp	r3, #0
     3d6:	d0fc      	beq.n	3d2 <main+0x22>
	clocks_start();
    timer_init();
     3d8:	f000 f9a4 	bl	724 <timer_init>
	led_init();
     3dc:	f7ff ffca 	bl	374 <led_init>
	uart_init();
     3e0:	f000 f9dc 	bl	79c <uart_init>
	printf("\n\rHello rssi scanner.");
     3e4:	4810      	ldr	r0, [pc, #64]	@ (428 <main+0x78>)
     3e6:	f000 fa15 	bl	814 <printf>

	uint8_t channel = 37;
	radio_init(channel);
     3ea:	2025      	movs	r0, #37	@ 0x25
     3ec:	f000 f824 	bl	438 <radio_init>
	radio_start_rx(channel);
     3f0:	2025      	movs	r0, #37	@ 0x25
     3f2:	f000 f845 	bl	480 <radio_start_rx>

	uint32_t last_print = timer_get_time();
     3f6:	f000 f98f 	bl	718 <timer_get_time>
     3fa:	4b0c      	ldr	r3, [pc, #48]	@ (42c <main+0x7c>)

	while(1)
	{
	
		if((timer_get_time() - last_print) > 1000) //execute every 1s
     3fc:	26fa      	movs	r6, #250	@ 0xfa
	uint32_t last_print = timer_get_time();
     3fe:	0004      	movs	r4, r0
     400:	4698      	mov	r8, r3
		{
			last_print = timer_get_time();
			NRF_RADIO->TASKS_RSSISTART = 1;
     402:	2701      	movs	r7, #1
     404:	4d0a      	ldr	r5, [pc, #40]	@ (430 <main+0x80>)
		if((timer_get_time() - last_print) > 1000) //execute every 1s
     406:	00b6      	lsls	r6, r6, #2
     408:	f000 f986 	bl	718 <timer_get_time>
     40c:	1b00      	subs	r0, r0, r4
     40e:	42b0      	cmp	r0, r6
     410:	d9fa      	bls.n	408 <main+0x58>
			last_print = timer_get_time();
     412:	f000 f981 	bl	718 <timer_get_time>
			// printf("\033[2J"); //VT100 clear screen
			// uint8_t rssi = NRF_RADIO->RSSISAMPLE;
			led_toogle(LED3);
     416:	4643      	mov	r3, r8
			last_print = timer_get_time();
     418:	0004      	movs	r4, r0
			NRF_RADIO->TASKS_RSSISTART = 1;
     41a:	616f      	str	r7, [r5, #20]
			led_toogle(LED3);
     41c:	6818      	ldr	r0, [r3, #0]
     41e:	f7ff ff95 	bl	34c <led_toogle>
     422:	e7f1      	b.n	408 <main+0x58>
     424:	20000014 	.word	0x20000014
     428:	000090a8 	.word	0x000090a8
     42c:	0000909c 	.word	0x0000909c
     430:	40001000 	.word	0x40001000

00000434 <Default_Handler>:
	}
}

void Default_Handler(void)
{
	while(1);
     434:	e7fe      	b.n	434 <Default_Handler>
     436:	46c0      	nop			@ (mov r8, r8)

00000438 <radio_init>:
    NRF_RADIO->MODE = RADIO_MODE_MODE_Ble_1Mbit << RADIO_MODE_MODE_Pos;
     438:	22a2      	movs	r2, #162	@ 0xa2
     43a:	2103      	movs	r1, #3
    SCB->SHP[_SHP_IDX(IRQn)] = ((uint32_t)(SCB->SHP[_SHP_IDX(IRQn)] & ~(0xFFUL << _BIT_SHIFT(IRQn))) |
       (((priority << (8U - __NVIC_PRIO_BITS)) & (uint32_t)0xFFUL) << _BIT_SHIFT(IRQn)));
  }
  else
  {
    NVIC->IP[_IP_IDX(IRQn)]  = ((uint32_t)(NVIC->IP[_IP_IDX(IRQn)]  & ~(0xFFUL << _BIT_SHIFT(IRQn))) |
     43c:	20c0      	movs	r0, #192	@ 0xc0
     43e:	4b0a      	ldr	r3, [pc, #40]	@ (468 <radio_init+0x30>)
{
     440:	b510      	push	{r4, lr}
    NRF_RADIO->MODE = RADIO_MODE_MODE_Ble_1Mbit << RADIO_MODE_MODE_Pos;
     442:	00d2      	lsls	r2, r2, #3
     444:	4c09      	ldr	r4, [pc, #36]	@ (46c <radio_init+0x34>)
     446:	5099      	str	r1, [r3, r2]
     448:	0080      	lsls	r0, r0, #2
     44a:	5821      	ldr	r1, [r4, r0]
     44c:	4a08      	ldr	r2, [pc, #32]	@ (470 <radio_init+0x38>)
     44e:	4011      	ands	r1, r2
     450:	2280      	movs	r2, #128	@ 0x80
     452:	01d2      	lsls	r2, r2, #7
     454:	430a      	orrs	r2, r1
     456:	5022      	str	r2, [r4, r0]
    NRF_RADIO->BASE0 = 0x89BED611;
     458:	4906      	ldr	r1, [pc, #24]	@ (474 <radio_init+0x3c>)
     45a:	4a07      	ldr	r2, [pc, #28]	@ (478 <radio_init+0x40>)
     45c:	5099      	str	r1, [r3, r2]
    NRF_RADIO->PREFIX0 = 0x8E;
     45e:	218e      	movs	r1, #142	@ 0x8e
     460:	4a06      	ldr	r2, [pc, #24]	@ (47c <radio_init+0x44>)
     462:	5099      	str	r1, [r3, r2]
}
     464:	bd10      	pop	{r4, pc}
     466:	46c0      	nop			@ (mov r8, r8)
     468:	40001000 	.word	0x40001000
     46c:	e000e100 	.word	0xe000e100
     470:	ffff00ff 	.word	0xffff00ff
     474:	89bed611 	.word	0x89bed611
     478:	0000051c 	.word	0x0000051c
     47c:	00000524 	.word	0x00000524

00000480 <radio_start_rx>:
{
     480:	0001      	movs	r1, r0
    NRF_RADIO->INTENCLR = 0xFFFFFFFF;
     482:	22c2      	movs	r2, #194	@ 0xc2
     484:	2001      	movs	r0, #1
     486:	4b24      	ldr	r3, [pc, #144]	@ (518 <radio_start_rx+0x98>)
     488:	0092      	lsls	r2, r2, #2
     48a:	4240      	negs	r0, r0
{
     48c:	b510      	push	{r4, lr}
    NRF_RADIO->INTENCLR = 0xFFFFFFFF;
     48e:	5098      	str	r0, [r3, r2]
    NRF_RADIO->EVENTS_DISABLED = 0;
     490:	2200      	movs	r2, #0
    NRF_RADIO->INTENSET    = RADIO_INTENSET_END_Msk | RADIO_INTENSET_RSSIEND_Msk;
     492:	2488      	movs	r4, #136	@ 0x88
    NRF_RADIO->EVENTS_DISABLED = 0;
     494:	3012      	adds	r0, #18
     496:	30ff      	adds	r0, #255	@ 0xff
     498:	501a      	str	r2, [r3, r0]
    NRF_RADIO->EVENTS_END = 0;
     49a:	3804      	subs	r0, #4
     49c:	501a      	str	r2, [r3, r0]
    NRF_RADIO->SHORTS      = RADIO_SHORTS_READY_START_Msk ;
     49e:	3201      	adds	r2, #1
     4a0:	30f4      	adds	r0, #244	@ 0xf4
     4a2:	501a      	str	r2, [r3, r0]
    NRF_RADIO->INTENSET    = RADIO_INTENSET_END_Msk | RADIO_INTENSET_RSSIEND_Msk;
     4a4:	3005      	adds	r0, #5
     4a6:	30ff      	adds	r0, #255	@ 0xff
     4a8:	501c      	str	r4, [r3, r0]
    NRF_RADIO->RXADDRESSES  = 1;
     4aa:	20a6      	movs	r0, #166	@ 0xa6
     4ac:	00c0      	lsls	r0, r0, #3
     4ae:	501a      	str	r2, [r3, r0]
    if(channel_number > 39) channel_number = 0;
     4b0:	2927      	cmp	r1, #39	@ 0x27
     4b2:	d826      	bhi.n	502 <radio_start_rx+0x82>
    switch(channel_number)
     4b4:	000b      	movs	r3, r1
     4b6:	3b25      	subs	r3, #37	@ 0x25
     4b8:	b2db      	uxtb	r3, r3
     4ba:	2b02      	cmp	r3, #2
     4bc:	d825      	bhi.n	50a <radio_start_rx+0x8a>
     4be:	4a17      	ldr	r2, [pc, #92]	@ (51c <radio_start_rx+0x9c>)
     4c0:	5cd4      	ldrb	r4, [r2, r3]
    printf("\n\rScanning channel: %d(%dMHz)", channel_number, 2400+freq_reg);
     4c2:	2396      	movs	r3, #150	@ 0x96
     4c4:	011b      	lsls	r3, r3, #4
     4c6:	18e2      	adds	r2, r4, r3
     4c8:	4815      	ldr	r0, [pc, #84]	@ (520 <radio_start_rx+0xa0>)
     4ca:	f000 f9a3 	bl	814 <printf>
    NRF_RADIO->FREQUENCY    = freq_reg;
     4ce:	22a1      	movs	r2, #161	@ 0xa1
     4d0:	4b11      	ldr	r3, [pc, #68]	@ (518 <radio_start_rx+0x98>)
     4d2:	00d2      	lsls	r2, r2, #3
     4d4:	509c      	str	r4, [r3, r2]
    NRF_RADIO->PACKETPTR    = (uint32_t)rx_pdu_buffer;
     4d6:	4913      	ldr	r1, [pc, #76]	@ (524 <radio_start_rx+0xa4>)
     4d8:	4a13      	ldr	r2, [pc, #76]	@ (528 <radio_start_rx+0xa8>)
  NVIC->ICPR[0U] = (uint32_t)(1UL << (((uint32_t)(int32_t)IRQn) & 0x1FUL));
     4da:	20c0      	movs	r0, #192	@ 0xc0
     4dc:	505a      	str	r2, [r3, r1]
     4de:	2102      	movs	r1, #2
     4e0:	4a12      	ldr	r2, [pc, #72]	@ (52c <radio_start_rx+0xac>)
     4e2:	0040      	lsls	r0, r0, #1
     4e4:	5011      	str	r1, [r2, r0]
  NVIC->ISER[0U] = (uint32_t)(1UL << (((uint32_t)(int32_t)IRQn) & 0x1FUL));
     4e6:	6011      	str	r1, [r2, #0]
    NRF_RADIO->EVENTS_ADDRESS = 0;
     4e8:	2200      	movs	r2, #0
     4ea:	3103      	adds	r1, #3
     4ec:	31ff      	adds	r1, #255	@ 0xff
     4ee:	505a      	str	r2, [r3, r1]
    NRF_RADIO->EVENTS_PAYLOAD = 0;
     4f0:	3104      	adds	r1, #4
     4f2:	505a      	str	r2, [r3, r1]
    NRF_RADIO->EVENTS_DISABLED = 0;
     4f4:	3108      	adds	r1, #8
     4f6:	505a      	str	r2, [r3, r1]
    NRF_RADIO->EVENTS_END = 0;
     4f8:	3904      	subs	r1, #4
     4fa:	505a      	str	r2, [r3, r1]
    NRF_RADIO->TASKS_RXEN  = 1;
     4fc:	3201      	adds	r2, #1
     4fe:	605a      	str	r2, [r3, #4]
}
     500:	bd10      	pop	{r4, pc}
     502:	2404      	movs	r4, #4
     504:	2100      	movs	r1, #0
     506:	4a0a      	ldr	r2, [pc, #40]	@ (530 <radio_start_rx+0xb0>)
     508:	e7de      	b.n	4c8 <radio_start_rx+0x48>
    uint8_t freq_reg = 4+channel_number*2;
     50a:	1c8c      	adds	r4, r1, #2
     50c:	4094      	lsls	r4, r2
    printf("\n\rScanning channel: %d(%dMHz)", channel_number, 2400+freq_reg);
     50e:	2396      	movs	r3, #150	@ 0x96
    uint8_t freq_reg = 4+channel_number*2;
     510:	b2e4      	uxtb	r4, r4
    printf("\n\rScanning channel: %d(%dMHz)", channel_number, 2400+freq_reg);
     512:	011b      	lsls	r3, r3, #4
     514:	18e2      	adds	r2, r4, r3
     516:	e7d7      	b.n	4c8 <radio_start_rx+0x48>
     518:	40001000 	.word	0x40001000
     51c:	00009228 	.word	0x00009228
     520:	000090c0 	.word	0x000090c0
     524:	00000504 	.word	0x00000504
     528:	200006e4 	.word	0x200006e4
     52c:	e000e100 	.word	0xe000e100
     530:	00000964 	.word	0x00000964

00000534 <RADIO_IRQHandler>:
int rssi_counter = 0;
void RADIO_IRQHandler()
{
    // NRF_RADIO->TASKS_RSSISTOP = 1;
    //Ready state/event means that radio is ready to reception and is waiting for start 
    if (NRF_RADIO->EVENTS_READY && (NRF_RADIO->INTENSET & RADIO_INTENSET_READY_Msk))
     534:	2280      	movs	r2, #128	@ 0x80
     536:	4b3c      	ldr	r3, [pc, #240]	@ (628 <RADIO_IRQHandler+0xf4>)
     538:	0052      	lsls	r2, r2, #1
     53a:	5899      	ldr	r1, [r3, r2]
{
     53c:	b570      	push	{r4, r5, r6, lr}
    if (NRF_RADIO->EVENTS_READY && (NRF_RADIO->INTENSET & RADIO_INTENSET_READY_Msk))
     53e:	2900      	cmp	r1, #0
     540:	d004      	beq.n	54c <RADIO_IRQHandler+0x18>
     542:	21c1      	movs	r1, #193	@ 0xc1
     544:	0089      	lsls	r1, r1, #2
     546:	5859      	ldr	r1, [r3, r1]
     548:	07c9      	lsls	r1, r1, #31
     54a:	d431      	bmi.n	5b0 <RADIO_IRQHandler+0x7c>
    {
        NRF_RADIO->EVENTS_READY = 0;
    }

    //End event explains that packet with crc is received 
    if (NRF_RADIO->EVENTS_END && (NRF_RADIO->INTENSET & RADIO_INTENSET_END_Msk))
     54c:	2386      	movs	r3, #134	@ 0x86
     54e:	4c36      	ldr	r4, [pc, #216]	@ (628 <RADIO_IRQHandler+0xf4>)
     550:	005b      	lsls	r3, r3, #1
     552:	58e2      	ldr	r2, [r4, r3]
     554:	2a00      	cmp	r2, #0
     556:	d004      	beq.n	562 <RADIO_IRQHandler+0x2e>
     558:	22c1      	movs	r2, #193	@ 0xc1
     55a:	0092      	lsls	r2, r2, #2
     55c:	58a2      	ldr	r2, [r4, r2]
     55e:	0712      	lsls	r2, r2, #28
     560:	d458      	bmi.n	614 <RADIO_IRQHandler+0xe0>
        led_toogle(LED1);
        NRF_RADIO->TASKS_START  = 1;
        // printf("\n\rRADIO END, and started again");
    }

    if (NRF_RADIO->EVENTS_RSSIEND && (NRF_RADIO->INTENSET & RADIO_INTENSET_RSSIEND_Msk))
     562:	238e      	movs	r3, #142	@ 0x8e
     564:	4c30      	ldr	r4, [pc, #192]	@ (628 <RADIO_IRQHandler+0xf4>)
     566:	005b      	lsls	r3, r3, #1
     568:	58e2      	ldr	r2, [r4, r3]
     56a:	2a00      	cmp	r2, #0
     56c:	d004      	beq.n	578 <RADIO_IRQHandler+0x44>
     56e:	22c1      	movs	r2, #193	@ 0xc1
     570:	0092      	lsls	r2, r2, #2
     572:	58a2      	ldr	r2, [r4, r2]
     574:	0612      	lsls	r2, r2, #24
     576:	d41e      	bmi.n	5b6 <RADIO_IRQHandler+0x82>
            max_rssi = rssi;
            rssi_counter = 0;
        }
    }

    if (NRF_RADIO->EVENTS_ADDRESS && (NRF_RADIO->INTENSET & RADIO_INTENSET_ADDRESS_Msk))
     578:	2282      	movs	r2, #130	@ 0x82
     57a:	4b2b      	ldr	r3, [pc, #172]	@ (628 <RADIO_IRQHandler+0xf4>)
     57c:	0052      	lsls	r2, r2, #1
     57e:	5899      	ldr	r1, [r3, r2]
     580:	2900      	cmp	r1, #0
     582:	d004      	beq.n	58e <RADIO_IRQHandler+0x5a>
     584:	21c1      	movs	r1, #193	@ 0xc1
     586:	0089      	lsls	r1, r1, #2
     588:	5859      	ldr	r1, [r3, r1]
     58a:	0789      	lsls	r1, r1, #30
     58c:	d40d      	bmi.n	5aa <RADIO_IRQHandler+0x76>
    {
        NRF_RADIO->EVENTS_ADDRESS = 0;
    }

    if (NRF_RADIO->EVENTS_DISABLED && (NRF_RADIO->INTENSET & RADIO_INTENSET_DISABLED_Msk))
     58e:	2288      	movs	r2, #136	@ 0x88
     590:	4b25      	ldr	r3, [pc, #148]	@ (628 <RADIO_IRQHandler+0xf4>)
     592:	0052      	lsls	r2, r2, #1
     594:	5899      	ldr	r1, [r3, r2]
     596:	2900      	cmp	r1, #0
     598:	d006      	beq.n	5a8 <RADIO_IRQHandler+0x74>
     59a:	21c1      	movs	r1, #193	@ 0xc1
     59c:	0089      	lsls	r1, r1, #2
     59e:	5859      	ldr	r1, [r3, r1]
     5a0:	06c9      	lsls	r1, r1, #27
     5a2:	d501      	bpl.n	5a8 <RADIO_IRQHandler+0x74>
    {
        NRF_RADIO->EVENTS_DISABLED = 0;
     5a4:	2100      	movs	r1, #0
     5a6:	5099      	str	r1, [r3, r2]
    }
     5a8:	bd70      	pop	{r4, r5, r6, pc}
        NRF_RADIO->EVENTS_ADDRESS = 0;
     5aa:	2100      	movs	r1, #0
     5ac:	5099      	str	r1, [r3, r2]
     5ae:	e7ee      	b.n	58e <RADIO_IRQHandler+0x5a>
        NRF_RADIO->EVENTS_READY = 0;
     5b0:	2100      	movs	r1, #0
     5b2:	5099      	str	r1, [r3, r2]
     5b4:	e7ca      	b.n	54c <RADIO_IRQHandler+0x18>
        NRF_RADIO->EVENTS_RSSIEND = 0;
     5b6:	2200      	movs	r2, #0
     5b8:	50e2      	str	r2, [r4, r3]
        led_toogle(LED2);
     5ba:	4b1c      	ldr	r3, [pc, #112]	@ (62c <RADIO_IRQHandler+0xf8>)
     5bc:	6818      	ldr	r0, [r3, #0]
     5be:	f7ff fec5 	bl	34c <led_toogle>
        int16_t rssi = -NRF_RADIO->RSSISAMPLE;
     5c2:	23a9      	movs	r3, #169	@ 0xa9
     5c4:	00db      	lsls	r3, r3, #3
     5c6:	58e4      	ldr	r4, [r4, r3]
        if (rssi > max_rssi)
     5c8:	4d19      	ldr	r5, [pc, #100]	@ (630 <RADIO_IRQHandler+0xfc>)
        int16_t rssi = -NRF_RADIO->RSSISAMPLE;
     5ca:	4264      	negs	r4, r4
        if (rssi > max_rssi)
     5cc:	2200      	movs	r2, #0
     5ce:	5eab      	ldrsh	r3, [r5, r2]
        int16_t rssi = -NRF_RADIO->RSSISAMPLE;
     5d0:	b224      	sxth	r4, r4
        if (rssi > max_rssi)
     5d2:	42a3      	cmp	r3, r4
     5d4:	da00      	bge.n	5d8 <RADIO_IRQHandler+0xa4>
            max_rssi = rssi;
     5d6:	802c      	strh	r4, [r5, #0]
    int16_t color_index = (value-min)/values_per_color;
     5d8:	0020      	movs	r0, r4
     5da:	2103      	movs	r1, #3
     5dc:	3064      	adds	r0, #100	@ 0x64
     5de:	f7ff fd6f 	bl	c0 <__divsi3>
     5e2:	1c03      	adds	r3, r0, #0
    if(color_index >= colors_count)
     5e4:	b200      	sxth	r0, r0
    printf(" \033[%dm %d", colors_vt100[color_index],value);
     5e6:	4e13      	ldr	r6, [pc, #76]	@ (634 <RADIO_IRQHandler+0x100>)
    if(color_index >= colors_count)
     5e8:	280c      	cmp	r0, #12
     5ea:	dd00      	ble.n	5ee <RADIO_IRQHandler+0xba>
     5ec:	230c      	movs	r3, #12
    printf(" \033[%dm %d", colors_vt100[color_index],value);
     5ee:	b21b      	sxth	r3, r3
     5f0:	0022      	movs	r2, r4
     5f2:	5cf1      	ldrb	r1, [r6, r3]
     5f4:	4810      	ldr	r0, [pc, #64]	@ (638 <RADIO_IRQHandler+0x104>)
     5f6:	f000 f90d 	bl	814 <printf>
        NRF_RADIO->TASKS_RSSISTART = 1;	
     5fa:	2201      	movs	r2, #1
     5fc:	4b0a      	ldr	r3, [pc, #40]	@ (628 <RADIO_IRQHandler+0xf4>)
     5fe:	615a      	str	r2, [r3, #20]
        rssi_counter++;
     600:	4a0e      	ldr	r2, [pc, #56]	@ (63c <RADIO_IRQHandler+0x108>)
     602:	6813      	ldr	r3, [r2, #0]
     604:	3301      	adds	r3, #1
     606:	6013      	str	r3, [r2, #0]
        if (rssi_counter > 100)
     608:	2b64      	cmp	r3, #100	@ 0x64
     60a:	ddb5      	ble.n	578 <RADIO_IRQHandler+0x44>
            rssi_counter = 0;
     60c:	2300      	movs	r3, #0
            max_rssi = rssi;
     60e:	802c      	strh	r4, [r5, #0]
            rssi_counter = 0;
     610:	6013      	str	r3, [r2, #0]
     612:	e7b1      	b.n	578 <RADIO_IRQHandler+0x44>
        NRF_RADIO->EVENTS_END = 0;
     614:	2200      	movs	r2, #0
     616:	50e2      	str	r2, [r4, r3]
        led_toogle(LED1);
     618:	4b09      	ldr	r3, [pc, #36]	@ (640 <RADIO_IRQHandler+0x10c>)
     61a:	6818      	ldr	r0, [r3, #0]
     61c:	f7ff fe96 	bl	34c <led_toogle>
        NRF_RADIO->TASKS_START  = 1;
     620:	2301      	movs	r3, #1
     622:	60a3      	str	r3, [r4, #8]
     624:	e79d      	b.n	562 <RADIO_IRQHandler+0x2e>
     626:	46c0      	nop			@ (mov r8, r8)
     628:	40001000 	.word	0x40001000
     62c:	000090a0 	.word	0x000090a0
     630:	20000000 	.word	0x20000000
     634:	20000004 	.word	0x20000004
     638:	000090e0 	.word	0x000090e0
     63c:	200006e0 	.word	0x200006e0
     640:	000090a4 	.word	0x000090a4

00000644 <ADC_IRQHandler>:

int main(void);


static void Default_Handler(void) {
  for (;;);
     644:	e7fe      	b.n	644 <ADC_IRQHandler>
     646:	46c0      	nop			@ (mov r8, r8)

00000648 <Reset_Handler>:
}

static void Reset_Handler(void) {
  unsigned long *src, *dst;

  for (dst = &_sdata, src = &_sidata; dst < &_edata; ++dst, ++src)
     648:	480d      	ldr	r0, [pc, #52]	@ (680 <Reset_Handler+0x38>)
     64a:	4b0e      	ldr	r3, [pc, #56]	@ (684 <Reset_Handler+0x3c>)
static void Reset_Handler(void) {
     64c:	b510      	push	{r4, lr}
  for (dst = &_sdata, src = &_sidata; dst < &_edata; ++dst, ++src)
     64e:	4298      	cmp	r0, r3
     650:	d207      	bcs.n	662 <Reset_Handler+0x1a>
    *dst = *src;
     652:	3b01      	subs	r3, #1
     654:	1a1a      	subs	r2, r3, r0
     656:	0892      	lsrs	r2, r2, #2
     658:	3201      	adds	r2, #1
     65a:	490b      	ldr	r1, [pc, #44]	@ (688 <Reset_Handler+0x40>)
     65c:	0092      	lsls	r2, r2, #2
     65e:	f000 fa1d 	bl	a9c <memcpy>
 
  for (dst = &_sbss; dst < &_ebss; ++dst)
     662:	480a      	ldr	r0, [pc, #40]	@ (68c <Reset_Handler+0x44>)
     664:	4b0a      	ldr	r3, [pc, #40]	@ (690 <Reset_Handler+0x48>)
     666:	4298      	cmp	r0, r3
     668:	d207      	bcs.n	67a <Reset_Handler+0x32>
    *dst = 0;
     66a:	3b01      	subs	r3, #1
     66c:	1a1a      	subs	r2, r3, r0
     66e:	0892      	lsrs	r2, r2, #2
     670:	3201      	adds	r2, #1
     672:	2100      	movs	r1, #0
     674:	0092      	lsls	r2, r2, #2
     676:	f000 f9bf 	bl	9f8 <memset>
  main();
     67a:	f7ff fe99 	bl	3b0 <main>
  for (;;);
     67e:	e7fe      	b.n	67e <Reset_Handler+0x36>
     680:	20000000 	.word	0x20000000
     684:	200006e0 	.word	0x200006e0
     688:	000097e0 	.word	0x000097e0
     68c:	200006e0 	.word	0x200006e0
     690:	20001d68 	.word	0x20001d68

00000694 <_write>:
// https://www.embecosm.com/appnotes/ean9/ean9-howto-newlib-1.0.html#id2719973
int
_write (int   file,
        char *buf,
        int   nbytes)
{
     694:	b570      	push	{r4, r5, r6, lr}
     696:	1e16      	subs	r6, r2, #0
  int i;

  /* Output character at at time */
  for (i = 0; i < nbytes; i++)
     698:	dd07      	ble.n	6aa <_write+0x16>
     69a:	000c      	movs	r4, r1
     69c:	188d      	adds	r5, r1, r2
    {
      uart_put (buf[i]);
     69e:	7820      	ldrb	r0, [r4, #0]
  for (i = 0; i < nbytes; i++)
     6a0:	3401      	adds	r4, #1
      uart_put (buf[i]);
     6a2:	f000 f8a7 	bl	7f4 <uart_put>
  for (i = 0; i < nbytes; i++)
     6a6:	42ac      	cmp	r4, r5
     6a8:	d1f9      	bne.n	69e <_write+0xa>
    }
        
  return nbytes;

}
     6aa:	0030      	movs	r0, r6
     6ac:	bd70      	pop	{r4, r5, r6, pc}
     6ae:	46c0      	nop			@ (mov r8, r8)

000006b0 <_sbrk>:
  write_str("\n\rAllocating:");
  int_write(nbytes);
  write_str("bytes");
  #endif

  if(last+nbytes < HEAP_SIZE)
     6b0:	4906      	ldr	r1, [pc, #24]	@ (6cc <_sbrk+0x1c>)
     6b2:	880b      	ldrh	r3, [r1, #0]
     6b4:	181a      	adds	r2, r3, r0
     6b6:	20a0      	movs	r0, #160	@ 0xa0
     6b8:	0140      	lsls	r0, r0, #5
     6ba:	4282      	cmp	r2, r0
     6bc:	da03      	bge.n	6c6 <_sbrk+0x16>
  {
    void* pointer = &heap[last];
     6be:	4804      	ldr	r0, [pc, #16]	@ (6d0 <_sbrk+0x20>)
    last+=nbytes;
     6c0:	800a      	strh	r2, [r1, #0]
    void* pointer = &heap[last];
     6c2:	1818      	adds	r0, r3, r0
  }
  else
  {
    return  (void *) -1;
  }
}
     6c4:	4770      	bx	lr
    return  (void *) -1;
     6c6:	2001      	movs	r0, #1
     6c8:	4240      	negs	r0, r0
     6ca:	e7fb      	b.n	6c4 <_sbrk+0x14>
     6cc:	20001be4 	.word	0x20001be4
     6d0:	200007e4 	.word	0x200007e4

000006d4 <_close>:

int
_close (int   file)
{
  errno = EBADF;
     6d4:	2209      	movs	r2, #9
  
  return -1;                    /* Always fails */
     6d6:	2001      	movs	r0, #1
  errno = EBADF;
     6d8:	4b01      	ldr	r3, [pc, #4]	@ (6e0 <_close+0xc>)
}
     6da:	4240      	negs	r0, r0
  errno = EBADF;
     6dc:	601a      	str	r2, [r3, #0]
}
     6de:	4770      	bx	lr
     6e0:	20001bec 	.word	0x20001bec

000006e4 <_lseek>:
        int   offset,
        int   whence)
{
  return  0;

} 
     6e4:	2000      	movs	r0, #0
     6e6:	4770      	bx	lr

000006e8 <_read>:
       char *ptr,
       int   len)
{
  return  0;                            /* EOF */

} 
     6e8:	2000      	movs	r0, #0
     6ea:	4770      	bx	lr

000006ec <_fstat>:

int
_fstat (int          file,
        struct stat *st)
{
  st->st_mode = S_IFCHR;
     6ec:	2380      	movs	r3, #128	@ 0x80
     6ee:	019b      	lsls	r3, r3, #6
  return  0;

}
     6f0:	2000      	movs	r0, #0
  st->st_mode = S_IFCHR;
     6f2:	604b      	str	r3, [r1, #4]
}
     6f4:	4770      	bx	lr
     6f6:	46c0      	nop			@ (mov r8, r8)

000006f8 <_isatty>:
int
_isatty (int   file)
{
  return  1;

}
     6f8:	2001      	movs	r0, #1
     6fa:	4770      	bx	lr

000006fc <_exit>:

void Default_Handler(void);
void 
_exit (int  rc)
{
     6fc:	b510      	push	{r4, lr}
 Default_Handler();
     6fe:	f7ff fe99 	bl	434 <Default_Handler>
 while(1){}
     702:	e7fe      	b.n	702 <_exit+0x6>

00000704 <_kill>:

int
_kill (int  pid,
       int  sig)
{
  errno = EINVAL;
     704:	2216      	movs	r2, #22
  return -1;                    /* Always fails */
     706:	2001      	movs	r0, #1
  errno = EINVAL;
     708:	4b01      	ldr	r3, [pc, #4]	@ (710 <_kill+0xc>)

} 
     70a:	4240      	negs	r0, r0
  errno = EINVAL;
     70c:	601a      	str	r2, [r3, #0]
} 
     70e:	4770      	bx	lr
     710:	20001bec 	.word	0x20001bec

00000714 <_getpid>:
int
_getpid ()
{
  return  1;                            /* Success */

     714:	2001      	movs	r0, #1
     716:	4770      	bx	lr

00000718 <timer_get_time>:

volatile uint32_t ms_counter = 0 ;

uint32_t timer_get_time(void)
{
    return ms_counter;
     718:	4b01      	ldr	r3, [pc, #4]	@ (720 <timer_get_time+0x8>)
     71a:	6818      	ldr	r0, [r3, #0]
}
     71c:	4770      	bx	lr
     71e:	46c0      	nop			@ (mov r8, r8)
     720:	20001be8 	.word	0x20001be8

00000724 <timer_init>:

void timer_init(void)
{
    // Configure the system timer with a 1 MHz base frequency
    NRF_TIMER2->PRESCALER = 4;
     724:	22a2      	movs	r2, #162	@ 0xa2
     726:	2104      	movs	r1, #4
     728:	4b12      	ldr	r3, [pc, #72]	@ (774 <timer_init+0x50>)
     72a:	00d2      	lsls	r2, r2, #3
{
     72c:	b530      	push	{r4, r5, lr}
    NRF_TIMER2->PRESCALER = 4;
     72e:	5099      	str	r1, [r3, r2]
    NRF_TIMER2->BITMODE   = TIMER_BITMODE_BITMODE_16Bit;
     730:	2100      	movs	r1, #0
     732:	3a08      	subs	r2, #8
     734:	5099      	str	r1, [r3, r2]
    NRF_TIMER2->CC[0] = 1000; //Capture every 1ms =1khz
     736:	21fa      	movs	r1, #250	@ 0xfa
     738:	3238      	adds	r2, #56	@ 0x38
     73a:	0089      	lsls	r1, r1, #2
     73c:	5099      	str	r1, [r3, r2]
	NRF_TIMER2->SHORTS    = TIMER_SHORTS_COMPARE0_CLEAR_Msk;
     73e:	2280      	movs	r2, #128	@ 0x80
     740:	2401      	movs	r4, #1
	NRF_TIMER2->INTENSET = TIMER_INTENSET_COMPARE0_Msk;
     742:	2180      	movs	r1, #128	@ 0x80
    NVIC->IP[_IP_IDX(IRQn)]  = ((uint32_t)(NVIC->IP[_IP_IDX(IRQn)]  & ~(0xFFUL << _BIT_SHIFT(IRQn))) |
     744:	25c2      	movs	r5, #194	@ 0xc2
	NRF_TIMER2->SHORTS    = TIMER_SHORTS_COMPARE0_CLEAR_Msk;
     746:	0092      	lsls	r2, r2, #2
     748:	509c      	str	r4, [r3, r2]
	NRF_TIMER2->INTENSET = TIMER_INTENSET_COMPARE0_Msk;
     74a:	3205      	adds	r2, #5
     74c:	32ff      	adds	r2, #255	@ 0xff
     74e:	0249      	lsls	r1, r1, #9
     750:	5099      	str	r1, [r3, r2]
     752:	4a09      	ldr	r2, [pc, #36]	@ (778 <timer_init+0x54>)
     754:	00ad      	lsls	r5, r5, #2
     756:	5950      	ldr	r0, [r2, r5]
     758:	4908      	ldr	r1, [pc, #32]	@ (77c <timer_init+0x58>)
     75a:	4008      	ands	r0, r1
     75c:	2180      	movs	r1, #128	@ 0x80
     75e:	0409      	lsls	r1, r1, #16
     760:	4301      	orrs	r1, r0
     762:	5151      	str	r1, [r2, r5]
  NVIC->ICPR[0U] = (uint32_t)(1UL << (((uint32_t)(int32_t)IRQn) & 0x1FUL));
     764:	20c0      	movs	r0, #192	@ 0xc0
     766:	2180      	movs	r1, #128	@ 0x80
     768:	0040      	lsls	r0, r0, #1
     76a:	00c9      	lsls	r1, r1, #3
     76c:	5011      	str	r1, [r2, r0]
  NVIC->ISER[0U] = (uint32_t)(1UL << (((uint32_t)(int32_t)IRQn) & 0x1FUL));
     76e:	6011      	str	r1, [r2, #0]
    NVIC_SetPriority(TIMER2_IRQn, 6);
	NVIC_ClearPendingIRQ(TIMER2_IRQn);
    NVIC_EnableIRQ(TIMER2_IRQn);
	NRF_TIMER2->TASKS_START = 1;
     770:	601c      	str	r4, [r3, #0]
}
     772:	bd30      	pop	{r4, r5, pc}
     774:	4000a000 	.word	0x4000a000
     778:	e000e100 	.word	0xe000e100
     77c:	ff00ffff 	.word	0xff00ffff

00000780 <TIMER2_IRQHandler>:

void TIMER2_IRQHandler(void)
{
	NRF_TIMER2->EVENTS_COMPARE[0] = 0;
     780:	23a0      	movs	r3, #160	@ 0xa0
     782:	2100      	movs	r1, #0
     784:	4a03      	ldr	r2, [pc, #12]	@ (794 <TIMER2_IRQHandler+0x14>)
     786:	005b      	lsls	r3, r3, #1
     788:	50d1      	str	r1, [r2, r3]
	ms_counter++;
     78a:	4a03      	ldr	r2, [pc, #12]	@ (798 <TIMER2_IRQHandler+0x18>)
     78c:	6813      	ldr	r3, [r2, #0]
     78e:	3301      	adds	r3, #1
     790:	6013      	str	r3, [r2, #0]
}
     792:	4770      	bx	lr
     794:	4000a000 	.word	0x4000a000
     798:	20001be8 	.word	0x20001be8

0000079c <uart_init>:
#include "nrf51_bitfields.h"

void uart_init(void)
{
	const uint32_t txd_pin = 9;//P.09 TXD
	NRF_GPIO->OUTSET = (1<<txd_pin);
     79c:	23a0      	movs	r3, #160	@ 0xa0
     79e:	22a1      	movs	r2, #161	@ 0xa1
     7a0:	2180      	movs	r1, #128	@ 0x80
     7a2:	05db      	lsls	r3, r3, #23
     7a4:	00d2      	lsls	r2, r2, #3
     7a6:	0089      	lsls	r1, r1, #2
     7a8:	5099      	str	r1, [r3, r2]
	NRF_GPIO->PIN_CNF[txd_pin] = ((uint32_t)GPIO_PIN_CNF_DIR_Output << GPIO_PIN_CNF_DIR_Pos)
     7aa:	4a0b      	ldr	r2, [pc, #44]	@ (7d8 <uart_init+0x3c>)
     7ac:	39fe      	subs	r1, #254	@ 0xfe
     7ae:	39ff      	subs	r1, #255	@ 0xff
     7b0:	5099      	str	r1, [r3, r2]
						| ((uint32_t)GPIO_PIN_CNF_INPUT_Disconnect << GPIO_PIN_CNF_INPUT_Pos)
						| ((uint32_t)GPIO_PIN_CNF_PULL_Disabled << GPIO_PIN_CNF_PULL_Pos)
						| ((uint32_t)GPIO_PIN_CNF_DRIVE_S0S1 << GPIO_PIN_CNF_DRIVE_Pos)
						| ((uint32_t)GPIO_PIN_CNF_SENSE_Disabled << GPIO_PIN_CNF_SENSE_Pos);

	NRF_UART0->BAUDRATE = 0x01D7E000; //115200
     7b2:	4b0a      	ldr	r3, [pc, #40]	@ (7dc <uart_init+0x40>)
     7b4:	4a0a      	ldr	r2, [pc, #40]	@ (7e0 <uart_init+0x44>)
     7b6:	490b      	ldr	r1, [pc, #44]	@ (7e4 <uart_init+0x48>)
     7b8:	5099      	str	r1, [r3, r2]
	NRF_UART0->CONFIG = UART_CONFIG_PARITY_Excluded << UART_CONFIG_PARITY_Pos | UART_CONFIG_HWFC_Disabled;
     7ba:	2100      	movs	r1, #0
     7bc:	4a0a      	ldr	r2, [pc, #40]	@ (7e8 <uart_init+0x4c>)
     7be:	5099      	str	r1, [r3, r2]
	NRF_UART0->PSELTXD = txd_pin;
     7c0:	4a0a      	ldr	r2, [pc, #40]	@ (7ec <uart_init+0x50>)
     7c2:	3109      	adds	r1, #9
     7c4:	5099      	str	r1, [r3, r2]
	NRF_UART0->ENABLE = UART_ENABLE_ENABLE_Enabled;
     7c6:	3a0c      	subs	r2, #12
     7c8:	3905      	subs	r1, #5
     7ca:	5099      	str	r1, [r3, r2]
	NRF_UART0->TASKS_STARTTX = 1;
     7cc:	2201      	movs	r2, #1
     7ce:	609a      	str	r2, [r3, #8]
    NRF_UART0->TXD = ' '; //First character needs to be send to generate TXDRDY event and not be stuck in while loop
     7d0:	4a07      	ldr	r2, [pc, #28]	@ (7f0 <uart_init+0x54>)
     7d2:	311c      	adds	r1, #28
     7d4:	5099      	str	r1, [r3, r2]
}
     7d6:	4770      	bx	lr
     7d8:	00000724 	.word	0x00000724
     7dc:	40002000 	.word	0x40002000
     7e0:	00000524 	.word	0x00000524
     7e4:	01d7e000 	.word	0x01d7e000
     7e8:	0000056c 	.word	0x0000056c
     7ec:	0000050c 	.word	0x0000050c
     7f0:	0000051c 	.word	0x0000051c

000007f4 <uart_put>:

void uart_put(char c)
{
    while(NRF_UART0->EVENTS_TXDRDY == 0) {}
     7f4:	218e      	movs	r1, #142	@ 0x8e
     7f6:	4a05      	ldr	r2, [pc, #20]	@ (80c <_minimum_stack_size+0xc>)
     7f8:	0049      	lsls	r1, r1, #1
     7fa:	5853      	ldr	r3, [r2, r1]
     7fc:	2b00      	cmp	r3, #0
     7fe:	d0fc      	beq.n	7fa <uart_put+0x6>
    NRF_UART0->EVENTS_TXDRDY = 0;
     800:	2300      	movs	r3, #0
     802:	5053      	str	r3, [r2, r1]
    NRF_UART0->TXD = c;
     804:	4b02      	ldr	r3, [pc, #8]	@ (810 <_minimum_stack_size+0x10>)
     806:	50d0      	str	r0, [r2, r3]
    
     808:	4770      	bx	lr
     80a:	46c0      	nop			@ (mov r8, r8)
     80c:	40002000 	.word	0x40002000
     810:	0000051c 	.word	0x0000051c

00000814 <printf>:
     814:	b40f      	push	{r0, r1, r2, r3}
     816:	b500      	push	{lr}
     818:	4906      	ldr	r1, [pc, #24]	@ (834 <printf+0x20>)
     81a:	b083      	sub	sp, #12
     81c:	ab04      	add	r3, sp, #16
     81e:	6808      	ldr	r0, [r1, #0]
     820:	cb04      	ldmia	r3!, {r2}
     822:	6881      	ldr	r1, [r0, #8]
     824:	9301      	str	r3, [sp, #4]
     826:	f000 fde1 	bl	13ec <_vfprintf_r>
     82a:	b003      	add	sp, #12
     82c:	bc08      	pop	{r3}
     82e:	b004      	add	sp, #16
     830:	4718      	bx	r3
     832:	46c0      	nop			@ (mov r8, r8)
     834:	20000014 	.word	0x20000014

00000838 <setbuf>:
     838:	b510      	push	{r4, lr}
     83a:	b082      	sub	sp, #8
     83c:	424a      	negs	r2, r1
     83e:	414a      	adcs	r2, r1
     840:	2380      	movs	r3, #128	@ 0x80
     842:	0052      	lsls	r2, r2, #1
     844:	00db      	lsls	r3, r3, #3
     846:	f000 f803 	bl	850 <setvbuf>
     84a:	b002      	add	sp, #8
     84c:	bd10      	pop	{r4, pc}
     84e:	46c0      	nop			@ (mov r8, r8)

00000850 <setvbuf>:
     850:	b5f0      	push	{r4, r5, r6, r7, lr}
     852:	46c6      	mov	lr, r8
     854:	b500      	push	{lr}
     856:	001d      	movs	r5, r3
     858:	4b65      	ldr	r3, [pc, #404]	@ (9f0 <setvbuf+0x1a0>)
     85a:	0004      	movs	r4, r0
     85c:	681b      	ldr	r3, [r3, #0]
     85e:	000e      	movs	r6, r1
     860:	0017      	movs	r7, r2
     862:	4698      	mov	r8, r3
     864:	b082      	sub	sp, #8
     866:	2b00      	cmp	r3, #0
     868:	d003      	beq.n	872 <setvbuf+0x22>
     86a:	6b5b      	ldr	r3, [r3, #52]	@ 0x34
     86c:	2b00      	cmp	r3, #0
     86e:	d100      	bne.n	872 <setvbuf+0x22>
     870:	e0a8      	b.n	9c4 <setvbuf+0x174>
     872:	2f02      	cmp	r7, #2
     874:	d005      	beq.n	882 <setvbuf+0x32>
     876:	2f01      	cmp	r7, #1
     878:	d900      	bls.n	87c <setvbuf+0x2c>
     87a:	e0a7      	b.n	9cc <setvbuf+0x17c>
     87c:	2d00      	cmp	r5, #0
     87e:	da00      	bge.n	882 <setvbuf+0x32>
     880:	e0a4      	b.n	9cc <setvbuf+0x17c>
     882:	6e63      	ldr	r3, [r4, #100]	@ 0x64
     884:	07db      	lsls	r3, r3, #31
     886:	d548      	bpl.n	91a <setvbuf+0xca>
     888:	0021      	movs	r1, r4
     88a:	4640      	mov	r0, r8
     88c:	f003 f884 	bl	3998 <_fflush_r>
     890:	6b21      	ldr	r1, [r4, #48]	@ 0x30
     892:	2900      	cmp	r1, #0
     894:	d008      	beq.n	8a8 <setvbuf+0x58>
     896:	0023      	movs	r3, r4
     898:	3340      	adds	r3, #64	@ 0x40
     89a:	4299      	cmp	r1, r3
     89c:	d002      	beq.n	8a4 <setvbuf+0x54>
     89e:	4640      	mov	r0, r8
     8a0:	f000 f9ac 	bl	bfc <_free_r>
     8a4:	2300      	movs	r3, #0
     8a6:	6323      	str	r3, [r4, #48]	@ 0x30
     8a8:	2300      	movs	r3, #0
     8aa:	61a3      	str	r3, [r4, #24]
     8ac:	6063      	str	r3, [r4, #4]
     8ae:	220c      	movs	r2, #12
     8b0:	5ea3      	ldrsh	r3, [r4, r2]
     8b2:	061a      	lsls	r2, r3, #24
     8b4:	d45f      	bmi.n	976 <setvbuf+0x126>
     8b6:	4a4f      	ldr	r2, [pc, #316]	@ (9f4 <setvbuf+0x1a4>)
     8b8:	4013      	ands	r3, r2
     8ba:	81a3      	strh	r3, [r4, #12]
     8bc:	2f02      	cmp	r7, #2
     8be:	d065      	beq.n	98c <setvbuf+0x13c>
     8c0:	ab01      	add	r3, sp, #4
     8c2:	466a      	mov	r2, sp
     8c4:	0021      	movs	r1, r4
     8c6:	4640      	mov	r0, r8
     8c8:	f003 fb7e 	bl	3fc8 <__swhatbuf_r>
     8cc:	89a3      	ldrh	r3, [r4, #12]
     8ce:	4303      	orrs	r3, r0
     8d0:	81a3      	strh	r3, [r4, #12]
     8d2:	2d00      	cmp	r5, #0
     8d4:	d028      	beq.n	928 <setvbuf+0xd8>
     8d6:	2e00      	cmp	r6, #0
     8d8:	d027      	beq.n	92a <setvbuf+0xda>
     8da:	4643      	mov	r3, r8
     8dc:	6b5b      	ldr	r3, [r3, #52]	@ 0x34
     8de:	2b00      	cmp	r3, #0
     8e0:	d030      	beq.n	944 <setvbuf+0xf4>
     8e2:	220c      	movs	r2, #12
     8e4:	5ea3      	ldrsh	r3, [r4, r2]
     8e6:	9a00      	ldr	r2, [sp, #0]
     8e8:	42aa      	cmp	r2, r5
     8ea:	d003      	beq.n	8f4 <setvbuf+0xa4>
     8ec:	2280      	movs	r2, #128	@ 0x80
     8ee:	0112      	lsls	r2, r2, #4
     8f0:	4313      	orrs	r3, r2
     8f2:	81a3      	strh	r3, [r4, #12]
     8f4:	2f01      	cmp	r7, #1
     8f6:	d029      	beq.n	94c <setvbuf+0xfc>
     8f8:	6026      	str	r6, [r4, #0]
     8fa:	6126      	str	r6, [r4, #16]
     8fc:	6165      	str	r5, [r4, #20]
     8fe:	071a      	lsls	r2, r3, #28
     900:	d52e      	bpl.n	960 <setvbuf+0x110>
     902:	07da      	lsls	r2, r3, #31
     904:	d457      	bmi.n	9b6 <setvbuf+0x166>
     906:	6e62      	ldr	r2, [r4, #100]	@ 0x64
     908:	60a5      	str	r5, [r4, #8]
     90a:	07d2      	lsls	r2, r2, #31
     90c:	d52d      	bpl.n	96a <setvbuf+0x11a>
     90e:	2500      	movs	r5, #0
     910:	0028      	movs	r0, r5
     912:	b002      	add	sp, #8
     914:	bc80      	pop	{r7}
     916:	46b8      	mov	r8, r7
     918:	bdf0      	pop	{r4, r5, r6, r7, pc}
     91a:	89a3      	ldrh	r3, [r4, #12]
     91c:	059b      	lsls	r3, r3, #22
     91e:	d4b3      	bmi.n	888 <setvbuf+0x38>
     920:	6da0      	ldr	r0, [r4, #88]	@ 0x58
     922:	f000 f8b7 	bl	a94 <__retarget_lock_acquire_recursive>
     926:	e7af      	b.n	888 <setvbuf+0x38>
     928:	9d00      	ldr	r5, [sp, #0]
     92a:	0028      	movs	r0, r5
     92c:	f000 fa5e 	bl	dec <malloc>
     930:	1e06      	subs	r6, r0, #0
     932:	d04e      	beq.n	9d2 <setvbuf+0x182>
     934:	2280      	movs	r2, #128	@ 0x80
     936:	89a3      	ldrh	r3, [r4, #12]
     938:	4313      	orrs	r3, r2
     93a:	81a3      	strh	r3, [r4, #12]
     93c:	4643      	mov	r3, r8
     93e:	6b5b      	ldr	r3, [r3, #52]	@ 0x34
     940:	2b00      	cmp	r3, #0
     942:	d1ce      	bne.n	8e2 <setvbuf+0x92>
     944:	4640      	mov	r0, r8
     946:	f003 f913 	bl	3b70 <__sinit>
     94a:	e7ca      	b.n	8e2 <setvbuf+0x92>
     94c:	2201      	movs	r2, #1
     94e:	431a      	orrs	r2, r3
     950:	b212      	sxth	r2, r2
     952:	81a2      	strh	r2, [r4, #12]
     954:	6026      	str	r6, [r4, #0]
     956:	6126      	str	r6, [r4, #16]
     958:	6165      	str	r5, [r4, #20]
     95a:	071b      	lsls	r3, r3, #28
     95c:	d42c      	bmi.n	9b8 <setvbuf+0x168>
     95e:	0013      	movs	r3, r2
     960:	2200      	movs	r2, #0
     962:	60a2      	str	r2, [r4, #8]
     964:	6e62      	ldr	r2, [r4, #100]	@ 0x64
     966:	07d2      	lsls	r2, r2, #31
     968:	d4d1      	bmi.n	90e <setvbuf+0xbe>
     96a:	059b      	lsls	r3, r3, #22
     96c:	d4cf      	bmi.n	90e <setvbuf+0xbe>
     96e:	6da0      	ldr	r0, [r4, #88]	@ 0x58
     970:	f000 f892 	bl	a98 <__retarget_lock_release_recursive>
     974:	e7cb      	b.n	90e <setvbuf+0xbe>
     976:	4640      	mov	r0, r8
     978:	6921      	ldr	r1, [r4, #16]
     97a:	f000 f93f 	bl	bfc <_free_r>
     97e:	220c      	movs	r2, #12
     980:	5ea3      	ldrsh	r3, [r4, r2]
     982:	4a1c      	ldr	r2, [pc, #112]	@ (9f4 <setvbuf+0x1a4>)
     984:	4013      	ands	r3, r2
     986:	81a3      	strh	r3, [r4, #12]
     988:	2f02      	cmp	r7, #2
     98a:	d199      	bne.n	8c0 <setvbuf+0x70>
     98c:	2500      	movs	r5, #0
     98e:	2202      	movs	r2, #2
     990:	431a      	orrs	r2, r3
     992:	81a2      	strh	r2, [r4, #12]
     994:	2200      	movs	r2, #0
     996:	60a2      	str	r2, [r4, #8]
     998:	0022      	movs	r2, r4
     99a:	3243      	adds	r2, #67	@ 0x43
     99c:	6022      	str	r2, [r4, #0]
     99e:	6122      	str	r2, [r4, #16]
     9a0:	2201      	movs	r2, #1
     9a2:	6e61      	ldr	r1, [r4, #100]	@ 0x64
     9a4:	6162      	str	r2, [r4, #20]
     9a6:	4211      	tst	r1, r2
     9a8:	d1b2      	bne.n	910 <setvbuf+0xc0>
     9aa:	059b      	lsls	r3, r3, #22
     9ac:	d4b0      	bmi.n	910 <setvbuf+0xc0>
     9ae:	6da0      	ldr	r0, [r4, #88]	@ 0x58
     9b0:	f000 f872 	bl	a98 <__retarget_lock_release_recursive>
     9b4:	e7ac      	b.n	910 <setvbuf+0xc0>
     9b6:	001a      	movs	r2, r3
     9b8:	2300      	movs	r3, #0
     9ba:	426d      	negs	r5, r5
     9bc:	60a3      	str	r3, [r4, #8]
     9be:	61a5      	str	r5, [r4, #24]
     9c0:	0013      	movs	r3, r2
     9c2:	e7cf      	b.n	964 <setvbuf+0x114>
     9c4:	4640      	mov	r0, r8
     9c6:	f003 f8d3 	bl	3b70 <__sinit>
     9ca:	e752      	b.n	872 <setvbuf+0x22>
     9cc:	2501      	movs	r5, #1
     9ce:	426d      	negs	r5, r5
     9d0:	e79e      	b.n	910 <setvbuf+0xc0>
     9d2:	9b00      	ldr	r3, [sp, #0]
     9d4:	42ab      	cmp	r3, r5
     9d6:	d005      	beq.n	9e4 <setvbuf+0x194>
     9d8:	0018      	movs	r0, r3
     9da:	001d      	movs	r5, r3
     9dc:	f000 fa06 	bl	dec <malloc>
     9e0:	1e06      	subs	r6, r0, #0
     9e2:	d1a7      	bne.n	934 <setvbuf+0xe4>
     9e4:	2501      	movs	r5, #1
     9e6:	220c      	movs	r2, #12
     9e8:	5ea3      	ldrsh	r3, [r4, r2]
     9ea:	426d      	negs	r5, r5
     9ec:	e7cf      	b.n	98e <setvbuf+0x13e>
     9ee:	46c0      	nop			@ (mov r8, r8)
     9f0:	20000014 	.word	0x20000014
     9f4:	fffff35c 	.word	0xfffff35c

000009f8 <memset>:
     9f8:	b5f0      	push	{r4, r5, r6, r7, lr}
     9fa:	0783      	lsls	r3, r0, #30
     9fc:	d041      	beq.n	a82 <memset+0x8a>
     9fe:	0005      	movs	r5, r0
     a00:	0004      	movs	r4, r0
     a02:	2703      	movs	r7, #3
     a04:	1886      	adds	r6, r0, r2
     a06:	e004      	b.n	a12 <memset+0x1a>
     a08:	7029      	strb	r1, [r5, #0]
     a0a:	3501      	adds	r5, #1
     a0c:	423b      	tst	r3, r7
     a0e:	d004      	beq.n	a1a <memset+0x22>
     a10:	001c      	movs	r4, r3
     a12:	1c63      	adds	r3, r4, #1
     a14:	42b4      	cmp	r4, r6
     a16:	d1f7      	bne.n	a08 <memset+0x10>
     a18:	bdf0      	pop	{r4, r5, r6, r7, pc}
     a1a:	3a01      	subs	r2, #1
     a1c:	1882      	adds	r2, r0, r2
     a1e:	1b12      	subs	r2, r2, r4
     a20:	2a03      	cmp	r2, #3
     a22:	d925      	bls.n	a70 <memset+0x78>
     a24:	24ff      	movs	r4, #255	@ 0xff
     a26:	400c      	ands	r4, r1
     a28:	0225      	lsls	r5, r4, #8
     a2a:	192d      	adds	r5, r5, r4
     a2c:	042c      	lsls	r4, r5, #16
     a2e:	192d      	adds	r5, r5, r4
     a30:	2a0f      	cmp	r2, #15
     a32:	d928      	bls.n	a86 <memset+0x8e>
     a34:	001c      	movs	r4, r3
     a36:	0013      	movs	r3, r2
     a38:	0026      	movs	r6, r4
     a3a:	3b10      	subs	r3, #16
     a3c:	091b      	lsrs	r3, r3, #4
     a3e:	011b      	lsls	r3, r3, #4
     a40:	3610      	adds	r6, #16
     a42:	199b      	adds	r3, r3, r6
     a44:	6025      	str	r5, [r4, #0]
     a46:	6065      	str	r5, [r4, #4]
     a48:	60a5      	str	r5, [r4, #8]
     a4a:	60e5      	str	r5, [r4, #12]
     a4c:	3410      	adds	r4, #16
     a4e:	42a3      	cmp	r3, r4
     a50:	d1f8      	bne.n	a44 <memset+0x4c>
     a52:	240f      	movs	r4, #15
     a54:	260c      	movs	r6, #12
     a56:	4014      	ands	r4, r2
     a58:	4016      	ands	r6, r2
     a5a:	0022      	movs	r2, r4
     a5c:	2e00      	cmp	r6, #0
     a5e:	d007      	beq.n	a70 <memset+0x78>
     a60:	08a2      	lsrs	r2, r4, #2
     a62:	0092      	lsls	r2, r2, #2
     a64:	18d2      	adds	r2, r2, r3
     a66:	c320      	stmia	r3!, {r5}
     a68:	4293      	cmp	r3, r2
     a6a:	d1fc      	bne.n	a66 <memset+0x6e>
     a6c:	2203      	movs	r2, #3
     a6e:	4022      	ands	r2, r4
     a70:	2a00      	cmp	r2, #0
     a72:	d0d1      	beq.n	a18 <memset+0x20>
     a74:	b2c9      	uxtb	r1, r1
     a76:	189a      	adds	r2, r3, r2
     a78:	7019      	strb	r1, [r3, #0]
     a7a:	3301      	adds	r3, #1
     a7c:	429a      	cmp	r2, r3
     a7e:	d1fb      	bne.n	a78 <memset+0x80>
     a80:	e7ca      	b.n	a18 <memset+0x20>
     a82:	0003      	movs	r3, r0
     a84:	e7cc      	b.n	a20 <memset+0x28>
     a86:	0014      	movs	r4, r2
     a88:	e7ea      	b.n	a60 <memset+0x68>
     a8a:	46c0      	nop			@ (mov r8, r8)

00000a8c <__retarget_lock_init_recursive>:
     a8c:	4770      	bx	lr
     a8e:	46c0      	nop			@ (mov r8, r8)

00000a90 <__retarget_lock_close_recursive>:
     a90:	4770      	bx	lr
     a92:	46c0      	nop			@ (mov r8, r8)

00000a94 <__retarget_lock_acquire_recursive>:
     a94:	4770      	bx	lr
     a96:	46c0      	nop			@ (mov r8, r8)

00000a98 <__retarget_lock_release_recursive>:
     a98:	4770      	bx	lr
     a9a:	46c0      	nop			@ (mov r8, r8)

00000a9c <memcpy>:
     a9c:	b5f0      	push	{r4, r5, r6, r7, lr}
     a9e:	46ce      	mov	lr, r9
     aa0:	4647      	mov	r7, r8
     aa2:	b580      	push	{r7, lr}
     aa4:	2a0f      	cmp	r2, #15
     aa6:	d80e      	bhi.n	ac6 <memcpy+0x2a>
     aa8:	0005      	movs	r5, r0
     aaa:	1e56      	subs	r6, r2, #1
     aac:	2a00      	cmp	r2, #0
     aae:	d006      	beq.n	abe <memcpy+0x22>
     ab0:	2300      	movs	r3, #0
     ab2:	5ccc      	ldrb	r4, [r1, r3]
     ab4:	001a      	movs	r2, r3
     ab6:	54ec      	strb	r4, [r5, r3]
     ab8:	3301      	adds	r3, #1
     aba:	4296      	cmp	r6, r2
     abc:	d1f9      	bne.n	ab2 <memcpy+0x16>
     abe:	bcc0      	pop	{r6, r7}
     ac0:	46b9      	mov	r9, r7
     ac2:	46b0      	mov	r8, r6
     ac4:	bdf0      	pop	{r4, r5, r6, r7, pc}
     ac6:	0003      	movs	r3, r0
     ac8:	430b      	orrs	r3, r1
     aca:	4688      	mov	r8, r1
     acc:	079b      	lsls	r3, r3, #30
     ace:	d134      	bne.n	b3a <memcpy+0x9e>
     ad0:	2610      	movs	r6, #16
     ad2:	0017      	movs	r7, r2
     ad4:	46b1      	mov	r9, r6
     ad6:	000c      	movs	r4, r1
     ad8:	0003      	movs	r3, r0
     ada:	3f10      	subs	r7, #16
     adc:	093f      	lsrs	r7, r7, #4
     ade:	013f      	lsls	r7, r7, #4
     ae0:	19c5      	adds	r5, r0, r7
     ae2:	44a9      	add	r9, r5
     ae4:	6866      	ldr	r6, [r4, #4]
     ae6:	605e      	str	r6, [r3, #4]
     ae8:	68a6      	ldr	r6, [r4, #8]
     aea:	609e      	str	r6, [r3, #8]
     aec:	68e6      	ldr	r6, [r4, #12]
     aee:	60de      	str	r6, [r3, #12]
     af0:	6826      	ldr	r6, [r4, #0]
     af2:	3410      	adds	r4, #16
     af4:	601e      	str	r6, [r3, #0]
     af6:	001e      	movs	r6, r3
     af8:	3310      	adds	r3, #16
     afa:	42ae      	cmp	r6, r5
     afc:	d1f2      	bne.n	ae4 <memcpy+0x48>
     afe:	19cf      	adds	r7, r1, r7
     b00:	0039      	movs	r1, r7
     b02:	230f      	movs	r3, #15
     b04:	260c      	movs	r6, #12
     b06:	3110      	adds	r1, #16
     b08:	468c      	mov	ip, r1
     b0a:	4013      	ands	r3, r2
     b0c:	4216      	tst	r6, r2
     b0e:	d017      	beq.n	b40 <memcpy+0xa4>
     b10:	4644      	mov	r4, r8
     b12:	3b04      	subs	r3, #4
     b14:	089b      	lsrs	r3, r3, #2
     b16:	009b      	lsls	r3, r3, #2
     b18:	18ff      	adds	r7, r7, r3
     b1a:	3714      	adds	r7, #20
     b1c:	1b06      	subs	r6, r0, r4
     b1e:	680c      	ldr	r4, [r1, #0]
     b20:	198d      	adds	r5, r1, r6
     b22:	3104      	adds	r1, #4
     b24:	602c      	str	r4, [r5, #0]
     b26:	42b9      	cmp	r1, r7
     b28:	d1f9      	bne.n	b1e <memcpy+0x82>
     b2a:	4661      	mov	r1, ip
     b2c:	3304      	adds	r3, #4
     b2e:	1859      	adds	r1, r3, r1
     b30:	444b      	add	r3, r9
     b32:	001d      	movs	r5, r3
     b34:	2303      	movs	r3, #3
     b36:	401a      	ands	r2, r3
     b38:	e7b7      	b.n	aaa <memcpy+0xe>
     b3a:	0005      	movs	r5, r0
     b3c:	1e56      	subs	r6, r2, #1
     b3e:	e7b7      	b.n	ab0 <memcpy+0x14>
     b40:	464d      	mov	r5, r9
     b42:	001a      	movs	r2, r3
     b44:	e7b1      	b.n	aaa <memcpy+0xe>
     b46:	46c0      	nop			@ (mov r8, r8)

00000b48 <_malloc_trim_r>:
     b48:	b5f0      	push	{r4, r5, r6, r7, lr}
     b4a:	46c6      	mov	lr, r8
     b4c:	0006      	movs	r6, r0
     b4e:	b500      	push	{lr}
     b50:	2008      	movs	r0, #8
     b52:	000d      	movs	r5, r1
     b54:	f003 fc4e 	bl	43f4 <sysconf>
     b58:	0004      	movs	r4, r0
     b5a:	0030      	movs	r0, r6
     b5c:	f000 fc36 	bl	13cc <__malloc_lock>
     b60:	4b23      	ldr	r3, [pc, #140]	@ (bf0 <_malloc_trim_r+0xa8>)
     b62:	0021      	movs	r1, r4
     b64:	4698      	mov	r8, r3
     b66:	689b      	ldr	r3, [r3, #8]
     b68:	685f      	ldr	r7, [r3, #4]
     b6a:	2303      	movs	r3, #3
     b6c:	439f      	bics	r7, r3
     b6e:	0038      	movs	r0, r7
     b70:	3811      	subs	r0, #17
     b72:	1b40      	subs	r0, r0, r5
     b74:	1900      	adds	r0, r0, r4
     b76:	f7ff faf9 	bl	16c <__udivsi3>
     b7a:	1e45      	subs	r5, r0, #1
     b7c:	4365      	muls	r5, r4
     b7e:	42ac      	cmp	r4, r5
     b80:	dc08      	bgt.n	b94 <_malloc_trim_r+0x4c>
     b82:	2100      	movs	r1, #0
     b84:	0030      	movs	r0, r6
     b86:	f003 fc0f 	bl	43a8 <_sbrk_r>
     b8a:	4643      	mov	r3, r8
     b8c:	689b      	ldr	r3, [r3, #8]
     b8e:	19db      	adds	r3, r3, r7
     b90:	4298      	cmp	r0, r3
     b92:	d006      	beq.n	ba2 <_malloc_trim_r+0x5a>
     b94:	0030      	movs	r0, r6
     b96:	f000 fc21 	bl	13dc <__malloc_unlock>
     b9a:	2000      	movs	r0, #0
     b9c:	bc80      	pop	{r7}
     b9e:	46b8      	mov	r8, r7
     ba0:	bdf0      	pop	{r4, r5, r6, r7, pc}
     ba2:	0030      	movs	r0, r6
     ba4:	4269      	negs	r1, r5
     ba6:	f003 fbff 	bl	43a8 <_sbrk_r>
     baa:	3001      	adds	r0, #1
     bac:	d00e      	beq.n	bcc <_malloc_trim_r+0x84>
     bae:	2201      	movs	r2, #1
     bb0:	4643      	mov	r3, r8
     bb2:	1b7f      	subs	r7, r7, r5
     bb4:	689b      	ldr	r3, [r3, #8]
     bb6:	4317      	orrs	r7, r2
     bb8:	4a0e      	ldr	r2, [pc, #56]	@ (bf4 <_malloc_trim_r+0xac>)
     bba:	605f      	str	r7, [r3, #4]
     bbc:	6813      	ldr	r3, [r2, #0]
     bbe:	0030      	movs	r0, r6
     bc0:	1b5b      	subs	r3, r3, r5
     bc2:	6013      	str	r3, [r2, #0]
     bc4:	f000 fc0a 	bl	13dc <__malloc_unlock>
     bc8:	2001      	movs	r0, #1
     bca:	e7e7      	b.n	b9c <_malloc_trim_r+0x54>
     bcc:	2100      	movs	r1, #0
     bce:	0030      	movs	r0, r6
     bd0:	f003 fbea 	bl	43a8 <_sbrk_r>
     bd4:	4643      	mov	r3, r8
     bd6:	689a      	ldr	r2, [r3, #8]
     bd8:	1a83      	subs	r3, r0, r2
     bda:	2b0f      	cmp	r3, #15
     bdc:	ddda      	ble.n	b94 <_malloc_trim_r+0x4c>
     bde:	4c06      	ldr	r4, [pc, #24]	@ (bf8 <_malloc_trim_r+0xb0>)
     be0:	4904      	ldr	r1, [pc, #16]	@ (bf4 <_malloc_trim_r+0xac>)
     be2:	6824      	ldr	r4, [r4, #0]
     be4:	1b00      	subs	r0, r0, r4
     be6:	6008      	str	r0, [r1, #0]
     be8:	2101      	movs	r1, #1
     bea:	430b      	orrs	r3, r1
     bec:	6053      	str	r3, [r2, #4]
     bee:	e7d1      	b.n	b94 <_malloc_trim_r+0x4c>
     bf0:	20000160 	.word	0x20000160
     bf4:	20001bf8 	.word	0x20001bf8
     bf8:	20000158 	.word	0x20000158

00000bfc <_free_r>:
     bfc:	b5f0      	push	{r4, r5, r6, r7, lr}
     bfe:	46d6      	mov	lr, sl
     c00:	464f      	mov	r7, r9
     c02:	4646      	mov	r6, r8
     c04:	0005      	movs	r5, r0
     c06:	000c      	movs	r4, r1
     c08:	b5c0      	push	{r6, r7, lr}
     c0a:	2900      	cmp	r1, #0
     c0c:	d048      	beq.n	ca0 <_free_r+0xa4>
     c0e:	f000 fbdd 	bl	13cc <__malloc_lock>
     c12:	0021      	movs	r1, r4
     c14:	2701      	movs	r7, #1
     c16:	3908      	subs	r1, #8
     c18:	684b      	ldr	r3, [r1, #4]
     c1a:	2003      	movs	r0, #3
     c1c:	469c      	mov	ip, r3
     c1e:	43bb      	bics	r3, r7
     c20:	18ce      	adds	r6, r1, r3
     c22:	6872      	ldr	r2, [r6, #4]
     c24:	4382      	bics	r2, r0
     c26:	4660      	mov	r0, ip
     c28:	4038      	ands	r0, r7
     c2a:	4680      	mov	r8, r0
     c2c:	486a      	ldr	r0, [pc, #424]	@ (dd8 <_free_r+0x1dc>)
     c2e:	4691      	mov	r9, r2
     c30:	6884      	ldr	r4, [r0, #8]
     c32:	42b4      	cmp	r4, r6
     c34:	d100      	bne.n	c38 <_free_r+0x3c>
     c36:	e07c      	b.n	d32 <_free_r+0x136>
     c38:	6072      	str	r2, [r6, #4]
     c3a:	18b4      	adds	r4, r6, r2
     c3c:	6864      	ldr	r4, [r4, #4]
     c3e:	403c      	ands	r4, r7
     c40:	46a2      	mov	sl, r4
     c42:	4644      	mov	r4, r8
     c44:	2c00      	cmp	r4, #0
     c46:	d130      	bne.n	caa <_free_r+0xae>
     c48:	680c      	ldr	r4, [r1, #0]
     c4a:	46a4      	mov	ip, r4
     c4c:	1b09      	subs	r1, r1, r4
     c4e:	688c      	ldr	r4, [r1, #8]
     c50:	4463      	add	r3, ip
     c52:	46a4      	mov	ip, r4
     c54:	2408      	movs	r4, #8
     c56:	46a0      	mov	r8, r4
     c58:	4480      	add	r8, r0
     c5a:	45c4      	cmp	ip, r8
     c5c:	d05c      	beq.n	d18 <_free_r+0x11c>
     c5e:	68cc      	ldr	r4, [r1, #12]
     c60:	46a0      	mov	r8, r4
     c62:	4664      	mov	r4, ip
     c64:	4642      	mov	r2, r8
     c66:	60e2      	str	r2, [r4, #12]
     c68:	6094      	str	r4, [r2, #8]
     c6a:	4652      	mov	r2, sl
     c6c:	2a00      	cmp	r2, #0
     c6e:	d01f      	beq.n	cb0 <_free_r+0xb4>
     c70:	431f      	orrs	r7, r3
     c72:	604f      	str	r7, [r1, #4]
     c74:	6033      	str	r3, [r6, #0]
     c76:	2280      	movs	r2, #128	@ 0x80
     c78:	0092      	lsls	r2, r2, #2
     c7a:	4293      	cmp	r3, r2
     c7c:	d230      	bcs.n	ce0 <_free_r+0xe4>
     c7e:	08da      	lsrs	r2, r3, #3
     c80:	095c      	lsrs	r4, r3, #5
     c82:	2301      	movs	r3, #1
     c84:	40a3      	lsls	r3, r4
     c86:	6844      	ldr	r4, [r0, #4]
     c88:	4323      	orrs	r3, r4
     c8a:	6043      	str	r3, [r0, #4]
     c8c:	00d3      	lsls	r3, r2, #3
     c8e:	181b      	adds	r3, r3, r0
     c90:	689a      	ldr	r2, [r3, #8]
     c92:	60cb      	str	r3, [r1, #12]
     c94:	608a      	str	r2, [r1, #8]
     c96:	6099      	str	r1, [r3, #8]
     c98:	60d1      	str	r1, [r2, #12]
     c9a:	0028      	movs	r0, r5
     c9c:	f000 fb9e 	bl	13dc <__malloc_unlock>
     ca0:	bce0      	pop	{r5, r6, r7}
     ca2:	46ba      	mov	sl, r7
     ca4:	46b1      	mov	r9, r6
     ca6:	46a8      	mov	r8, r5
     ca8:	bdf0      	pop	{r4, r5, r6, r7, pc}
     caa:	4652      	mov	r2, sl
     cac:	2a00      	cmp	r2, #0
     cae:	d10f      	bne.n	cd0 <_free_r+0xd4>
     cb0:	2201      	movs	r2, #1
     cb2:	444b      	add	r3, r9
     cb4:	18cf      	adds	r7, r1, r3
     cb6:	46bc      	mov	ip, r7
     cb8:	68b4      	ldr	r4, [r6, #8]
     cba:	4f48      	ldr	r7, [pc, #288]	@ (ddc <_free_r+0x1e0>)
     cbc:	431a      	orrs	r2, r3
     cbe:	42bc      	cmp	r4, r7
     cc0:	d05b      	beq.n	d7a <_free_r+0x17e>
     cc2:	68f6      	ldr	r6, [r6, #12]
     cc4:	60e6      	str	r6, [r4, #12]
     cc6:	60b4      	str	r4, [r6, #8]
     cc8:	604a      	str	r2, [r1, #4]
     cca:	4662      	mov	r2, ip
     ccc:	6013      	str	r3, [r2, #0]
     cce:	e7d2      	b.n	c76 <_free_r+0x7a>
     cd0:	4662      	mov	r2, ip
     cd2:	433a      	orrs	r2, r7
     cd4:	604a      	str	r2, [r1, #4]
     cd6:	2280      	movs	r2, #128	@ 0x80
     cd8:	6033      	str	r3, [r6, #0]
     cda:	0092      	lsls	r2, r2, #2
     cdc:	4293      	cmp	r3, r2
     cde:	d3ce      	bcc.n	c7e <_free_r+0x82>
     ce0:	0a5c      	lsrs	r4, r3, #9
     ce2:	2c04      	cmp	r4, #4
     ce4:	d83f      	bhi.n	d66 <_free_r+0x16a>
     ce6:	099c      	lsrs	r4, r3, #6
     ce8:	0026      	movs	r6, r4
     cea:	3439      	adds	r4, #57	@ 0x39
     cec:	3638      	adds	r6, #56	@ 0x38
     cee:	00e4      	lsls	r4, r4, #3
     cf0:	1904      	adds	r4, r0, r4
     cf2:	6822      	ldr	r2, [r4, #0]
     cf4:	3c08      	subs	r4, #8
     cf6:	2703      	movs	r7, #3
     cf8:	4294      	cmp	r4, r2
     cfa:	d103      	bne.n	d04 <_free_r+0x108>
     cfc:	e04e      	b.n	d9c <_free_r+0x1a0>
     cfe:	6892      	ldr	r2, [r2, #8]
     d00:	4294      	cmp	r4, r2
     d02:	d003      	beq.n	d0c <_free_r+0x110>
     d04:	6850      	ldr	r0, [r2, #4]
     d06:	43b8      	bics	r0, r7
     d08:	4298      	cmp	r0, r3
     d0a:	d8f8      	bhi.n	cfe <_free_r+0x102>
     d0c:	68d4      	ldr	r4, [r2, #12]
     d0e:	60cc      	str	r4, [r1, #12]
     d10:	608a      	str	r2, [r1, #8]
     d12:	60a1      	str	r1, [r4, #8]
     d14:	60d1      	str	r1, [r2, #12]
     d16:	e7c0      	b.n	c9a <_free_r+0x9e>
     d18:	4652      	mov	r2, sl
     d1a:	2a00      	cmp	r2, #0
     d1c:	d135      	bne.n	d8a <_free_r+0x18e>
     d1e:	444b      	add	r3, r9
     d20:	001a      	movs	r2, r3
     d22:	68b0      	ldr	r0, [r6, #8]
     d24:	68f3      	ldr	r3, [r6, #12]
     d26:	4317      	orrs	r7, r2
     d28:	60c3      	str	r3, [r0, #12]
     d2a:	6098      	str	r0, [r3, #8]
     d2c:	604f      	str	r7, [r1, #4]
     d2e:	508a      	str	r2, [r1, r2]
     d30:	e7b3      	b.n	c9a <_free_r+0x9e>
     d32:	444b      	add	r3, r9
     d34:	001a      	movs	r2, r3
     d36:	4643      	mov	r3, r8
     d38:	2b00      	cmp	r3, #0
     d3a:	d106      	bne.n	d4a <_free_r+0x14e>
     d3c:	680b      	ldr	r3, [r1, #0]
     d3e:	1ac9      	subs	r1, r1, r3
     d40:	688c      	ldr	r4, [r1, #8]
     d42:	18d2      	adds	r2, r2, r3
     d44:	68cb      	ldr	r3, [r1, #12]
     d46:	60e3      	str	r3, [r4, #12]
     d48:	609c      	str	r4, [r3, #8]
     d4a:	2301      	movs	r3, #1
     d4c:	4313      	orrs	r3, r2
     d4e:	604b      	str	r3, [r1, #4]
     d50:	4b23      	ldr	r3, [pc, #140]	@ (de0 <_free_r+0x1e4>)
     d52:	6081      	str	r1, [r0, #8]
     d54:	681b      	ldr	r3, [r3, #0]
     d56:	4293      	cmp	r3, r2
     d58:	d89f      	bhi.n	c9a <_free_r+0x9e>
     d5a:	4b22      	ldr	r3, [pc, #136]	@ (de4 <_free_r+0x1e8>)
     d5c:	0028      	movs	r0, r5
     d5e:	6819      	ldr	r1, [r3, #0]
     d60:	f7ff fef2 	bl	b48 <_malloc_trim_r>
     d64:	e799      	b.n	c9a <_free_r+0x9e>
     d66:	2c14      	cmp	r4, #20
     d68:	d913      	bls.n	d92 <_free_r+0x196>
     d6a:	2c54      	cmp	r4, #84	@ 0x54
     d6c:	d81d      	bhi.n	daa <_free_r+0x1ae>
     d6e:	0b1c      	lsrs	r4, r3, #12
     d70:	0026      	movs	r6, r4
     d72:	346f      	adds	r4, #111	@ 0x6f
     d74:	366e      	adds	r6, #110	@ 0x6e
     d76:	00e4      	lsls	r4, r4, #3
     d78:	e7ba      	b.n	cf0 <_free_r+0xf4>
     d7a:	60e1      	str	r1, [r4, #12]
     d7c:	60a1      	str	r1, [r4, #8]
     d7e:	604a      	str	r2, [r1, #4]
     d80:	4662      	mov	r2, ip
     d82:	60cc      	str	r4, [r1, #12]
     d84:	608c      	str	r4, [r1, #8]
     d86:	6013      	str	r3, [r2, #0]
     d88:	e787      	b.n	c9a <_free_r+0x9e>
     d8a:	431f      	orrs	r7, r3
     d8c:	604f      	str	r7, [r1, #4]
     d8e:	6033      	str	r3, [r6, #0]
     d90:	e783      	b.n	c9a <_free_r+0x9e>
     d92:	0026      	movs	r6, r4
     d94:	345c      	adds	r4, #92	@ 0x5c
     d96:	365b      	adds	r6, #91	@ 0x5b
     d98:	00e4      	lsls	r4, r4, #3
     d9a:	e7a9      	b.n	cf0 <_free_r+0xf4>
     d9c:	2301      	movs	r3, #1
     d9e:	10b6      	asrs	r6, r6, #2
     da0:	40b3      	lsls	r3, r6
     da2:	6846      	ldr	r6, [r0, #4]
     da4:	4333      	orrs	r3, r6
     da6:	6043      	str	r3, [r0, #4]
     da8:	e7b1      	b.n	d0e <_free_r+0x112>
     daa:	22aa      	movs	r2, #170	@ 0xaa
     dac:	0052      	lsls	r2, r2, #1
     dae:	4294      	cmp	r4, r2
     db0:	d805      	bhi.n	dbe <_free_r+0x1c2>
     db2:	0bdc      	lsrs	r4, r3, #15
     db4:	0026      	movs	r6, r4
     db6:	3478      	adds	r4, #120	@ 0x78
     db8:	3677      	adds	r6, #119	@ 0x77
     dba:	00e4      	lsls	r4, r4, #3
     dbc:	e798      	b.n	cf0 <_free_r+0xf4>
     dbe:	4a0a      	ldr	r2, [pc, #40]	@ (de8 <_free_r+0x1ec>)
     dc0:	4294      	cmp	r4, r2
     dc2:	d805      	bhi.n	dd0 <_free_r+0x1d4>
     dc4:	0c9c      	lsrs	r4, r3, #18
     dc6:	0026      	movs	r6, r4
     dc8:	347d      	adds	r4, #125	@ 0x7d
     dca:	367c      	adds	r6, #124	@ 0x7c
     dcc:	00e4      	lsls	r4, r4, #3
     dce:	e78f      	b.n	cf0 <_free_r+0xf4>
     dd0:	24fe      	movs	r4, #254	@ 0xfe
     dd2:	267e      	movs	r6, #126	@ 0x7e
     dd4:	00a4      	lsls	r4, r4, #2
     dd6:	e78b      	b.n	cf0 <_free_r+0xf4>
     dd8:	20000160 	.word	0x20000160
     ddc:	20000168 	.word	0x20000168
     de0:	2000015c 	.word	0x2000015c
     de4:	20001c28 	.word	0x20001c28
     de8:	00000554 	.word	0x00000554

00000dec <malloc>:
     dec:	b510      	push	{r4, lr}
     dee:	4b03      	ldr	r3, [pc, #12]	@ (dfc <malloc+0x10>)
     df0:	0001      	movs	r1, r0
     df2:	6818      	ldr	r0, [r3, #0]
     df4:	f000 f804 	bl	e00 <_malloc_r>
     df8:	bd10      	pop	{r4, pc}
     dfa:	46c0      	nop			@ (mov r8, r8)
     dfc:	20000014 	.word	0x20000014

00000e00 <_malloc_r>:
     e00:	b5f0      	push	{r4, r5, r6, r7, lr}
     e02:	464e      	mov	r6, r9
     e04:	4645      	mov	r5, r8
     e06:	46de      	mov	lr, fp
     e08:	4657      	mov	r7, sl
     e0a:	b5e0      	push	{r5, r6, r7, lr}
     e0c:	000d      	movs	r5, r1
     e0e:	350b      	adds	r5, #11
     e10:	0006      	movs	r6, r0
     e12:	b085      	sub	sp, #20
     e14:	2d16      	cmp	r5, #22
     e16:	d821      	bhi.n	e5c <_malloc_r+0x5c>
     e18:	2910      	cmp	r1, #16
     e1a:	d900      	bls.n	e1e <_malloc_r+0x1e>
     e1c:	e0d4      	b.n	fc8 <_malloc_r+0x1c8>
     e1e:	f000 fad5 	bl	13cc <__malloc_lock>
     e22:	2510      	movs	r5, #16
     e24:	2318      	movs	r3, #24
     e26:	2102      	movs	r1, #2
     e28:	4fca      	ldr	r7, [pc, #808]	@ (1154 <_malloc_r+0x354>)
     e2a:	18fb      	adds	r3, r7, r3
     e2c:	001a      	movs	r2, r3
     e2e:	685c      	ldr	r4, [r3, #4]
     e30:	3a08      	subs	r2, #8
     e32:	4294      	cmp	r4, r2
     e34:	d100      	bne.n	e38 <_malloc_r+0x38>
     e36:	e186      	b.n	1146 <_malloc_r+0x346>
     e38:	2203      	movs	r2, #3
     e3a:	6863      	ldr	r3, [r4, #4]
     e3c:	68a1      	ldr	r1, [r4, #8]
     e3e:	4393      	bics	r3, r2
     e40:	68e2      	ldr	r2, [r4, #12]
     e42:	60ca      	str	r2, [r1, #12]
     e44:	6091      	str	r1, [r2, #8]
     e46:	2101      	movs	r1, #1
     e48:	18e3      	adds	r3, r4, r3
     e4a:	685a      	ldr	r2, [r3, #4]
     e4c:	0030      	movs	r0, r6
     e4e:	430a      	orrs	r2, r1
     e50:	605a      	str	r2, [r3, #4]
     e52:	f000 fac3 	bl	13dc <__malloc_unlock>
     e56:	0020      	movs	r0, r4
     e58:	3008      	adds	r0, #8
     e5a:	e0b8      	b.n	fce <_malloc_r+0x1ce>
     e5c:	2307      	movs	r3, #7
     e5e:	439d      	bics	r5, r3
     e60:	d500      	bpl.n	e64 <_malloc_r+0x64>
     e62:	e0b1      	b.n	fc8 <_malloc_r+0x1c8>
     e64:	42a9      	cmp	r1, r5
     e66:	d900      	bls.n	e6a <_malloc_r+0x6a>
     e68:	e0ae      	b.n	fc8 <_malloc_r+0x1c8>
     e6a:	f000 faaf 	bl	13cc <__malloc_lock>
     e6e:	23fc      	movs	r3, #252	@ 0xfc
     e70:	005b      	lsls	r3, r3, #1
     e72:	429d      	cmp	r5, r3
     e74:	d200      	bcs.n	e78 <_malloc_r+0x78>
     e76:	e1e0      	b.n	123a <_malloc_r+0x43a>
     e78:	0a69      	lsrs	r1, r5, #9
     e7a:	d100      	bne.n	e7e <_malloc_r+0x7e>
     e7c:	e0ae      	b.n	fdc <_malloc_r+0x1dc>
     e7e:	2904      	cmp	r1, #4
     e80:	d900      	bls.n	e84 <_malloc_r+0x84>
     e82:	e1a1      	b.n	11c8 <_malloc_r+0x3c8>
     e84:	2338      	movs	r3, #56	@ 0x38
     e86:	4698      	mov	r8, r3
     e88:	09a9      	lsrs	r1, r5, #6
     e8a:	4488      	add	r8, r1
     e8c:	3139      	adds	r1, #57	@ 0x39
     e8e:	00cb      	lsls	r3, r1, #3
     e90:	2208      	movs	r2, #8
     e92:	4252      	negs	r2, r2
     e94:	4694      	mov	ip, r2
     e96:	4faf      	ldr	r7, [pc, #700]	@ (1154 <_malloc_r+0x354>)
     e98:	18fb      	adds	r3, r7, r3
     e9a:	449c      	add	ip, r3
     e9c:	4663      	mov	r3, ip
     e9e:	68dc      	ldr	r4, [r3, #12]
     ea0:	45a4      	cmp	ip, r4
     ea2:	d014      	beq.n	ece <_malloc_r+0xce>
     ea4:	2303      	movs	r3, #3
     ea6:	4699      	mov	r9, r3
     ea8:	000b      	movs	r3, r1
     eaa:	4661      	mov	r1, ip
     eac:	469c      	mov	ip, r3
     eae:	e007      	b.n	ec0 <_malloc_r+0xc0>
     eb0:	68e0      	ldr	r0, [r4, #12]
     eb2:	2a00      	cmp	r2, #0
     eb4:	db00      	blt.n	eb8 <_malloc_r+0xb8>
     eb6:	e140      	b.n	113a <_malloc_r+0x33a>
     eb8:	4281      	cmp	r1, r0
     eba:	d100      	bne.n	ebe <_malloc_r+0xbe>
     ebc:	e141      	b.n	1142 <_malloc_r+0x342>
     ebe:	0004      	movs	r4, r0
     ec0:	464a      	mov	r2, r9
     ec2:	6863      	ldr	r3, [r4, #4]
     ec4:	4393      	bics	r3, r2
     ec6:	1b5a      	subs	r2, r3, r5
     ec8:	2a0f      	cmp	r2, #15
     eca:	ddf1      	ble.n	eb0 <_malloc_r+0xb0>
     ecc:	4641      	mov	r1, r8
     ece:	003a      	movs	r2, r7
     ed0:	693c      	ldr	r4, [r7, #16]
     ed2:	3208      	adds	r2, #8
     ed4:	4294      	cmp	r4, r2
     ed6:	d100      	bne.n	eda <_malloc_r+0xda>
     ed8:	e11e      	b.n	1118 <_malloc_r+0x318>
     eda:	2003      	movs	r0, #3
     edc:	6863      	ldr	r3, [r4, #4]
     ede:	4383      	bics	r3, r0
     ee0:	1b58      	subs	r0, r3, r5
     ee2:	280f      	cmp	r0, #15
     ee4:	dd00      	ble.n	ee8 <_malloc_r+0xe8>
     ee6:	e1ac      	b.n	1242 <_malloc_r+0x442>
     ee8:	613a      	str	r2, [r7, #16]
     eea:	617a      	str	r2, [r7, #20]
     eec:	2800      	cmp	r0, #0
     eee:	daaa      	bge.n	e46 <_malloc_r+0x46>
     ef0:	687a      	ldr	r2, [r7, #4]
     ef2:	4690      	mov	r8, r2
     ef4:	2280      	movs	r2, #128	@ 0x80
     ef6:	0092      	lsls	r2, r2, #2
     ef8:	4293      	cmp	r3, r2
     efa:	d300      	bcc.n	efe <_malloc_r+0xfe>
     efc:	e136      	b.n	116c <_malloc_r+0x36c>
     efe:	08da      	lsrs	r2, r3, #3
     f00:	0958      	lsrs	r0, r3, #5
     f02:	2301      	movs	r3, #1
     f04:	4083      	lsls	r3, r0
     f06:	4640      	mov	r0, r8
     f08:	4318      	orrs	r0, r3
     f0a:	4680      	mov	r8, r0
     f0c:	00d3      	lsls	r3, r2, #3
     f0e:	19db      	adds	r3, r3, r7
     f10:	689a      	ldr	r2, [r3, #8]
     f12:	6078      	str	r0, [r7, #4]
     f14:	60e3      	str	r3, [r4, #12]
     f16:	60a2      	str	r2, [r4, #8]
     f18:	609c      	str	r4, [r3, #8]
     f1a:	60d4      	str	r4, [r2, #12]
     f1c:	2001      	movs	r0, #1
     f1e:	108b      	asrs	r3, r1, #2
     f20:	4098      	lsls	r0, r3
     f22:	4540      	cmp	r0, r8
     f24:	d862      	bhi.n	fec <_malloc_r+0x1ec>
     f26:	4643      	mov	r3, r8
     f28:	4203      	tst	r3, r0
     f2a:	d10a      	bne.n	f42 <_malloc_r+0x142>
     f2c:	2303      	movs	r3, #3
     f2e:	4399      	bics	r1, r3
     f30:	4643      	mov	r3, r8
     f32:	0040      	lsls	r0, r0, #1
     f34:	3104      	adds	r1, #4
     f36:	4203      	tst	r3, r0
     f38:	d103      	bne.n	f42 <_malloc_r+0x142>
     f3a:	0040      	lsls	r0, r0, #1
     f3c:	3104      	adds	r1, #4
     f3e:	4203      	tst	r3, r0
     f40:	d0fb      	beq.n	f3a <_malloc_r+0x13a>
     f42:	2303      	movs	r3, #3
     f44:	46b3      	mov	fp, r6
     f46:	469c      	mov	ip, r3
     f48:	000e      	movs	r6, r1
     f4a:	46b8      	mov	r8, r7
     f4c:	9001      	str	r0, [sp, #4]
     f4e:	00f0      	lsls	r0, r6, #3
     f50:	4440      	add	r0, r8
     f52:	0001      	movs	r1, r0
     f54:	46b2      	mov	sl, r6
     f56:	68cb      	ldr	r3, [r1, #12]
     f58:	e00b      	b.n	f72 <_malloc_r+0x172>
     f5a:	4664      	mov	r4, ip
     f5c:	685a      	ldr	r2, [r3, #4]
     f5e:	001f      	movs	r7, r3
     f60:	43a2      	bics	r2, r4
     f62:	68db      	ldr	r3, [r3, #12]
     f64:	1b54      	subs	r4, r2, r5
     f66:	2c0f      	cmp	r4, #15
     f68:	dd00      	ble.n	f6c <_malloc_r+0x16c>
     f6a:	e139      	b.n	11e0 <_malloc_r+0x3e0>
     f6c:	2c00      	cmp	r4, #0
     f6e:	db00      	blt.n	f72 <_malloc_r+0x172>
     f70:	e153      	b.n	121a <_malloc_r+0x41a>
     f72:	4299      	cmp	r1, r3
     f74:	d1f1      	bne.n	f5a <_malloc_r+0x15a>
     f76:	2301      	movs	r3, #1
     f78:	4699      	mov	r9, r3
     f7a:	44ca      	add	sl, r9
     f7c:	4653      	mov	r3, sl
     f7e:	3108      	adds	r1, #8
     f80:	079b      	lsls	r3, r3, #30
     f82:	d1e8      	bne.n	f56 <_malloc_r+0x156>
     f84:	2203      	movs	r2, #3
     f86:	e005      	b.n	f94 <_malloc_r+0x194>
     f88:	6803      	ldr	r3, [r0, #0]
     f8a:	3808      	subs	r0, #8
     f8c:	3e01      	subs	r6, #1
     f8e:	4283      	cmp	r3, r0
     f90:	d000      	beq.n	f94 <_malloc_r+0x194>
     f92:	e213      	b.n	13bc <_malloc_r+0x5bc>
     f94:	4232      	tst	r2, r6
     f96:	d1f7      	bne.n	f88 <_malloc_r+0x188>
     f98:	4643      	mov	r3, r8
     f9a:	9a01      	ldr	r2, [sp, #4]
     f9c:	685b      	ldr	r3, [r3, #4]
     f9e:	4393      	bics	r3, r2
     fa0:	4642      	mov	r2, r8
     fa2:	6053      	str	r3, [r2, #4]
     fa4:	9a01      	ldr	r2, [sp, #4]
     fa6:	0052      	lsls	r2, r2, #1
     fa8:	9201      	str	r2, [sp, #4]
     faa:	429a      	cmp	r2, r3
     fac:	d81c      	bhi.n	fe8 <_malloc_r+0x1e8>
     fae:	2a00      	cmp	r2, #0
     fb0:	d106      	bne.n	fc0 <_malloc_r+0x1c0>
     fb2:	e019      	b.n	fe8 <_malloc_r+0x1e8>
     fb4:	2204      	movs	r2, #4
     fb6:	4691      	mov	r9, r2
     fb8:	9a01      	ldr	r2, [sp, #4]
     fba:	44ca      	add	sl, r9
     fbc:	0052      	lsls	r2, r2, #1
     fbe:	9201      	str	r2, [sp, #4]
     fc0:	4213      	tst	r3, r2
     fc2:	d0f7      	beq.n	fb4 <_malloc_r+0x1b4>
     fc4:	4656      	mov	r6, sl
     fc6:	e7c2      	b.n	f4e <_malloc_r+0x14e>
     fc8:	230c      	movs	r3, #12
     fca:	6033      	str	r3, [r6, #0]
     fcc:	2000      	movs	r0, #0
     fce:	b005      	add	sp, #20
     fd0:	bcf0      	pop	{r4, r5, r6, r7}
     fd2:	46bb      	mov	fp, r7
     fd4:	46b2      	mov	sl, r6
     fd6:	46a9      	mov	r9, r5
     fd8:	46a0      	mov	r8, r4
     fda:	bdf0      	pop	{r4, r5, r6, r7, pc}
     fdc:	2380      	movs	r3, #128	@ 0x80
     fde:	223f      	movs	r2, #63	@ 0x3f
     fe0:	2140      	movs	r1, #64	@ 0x40
     fe2:	4690      	mov	r8, r2
     fe4:	009b      	lsls	r3, r3, #2
     fe6:	e753      	b.n	e90 <_malloc_r+0x90>
     fe8:	465e      	mov	r6, fp
     fea:	4647      	mov	r7, r8
     fec:	2203      	movs	r2, #3
     fee:	68bc      	ldr	r4, [r7, #8]
     ff0:	6863      	ldr	r3, [r4, #4]
     ff2:	4393      	bics	r3, r2
     ff4:	4698      	mov	r8, r3
     ff6:	42ab      	cmp	r3, r5
     ff8:	d303      	bcc.n	1002 <_malloc_r+0x202>
     ffa:	1b5b      	subs	r3, r3, r5
     ffc:	2b0f      	cmp	r3, #15
     ffe:	dd00      	ble.n	1002 <_malloc_r+0x202>
    1000:	e08d      	b.n	111e <_malloc_r+0x31e>
    1002:	0023      	movs	r3, r4
    1004:	4443      	add	r3, r8
    1006:	9302      	str	r3, [sp, #8]
    1008:	4b53      	ldr	r3, [pc, #332]	@ (1158 <_malloc_r+0x358>)
    100a:	2008      	movs	r0, #8
    100c:	681b      	ldr	r3, [r3, #0]
    100e:	3310      	adds	r3, #16
    1010:	195b      	adds	r3, r3, r5
    1012:	9301      	str	r3, [sp, #4]
    1014:	f003 f9ee 	bl	43f4 <sysconf>
    1018:	4950      	ldr	r1, [pc, #320]	@ (115c <_malloc_r+0x35c>)
    101a:	9003      	str	r0, [sp, #12]
    101c:	680b      	ldr	r3, [r1, #0]
    101e:	468a      	mov	sl, r1
    1020:	3301      	adds	r3, #1
    1022:	d006      	beq.n	1032 <_malloc_r+0x232>
    1024:	4684      	mov	ip, r0
    1026:	9b01      	ldr	r3, [sp, #4]
    1028:	4242      	negs	r2, r0
    102a:	3b01      	subs	r3, #1
    102c:	4463      	add	r3, ip
    102e:	4013      	ands	r3, r2
    1030:	9301      	str	r3, [sp, #4]
    1032:	0030      	movs	r0, r6
    1034:	9901      	ldr	r1, [sp, #4]
    1036:	f003 f9b7 	bl	43a8 <_sbrk_r>
    103a:	0003      	movs	r3, r0
    103c:	4681      	mov	r9, r0
    103e:	3301      	adds	r3, #1
    1040:	d100      	bne.n	1044 <_malloc_r+0x244>
    1042:	e11c      	b.n	127e <_malloc_r+0x47e>
    1044:	9b02      	ldr	r3, [sp, #8]
    1046:	4283      	cmp	r3, r0
    1048:	d900      	bls.n	104c <_malloc_r+0x24c>
    104a:	e116      	b.n	127a <_malloc_r+0x47a>
    104c:	4b44      	ldr	r3, [pc, #272]	@ (1160 <_malloc_r+0x360>)
    104e:	9802      	ldr	r0, [sp, #8]
    1050:	469b      	mov	fp, r3
    1052:	681a      	ldr	r2, [r3, #0]
    1054:	9b01      	ldr	r3, [sp, #4]
    1056:	4659      	mov	r1, fp
    1058:	469c      	mov	ip, r3
    105a:	4462      	add	r2, ip
    105c:	600a      	str	r2, [r1, #0]
    105e:	9903      	ldr	r1, [sp, #12]
    1060:	3901      	subs	r1, #1
    1062:	4548      	cmp	r0, r9
    1064:	d100      	bne.n	1068 <_malloc_r+0x268>
    1066:	e157      	b.n	1318 <_malloc_r+0x518>
    1068:	4653      	mov	r3, sl
    106a:	681b      	ldr	r3, [r3, #0]
    106c:	3301      	adds	r3, #1
    106e:	d100      	bne.n	1072 <_malloc_r+0x272>
    1070:	e15e      	b.n	1330 <_malloc_r+0x530>
    1072:	464b      	mov	r3, r9
    1074:	9802      	ldr	r0, [sp, #8]
    1076:	1a1b      	subs	r3, r3, r0
    1078:	189b      	adds	r3, r3, r2
    107a:	465a      	mov	r2, fp
    107c:	6013      	str	r3, [r2, #0]
    107e:	2307      	movs	r3, #7
    1080:	464a      	mov	r2, r9
    1082:	4648      	mov	r0, r9
    1084:	401a      	ands	r2, r3
    1086:	9202      	str	r2, [sp, #8]
    1088:	4218      	tst	r0, r3
    108a:	d100      	bne.n	108e <_malloc_r+0x28e>
    108c:	e115      	b.n	12ba <_malloc_r+0x4ba>
    108e:	9803      	ldr	r0, [sp, #12]
    1090:	3301      	adds	r3, #1
    1092:	4684      	mov	ip, r0
    1094:	1a9b      	subs	r3, r3, r2
    1096:	9a01      	ldr	r2, [sp, #4]
    1098:	4499      	add	r9, r3
    109a:	444a      	add	r2, r9
    109c:	9201      	str	r2, [sp, #4]
    109e:	4463      	add	r3, ip
    10a0:	400a      	ands	r2, r1
    10a2:	1a9b      	subs	r3, r3, r2
    10a4:	4019      	ands	r1, r3
    10a6:	0030      	movs	r0, r6
    10a8:	468a      	mov	sl, r1
    10aa:	f003 f97d 	bl	43a8 <_sbrk_r>
    10ae:	1c43      	adds	r3, r0, #1
    10b0:	d100      	bne.n	10b4 <_malloc_r+0x2b4>
    10b2:	e158      	b.n	1366 <_malloc_r+0x566>
    10b4:	464b      	mov	r3, r9
    10b6:	1ac0      	subs	r0, r0, r3
    10b8:	0003      	movs	r3, r0
    10ba:	4453      	add	r3, sl
    10bc:	9301      	str	r3, [sp, #4]
    10be:	465b      	mov	r3, fp
    10c0:	681a      	ldr	r2, [r3, #0]
    10c2:	2001      	movs	r0, #1
    10c4:	4452      	add	r2, sl
    10c6:	601a      	str	r2, [r3, #0]
    10c8:	464b      	mov	r3, r9
    10ca:	4649      	mov	r1, r9
    10cc:	60bb      	str	r3, [r7, #8]
    10ce:	9b01      	ldr	r3, [sp, #4]
    10d0:	4303      	orrs	r3, r0
    10d2:	604b      	str	r3, [r1, #4]
    10d4:	42bc      	cmp	r4, r7
    10d6:	d013      	beq.n	1100 <_malloc_r+0x300>
    10d8:	4643      	mov	r3, r8
    10da:	2b0f      	cmp	r3, #15
    10dc:	d800      	bhi.n	10e0 <_malloc_r+0x2e0>
    10de:	e12b      	b.n	1338 <_malloc_r+0x538>
    10e0:	2107      	movs	r1, #7
    10e2:	3b0c      	subs	r3, #12
    10e4:	438b      	bics	r3, r1
    10e6:	6861      	ldr	r1, [r4, #4]
    10e8:	4001      	ands	r1, r0
    10ea:	2005      	movs	r0, #5
    10ec:	4319      	orrs	r1, r3
    10ee:	6061      	str	r1, [r4, #4]
    10f0:	18e1      	adds	r1, r4, r3
    10f2:	6048      	str	r0, [r1, #4]
    10f4:	6088      	str	r0, [r1, #8]
    10f6:	2b0f      	cmp	r3, #15
    10f8:	d900      	bls.n	10fc <_malloc_r+0x2fc>
    10fa:	e13f      	b.n	137c <_malloc_r+0x57c>
    10fc:	464b      	mov	r3, r9
    10fe:	685b      	ldr	r3, [r3, #4]
    1100:	4918      	ldr	r1, [pc, #96]	@ (1164 <_malloc_r+0x364>)
    1102:	6808      	ldr	r0, [r1, #0]
    1104:	4290      	cmp	r0, r2
    1106:	d200      	bcs.n	110a <_malloc_r+0x30a>
    1108:	600a      	str	r2, [r1, #0]
    110a:	4917      	ldr	r1, [pc, #92]	@ (1168 <_malloc_r+0x368>)
    110c:	6808      	ldr	r0, [r1, #0]
    110e:	4290      	cmp	r0, r2
    1110:	d200      	bcs.n	1114 <_malloc_r+0x314>
    1112:	600a      	str	r2, [r1, #0]
    1114:	464c      	mov	r4, r9
    1116:	e0b4      	b.n	1282 <_malloc_r+0x482>
    1118:	687b      	ldr	r3, [r7, #4]
    111a:	4698      	mov	r8, r3
    111c:	e6fe      	b.n	f1c <_malloc_r+0x11c>
    111e:	2201      	movs	r2, #1
    1120:	0029      	movs	r1, r5
    1122:	4313      	orrs	r3, r2
    1124:	4311      	orrs	r1, r2
    1126:	1965      	adds	r5, r4, r5
    1128:	6061      	str	r1, [r4, #4]
    112a:	0030      	movs	r0, r6
    112c:	60bd      	str	r5, [r7, #8]
    112e:	606b      	str	r3, [r5, #4]
    1130:	f000 f954 	bl	13dc <__malloc_unlock>
    1134:	0020      	movs	r0, r4
    1136:	3008      	adds	r0, #8
    1138:	e749      	b.n	fce <_malloc_r+0x1ce>
    113a:	68a2      	ldr	r2, [r4, #8]
    113c:	60d0      	str	r0, [r2, #12]
    113e:	6082      	str	r2, [r0, #8]
    1140:	e681      	b.n	e46 <_malloc_r+0x46>
    1142:	4661      	mov	r1, ip
    1144:	e6c3      	b.n	ece <_malloc_r+0xce>
    1146:	68dc      	ldr	r4, [r3, #12]
    1148:	3102      	adds	r1, #2
    114a:	42a3      	cmp	r3, r4
    114c:	d100      	bne.n	1150 <_malloc_r+0x350>
    114e:	e6be      	b.n	ece <_malloc_r+0xce>
    1150:	e672      	b.n	e38 <_malloc_r+0x38>
    1152:	46c0      	nop			@ (mov r8, r8)
    1154:	20000160 	.word	0x20000160
    1158:	20001c28 	.word	0x20001c28
    115c:	20000158 	.word	0x20000158
    1160:	20001bf8 	.word	0x20001bf8
    1164:	20001c24 	.word	0x20001c24
    1168:	20001c20 	.word	0x20001c20
    116c:	0a5a      	lsrs	r2, r3, #9
    116e:	2a04      	cmp	r2, #4
    1170:	d97c      	bls.n	126c <_malloc_r+0x46c>
    1172:	2a14      	cmp	r2, #20
    1174:	d900      	bls.n	1178 <_malloc_r+0x378>
    1176:	e0b0      	b.n	12da <_malloc_r+0x4da>
    1178:	0010      	movs	r0, r2
    117a:	305b      	adds	r0, #91	@ 0x5b
    117c:	4682      	mov	sl, r0
    117e:	325c      	adds	r2, #92	@ 0x5c
    1180:	00d2      	lsls	r2, r2, #3
    1182:	2008      	movs	r0, #8
    1184:	4240      	negs	r0, r0
    1186:	4684      	mov	ip, r0
    1188:	18ba      	adds	r2, r7, r2
    118a:	4494      	add	ip, r2
    118c:	4662      	mov	r2, ip
    118e:	6892      	ldr	r2, [r2, #8]
    1190:	300b      	adds	r0, #11
    1192:	4681      	mov	r9, r0
    1194:	4594      	cmp	ip, r2
    1196:	d100      	bne.n	119a <_malloc_r+0x39a>
    1198:	e086      	b.n	12a8 <_malloc_r+0x4a8>
    119a:	0008      	movs	r0, r1
    119c:	46a2      	mov	sl, r4
    119e:	4661      	mov	r1, ip
    11a0:	4684      	mov	ip, r0
    11a2:	e002      	b.n	11aa <_malloc_r+0x3aa>
    11a4:	6892      	ldr	r2, [r2, #8]
    11a6:	4291      	cmp	r1, r2
    11a8:	d004      	beq.n	11b4 <_malloc_r+0x3b4>
    11aa:	464c      	mov	r4, r9
    11ac:	6850      	ldr	r0, [r2, #4]
    11ae:	43a0      	bics	r0, r4
    11b0:	4298      	cmp	r0, r3
    11b2:	d8f7      	bhi.n	11a4 <_malloc_r+0x3a4>
    11b4:	68d3      	ldr	r3, [r2, #12]
    11b6:	4661      	mov	r1, ip
    11b8:	4654      	mov	r4, sl
    11ba:	469c      	mov	ip, r3
    11bc:	4663      	mov	r3, ip
    11be:	60a2      	str	r2, [r4, #8]
    11c0:	60e3      	str	r3, [r4, #12]
    11c2:	609c      	str	r4, [r3, #8]
    11c4:	60d4      	str	r4, [r2, #12]
    11c6:	e6a9      	b.n	f1c <_malloc_r+0x11c>
    11c8:	2914      	cmp	r1, #20
    11ca:	d967      	bls.n	129c <_malloc_r+0x49c>
    11cc:	2954      	cmp	r1, #84	@ 0x54
    11ce:	d900      	bls.n	11d2 <_malloc_r+0x3d2>
    11d0:	e08c      	b.n	12ec <_malloc_r+0x4ec>
    11d2:	236e      	movs	r3, #110	@ 0x6e
    11d4:	4698      	mov	r8, r3
    11d6:	0b29      	lsrs	r1, r5, #12
    11d8:	4488      	add	r8, r1
    11da:	316f      	adds	r1, #111	@ 0x6f
    11dc:	00cb      	lsls	r3, r1, #3
    11de:	e657      	b.n	e90 <_malloc_r+0x90>
    11e0:	46ba      	mov	sl, r7
    11e2:	2001      	movs	r0, #1
    11e4:	4651      	mov	r1, sl
    11e6:	4684      	mov	ip, r0
    11e8:	1949      	adds	r1, r1, r5
    11ea:	4305      	orrs	r5, r0
    11ec:	4650      	mov	r0, sl
    11ee:	6045      	str	r5, [r0, #4]
    11f0:	6885      	ldr	r5, [r0, #8]
    11f2:	4647      	mov	r7, r8
    11f4:	4660      	mov	r0, ip
    11f6:	60eb      	str	r3, [r5, #12]
    11f8:	465e      	mov	r6, fp
    11fa:	609d      	str	r5, [r3, #8]
    11fc:	4653      	mov	r3, sl
    11fe:	6139      	str	r1, [r7, #16]
    1200:	6179      	str	r1, [r7, #20]
    1202:	4320      	orrs	r0, r4
    1204:	3708      	adds	r7, #8
    1206:	6048      	str	r0, [r1, #4]
    1208:	60cf      	str	r7, [r1, #12]
    120a:	0030      	movs	r0, r6
    120c:	608f      	str	r7, [r1, #8]
    120e:	509c      	str	r4, [r3, r2]
    1210:	f000 f8e4 	bl	13dc <__malloc_unlock>
    1214:	4650      	mov	r0, sl
    1216:	3008      	adds	r0, #8
    1218:	e6d9      	b.n	fce <_malloc_r+0x1ce>
    121a:	46ba      	mov	sl, r7
    121c:	2001      	movs	r0, #1
    121e:	465e      	mov	r6, fp
    1220:	4452      	add	r2, sl
    1222:	6851      	ldr	r1, [r2, #4]
    1224:	4301      	orrs	r1, r0
    1226:	6051      	str	r1, [r2, #4]
    1228:	68ba      	ldr	r2, [r7, #8]
    122a:	0030      	movs	r0, r6
    122c:	60d3      	str	r3, [r2, #12]
    122e:	609a      	str	r2, [r3, #8]
    1230:	f000 f8d4 	bl	13dc <__malloc_unlock>
    1234:	0038      	movs	r0, r7
    1236:	3008      	adds	r0, #8
    1238:	e6c9      	b.n	fce <_malloc_r+0x1ce>
    123a:	002b      	movs	r3, r5
    123c:	08e9      	lsrs	r1, r5, #3
    123e:	3308      	adds	r3, #8
    1240:	e5f2      	b.n	e28 <_malloc_r+0x28>
    1242:	1961      	adds	r1, r4, r5
    1244:	4688      	mov	r8, r1
    1246:	2101      	movs	r1, #1
    1248:	468c      	mov	ip, r1
    124a:	430d      	orrs	r5, r1
    124c:	4641      	mov	r1, r8
    124e:	6065      	str	r5, [r4, #4]
    1250:	6139      	str	r1, [r7, #16]
    1252:	6179      	str	r1, [r7, #20]
    1254:	60ca      	str	r2, [r1, #12]
    1256:	608a      	str	r2, [r1, #8]
    1258:	4662      	mov	r2, ip
    125a:	4302      	orrs	r2, r0
    125c:	604a      	str	r2, [r1, #4]
    125e:	50e0      	str	r0, [r4, r3]
    1260:	0030      	movs	r0, r6
    1262:	f000 f8bb 	bl	13dc <__malloc_unlock>
    1266:	0020      	movs	r0, r4
    1268:	3008      	adds	r0, #8
    126a:	e6b0      	b.n	fce <_malloc_r+0x1ce>
    126c:	099a      	lsrs	r2, r3, #6
    126e:	0010      	movs	r0, r2
    1270:	3239      	adds	r2, #57	@ 0x39
    1272:	3038      	adds	r0, #56	@ 0x38
    1274:	4682      	mov	sl, r0
    1276:	00d2      	lsls	r2, r2, #3
    1278:	e783      	b.n	1182 <_malloc_r+0x382>
    127a:	42bc      	cmp	r4, r7
    127c:	d041      	beq.n	1302 <_malloc_r+0x502>
    127e:	68bc      	ldr	r4, [r7, #8]
    1280:	6863      	ldr	r3, [r4, #4]
    1282:	2203      	movs	r2, #3
    1284:	4393      	bics	r3, r2
    1286:	001a      	movs	r2, r3
    1288:	1b5b      	subs	r3, r3, r5
    128a:	42aa      	cmp	r2, r5
    128c:	d302      	bcc.n	1294 <_malloc_r+0x494>
    128e:	2b0f      	cmp	r3, #15
    1290:	dd00      	ble.n	1294 <_malloc_r+0x494>
    1292:	e744      	b.n	111e <_malloc_r+0x31e>
    1294:	0030      	movs	r0, r6
    1296:	f000 f8a1 	bl	13dc <__malloc_unlock>
    129a:	e697      	b.n	fcc <_malloc_r+0x1cc>
    129c:	235b      	movs	r3, #91	@ 0x5b
    129e:	4698      	mov	r8, r3
    12a0:	4488      	add	r8, r1
    12a2:	315c      	adds	r1, #92	@ 0x5c
    12a4:	00cb      	lsls	r3, r1, #3
    12a6:	e5f3      	b.n	e90 <_malloc_r+0x90>
    12a8:	4653      	mov	r3, sl
    12aa:	1098      	asrs	r0, r3, #2
    12ac:	2301      	movs	r3, #1
    12ae:	4083      	lsls	r3, r0
    12b0:	4640      	mov	r0, r8
    12b2:	4318      	orrs	r0, r3
    12b4:	4680      	mov	r8, r0
    12b6:	6078      	str	r0, [r7, #4]
    12b8:	e780      	b.n	11bc <_malloc_r+0x3bc>
    12ba:	9b01      	ldr	r3, [sp, #4]
    12bc:	9a03      	ldr	r2, [sp, #12]
    12be:	444b      	add	r3, r9
    12c0:	400b      	ands	r3, r1
    12c2:	1ad3      	subs	r3, r2, r3
    12c4:	4019      	ands	r1, r3
    12c6:	0030      	movs	r0, r6
    12c8:	468a      	mov	sl, r1
    12ca:	f003 f86d 	bl	43a8 <_sbrk_r>
    12ce:	1c43      	adds	r3, r0, #1
    12d0:	d000      	beq.n	12d4 <_malloc_r+0x4d4>
    12d2:	e6ef      	b.n	10b4 <_malloc_r+0x2b4>
    12d4:	2300      	movs	r3, #0
    12d6:	469a      	mov	sl, r3
    12d8:	e6f1      	b.n	10be <_malloc_r+0x2be>
    12da:	2a54      	cmp	r2, #84	@ 0x54
    12dc:	d82e      	bhi.n	133c <_malloc_r+0x53c>
    12de:	0b1a      	lsrs	r2, r3, #12
    12e0:	0010      	movs	r0, r2
    12e2:	326f      	adds	r2, #111	@ 0x6f
    12e4:	306e      	adds	r0, #110	@ 0x6e
    12e6:	4682      	mov	sl, r0
    12e8:	00d2      	lsls	r2, r2, #3
    12ea:	e74a      	b.n	1182 <_malloc_r+0x382>
    12ec:	23aa      	movs	r3, #170	@ 0xaa
    12ee:	005b      	lsls	r3, r3, #1
    12f0:	4299      	cmp	r1, r3
    12f2:	d82e      	bhi.n	1352 <_malloc_r+0x552>
    12f4:	3bdd      	subs	r3, #221	@ 0xdd
    12f6:	4698      	mov	r8, r3
    12f8:	0be9      	lsrs	r1, r5, #15
    12fa:	4488      	add	r8, r1
    12fc:	3178      	adds	r1, #120	@ 0x78
    12fe:	00cb      	lsls	r3, r1, #3
    1300:	e5c6      	b.n	e90 <_malloc_r+0x90>
    1302:	4b30      	ldr	r3, [pc, #192]	@ (13c4 <_malloc_r+0x5c4>)
    1304:	469b      	mov	fp, r3
    1306:	681a      	ldr	r2, [r3, #0]
    1308:	9b01      	ldr	r3, [sp, #4]
    130a:	469c      	mov	ip, r3
    130c:	465b      	mov	r3, fp
    130e:	4462      	add	r2, ip
    1310:	601a      	str	r2, [r3, #0]
    1312:	9b03      	ldr	r3, [sp, #12]
    1314:	1e59      	subs	r1, r3, #1
    1316:	e6a7      	b.n	1068 <_malloc_r+0x268>
    1318:	4648      	mov	r0, r9
    131a:	4208      	tst	r0, r1
    131c:	d000      	beq.n	1320 <_malloc_r+0x520>
    131e:	e6a3      	b.n	1068 <_malloc_r+0x268>
    1320:	68b9      	ldr	r1, [r7, #8]
    1322:	4443      	add	r3, r8
    1324:	4689      	mov	r9, r1
    1326:	2101      	movs	r1, #1
    1328:	430b      	orrs	r3, r1
    132a:	4649      	mov	r1, r9
    132c:	604b      	str	r3, [r1, #4]
    132e:	e6e7      	b.n	1100 <_malloc_r+0x300>
    1330:	4653      	mov	r3, sl
    1332:	464a      	mov	r2, r9
    1334:	601a      	str	r2, [r3, #0]
    1336:	e6a2      	b.n	107e <_malloc_r+0x27e>
    1338:	6048      	str	r0, [r1, #4]
    133a:	e7ab      	b.n	1294 <_malloc_r+0x494>
    133c:	20aa      	movs	r0, #170	@ 0xaa
    133e:	0040      	lsls	r0, r0, #1
    1340:	4282      	cmp	r2, r0
    1342:	d826      	bhi.n	1392 <_malloc_r+0x592>
    1344:	0bda      	lsrs	r2, r3, #15
    1346:	0010      	movs	r0, r2
    1348:	3278      	adds	r2, #120	@ 0x78
    134a:	3077      	adds	r0, #119	@ 0x77
    134c:	4682      	mov	sl, r0
    134e:	00d2      	lsls	r2, r2, #3
    1350:	e717      	b.n	1182 <_malloc_r+0x382>
    1352:	4b1d      	ldr	r3, [pc, #116]	@ (13c8 <_malloc_r+0x5c8>)
    1354:	4299      	cmp	r1, r3
    1356:	d826      	bhi.n	13a6 <_malloc_r+0x5a6>
    1358:	237c      	movs	r3, #124	@ 0x7c
    135a:	4698      	mov	r8, r3
    135c:	0ca9      	lsrs	r1, r5, #18
    135e:	4488      	add	r8, r1
    1360:	317d      	adds	r1, #125	@ 0x7d
    1362:	00cb      	lsls	r3, r1, #3
    1364:	e594      	b.n	e90 <_malloc_r+0x90>
    1366:	9a01      	ldr	r2, [sp, #4]
    1368:	9b02      	ldr	r3, [sp, #8]
    136a:	4694      	mov	ip, r2
    136c:	464a      	mov	r2, r9
    136e:	3b08      	subs	r3, #8
    1370:	4463      	add	r3, ip
    1372:	1a9b      	subs	r3, r3, r2
    1374:	9301      	str	r3, [sp, #4]
    1376:	2300      	movs	r3, #0
    1378:	469a      	mov	sl, r3
    137a:	e6a0      	b.n	10be <_malloc_r+0x2be>
    137c:	0021      	movs	r1, r4
    137e:	0030      	movs	r0, r6
    1380:	3108      	adds	r1, #8
    1382:	f7ff fc3b 	bl	bfc <_free_r>
    1386:	465b      	mov	r3, fp
    1388:	681a      	ldr	r2, [r3, #0]
    138a:	68bb      	ldr	r3, [r7, #8]
    138c:	4699      	mov	r9, r3
    138e:	685b      	ldr	r3, [r3, #4]
    1390:	e6b6      	b.n	1100 <_malloc_r+0x300>
    1392:	480d      	ldr	r0, [pc, #52]	@ (13c8 <_malloc_r+0x5c8>)
    1394:	4282      	cmp	r2, r0
    1396:	d80c      	bhi.n	13b2 <_malloc_r+0x5b2>
    1398:	0c9a      	lsrs	r2, r3, #18
    139a:	0010      	movs	r0, r2
    139c:	327d      	adds	r2, #125	@ 0x7d
    139e:	307c      	adds	r0, #124	@ 0x7c
    13a0:	4682      	mov	sl, r0
    13a2:	00d2      	lsls	r2, r2, #3
    13a4:	e6ed      	b.n	1182 <_malloc_r+0x382>
    13a6:	23fe      	movs	r3, #254	@ 0xfe
    13a8:	227e      	movs	r2, #126	@ 0x7e
    13aa:	217f      	movs	r1, #127	@ 0x7f
    13ac:	4690      	mov	r8, r2
    13ae:	009b      	lsls	r3, r3, #2
    13b0:	e56e      	b.n	e90 <_malloc_r+0x90>
    13b2:	22fe      	movs	r2, #254	@ 0xfe
    13b4:	207e      	movs	r0, #126	@ 0x7e
    13b6:	0092      	lsls	r2, r2, #2
    13b8:	4682      	mov	sl, r0
    13ba:	e6e2      	b.n	1182 <_malloc_r+0x382>
    13bc:	4643      	mov	r3, r8
    13be:	685b      	ldr	r3, [r3, #4]
    13c0:	e5f0      	b.n	fa4 <_malloc_r+0x1a4>
    13c2:	46c0      	nop			@ (mov r8, r8)
    13c4:	20001bf8 	.word	0x20001bf8
    13c8:	00000554 	.word	0x00000554

000013cc <__malloc_lock>:
    13cc:	b510      	push	{r4, lr}
    13ce:	4802      	ldr	r0, [pc, #8]	@ (13d8 <__malloc_lock+0xc>)
    13d0:	f7ff fb60 	bl	a94 <__retarget_lock_acquire_recursive>
    13d4:	bd10      	pop	{r4, pc}
    13d6:	46c0      	nop			@ (mov r8, r8)
    13d8:	20001bf0 	.word	0x20001bf0

000013dc <__malloc_unlock>:
    13dc:	b510      	push	{r4, lr}
    13de:	4802      	ldr	r0, [pc, #8]	@ (13e8 <__malloc_unlock+0xc>)
    13e0:	f7ff fb5a 	bl	a98 <__retarget_lock_release_recursive>
    13e4:	bd10      	pop	{r4, pc}
    13e6:	46c0      	nop			@ (mov r8, r8)
    13e8:	20001bf0 	.word	0x20001bf0

000013ec <_vfprintf_r>:
    13ec:	b5f0      	push	{r4, r5, r6, r7, lr}
    13ee:	46de      	mov	lr, fp
    13f0:	4645      	mov	r5, r8
    13f2:	4657      	mov	r7, sl
    13f4:	464e      	mov	r6, r9
    13f6:	b5e0      	push	{r5, r6, r7, lr}
    13f8:	b0db      	sub	sp, #364	@ 0x16c
    13fa:	4688      	mov	r8, r1
    13fc:	4693      	mov	fp, r2
    13fe:	001c      	movs	r4, r3
    1400:	9310      	str	r3, [sp, #64]	@ 0x40
    1402:	0005      	movs	r5, r0
    1404:	9007      	str	r0, [sp, #28]
    1406:	f002 ff6b 	bl	42e0 <_localeconv_r>
    140a:	6803      	ldr	r3, [r0, #0]
    140c:	0018      	movs	r0, r3
    140e:	931c      	str	r3, [sp, #112]	@ 0x70
    1410:	f003 f83c 	bl	448c <strlen>
    1414:	901b      	str	r0, [sp, #108]	@ 0x6c
    1416:	2d00      	cmp	r5, #0
    1418:	d004      	beq.n	1424 <_vfprintf_r+0x38>
    141a:	6b6b      	ldr	r3, [r5, #52]	@ 0x34
    141c:	2b00      	cmp	r3, #0
    141e:	d101      	bne.n	1424 <_vfprintf_r+0x38>
    1420:	f001 fa14 	bl	284c <_vfprintf_r+0x1460>
    1424:	4643      	mov	r3, r8
    1426:	2501      	movs	r5, #1
    1428:	6e5a      	ldr	r2, [r3, #100]	@ 0x64
    142a:	210c      	movs	r1, #12
    142c:	5e5b      	ldrsh	r3, [r3, r1]
    142e:	4215      	tst	r5, r2
    1430:	d101      	bne.n	1436 <_vfprintf_r+0x4a>
    1432:	f000 fe3d 	bl	20b0 <_vfprintf_r+0xcc4>
    1436:	0499      	lsls	r1, r3, #18
    1438:	d501      	bpl.n	143e <_vfprintf_r+0x52>
    143a:	f000 ffa7 	bl	238c <_vfprintf_r+0xfa0>
    143e:	2180      	movs	r1, #128	@ 0x80
    1440:	0189      	lsls	r1, r1, #6
    1442:	430b      	orrs	r3, r1
    1444:	4641      	mov	r1, r8
    1446:	818b      	strh	r3, [r1, #12]
    1448:	49d1      	ldr	r1, [pc, #836]	@ (1790 <_vfprintf_r+0x3a4>)
    144a:	b21b      	sxth	r3, r3
    144c:	400a      	ands	r2, r1
    144e:	4641      	mov	r1, r8
    1450:	664a      	str	r2, [r1, #100]	@ 0x64
    1452:	071a      	lsls	r2, r3, #28
    1454:	d401      	bmi.n	145a <_vfprintf_r+0x6e>
    1456:	f000 fe03 	bl	2060 <_vfprintf_r+0xc74>
    145a:	4642      	mov	r2, r8
    145c:	6912      	ldr	r2, [r2, #16]
    145e:	2a00      	cmp	r2, #0
    1460:	d101      	bne.n	1466 <_vfprintf_r+0x7a>
    1462:	f000 fdfd 	bl	2060 <_vfprintf_r+0xc74>
    1466:	221a      	movs	r2, #26
    1468:	401a      	ands	r2, r3
    146a:	2a0a      	cmp	r2, #10
    146c:	d101      	bne.n	1472 <_vfprintf_r+0x86>
    146e:	f000 fe08 	bl	2082 <_vfprintf_r+0xc96>
    1472:	ab31      	add	r3, sp, #196	@ 0xc4
    1474:	932e      	str	r3, [sp, #184]	@ 0xb8
    1476:	2300      	movs	r3, #0
    1478:	2400      	movs	r4, #0
    147a:	9311      	str	r3, [sp, #68]	@ 0x44
    147c:	9330      	str	r3, [sp, #192]	@ 0xc0
    147e:	932f      	str	r3, [sp, #188]	@ 0xbc
    1480:	2300      	movs	r3, #0
    1482:	9318      	str	r3, [sp, #96]	@ 0x60
    1484:	9419      	str	r4, [sp, #100]	@ 0x64
    1486:	2300      	movs	r3, #0
    1488:	931f      	str	r3, [sp, #124]	@ 0x7c
    148a:	931d      	str	r3, [sp, #116]	@ 0x74
    148c:	9321      	str	r3, [sp, #132]	@ 0x84
    148e:	9320      	str	r3, [sp, #128]	@ 0x80
    1490:	930b      	str	r3, [sp, #44]	@ 0x2c
    1492:	4bc0      	ldr	r3, [pc, #768]	@ (1794 <_vfprintf_r+0x3a8>)
    1494:	465d      	mov	r5, fp
    1496:	9313      	str	r3, [sp, #76]	@ 0x4c
    1498:	4bbf      	ldr	r3, [pc, #764]	@ (1798 <_vfprintf_r+0x3ac>)
    149a:	af2e      	add	r7, sp, #184	@ 0xb8
    149c:	931e      	str	r3, [sp, #120]	@ 0x78
    149e:	4643      	mov	r3, r8
    14a0:	9308      	str	r3, [sp, #32]
    14a2:	782b      	ldrb	r3, [r5, #0]
    14a4:	ae31      	add	r6, sp, #196	@ 0xc4
    14a6:	2b00      	cmp	r3, #0
    14a8:	d100      	bne.n	14ac <_vfprintf_r+0xc0>
    14aa:	e0b3      	b.n	1614 <_vfprintf_r+0x228>
    14ac:	002c      	movs	r4, r5
    14ae:	e005      	b.n	14bc <_vfprintf_r+0xd0>
    14b0:	7863      	ldrb	r3, [r4, #1]
    14b2:	3401      	adds	r4, #1
    14b4:	2b00      	cmp	r3, #0
    14b6:	d101      	bne.n	14bc <_vfprintf_r+0xd0>
    14b8:	f000 fca3 	bl	1e02 <_vfprintf_r+0xa16>
    14bc:	2b25      	cmp	r3, #37	@ 0x25
    14be:	d1f7      	bne.n	14b0 <_vfprintf_r+0xc4>
    14c0:	1b63      	subs	r3, r4, r5
    14c2:	4698      	mov	r8, r3
    14c4:	42ac      	cmp	r4, r5
    14c6:	d001      	beq.n	14cc <_vfprintf_r+0xe0>
    14c8:	f000 fca1 	bl	1e0e <_vfprintf_r+0xa22>
    14cc:	7823      	ldrb	r3, [r4, #0]
    14ce:	2b00      	cmp	r3, #0
    14d0:	d100      	bne.n	14d4 <_vfprintf_r+0xe8>
    14d2:	e09f      	b.n	1614 <_vfprintf_r+0x228>
    14d4:	1c63      	adds	r3, r4, #1
    14d6:	9306      	str	r3, [sp, #24]
    14d8:	2300      	movs	r3, #0
    14da:	aa20      	add	r2, sp, #128	@ 0x80
    14dc:	76d3      	strb	r3, [r2, #27]
    14de:	2201      	movs	r2, #1
    14e0:	4252      	negs	r2, r2
    14e2:	920a      	str	r2, [sp, #40]	@ 0x28
    14e4:	2200      	movs	r2, #0
    14e6:	7863      	ldrb	r3, [r4, #1]
    14e8:	0014      	movs	r4, r2
    14ea:	920e      	str	r2, [sp, #56]	@ 0x38
    14ec:	9a06      	ldr	r2, [sp, #24]
    14ee:	3201      	adds	r2, #1
    14f0:	9206      	str	r2, [sp, #24]
    14f2:	001a      	movs	r2, r3
    14f4:	3a20      	subs	r2, #32
    14f6:	2a5a      	cmp	r2, #90	@ 0x5a
    14f8:	d803      	bhi.n	1502 <_vfprintf_r+0x116>
    14fa:	9913      	ldr	r1, [sp, #76]	@ 0x4c
    14fc:	0092      	lsls	r2, r2, #2
    14fe:	588a      	ldr	r2, [r1, r2]
    1500:	4697      	mov	pc, r2
    1502:	4699      	mov	r9, r3
    1504:	46a3      	mov	fp, r4
    1506:	2b00      	cmp	r3, #0
    1508:	d100      	bne.n	150c <_vfprintf_r+0x120>
    150a:	e083      	b.n	1614 <_vfprintf_r+0x228>
    150c:	ad41      	add	r5, sp, #260	@ 0x104
    150e:	702b      	strb	r3, [r5, #0]
    1510:	2300      	movs	r3, #0
    1512:	aa20      	add	r2, sp, #128	@ 0x80
    1514:	76d3      	strb	r3, [r2, #27]
    1516:	930f      	str	r3, [sp, #60]	@ 0x3c
    1518:	3301      	adds	r3, #1
    151a:	930c      	str	r3, [sp, #48]	@ 0x30
    151c:	2300      	movs	r3, #0
    151e:	930a      	str	r3, [sp, #40]	@ 0x28
    1520:	931a      	str	r3, [sp, #104]	@ 0x68
    1522:	9315      	str	r3, [sp, #84]	@ 0x54
    1524:	9314      	str	r3, [sp, #80]	@ 0x50
    1526:	3301      	adds	r3, #1
    1528:	9309      	str	r3, [sp, #36]	@ 0x24
    152a:	2384      	movs	r3, #132	@ 0x84
    152c:	465a      	mov	r2, fp
    152e:	401a      	ands	r2, r3
    1530:	9212      	str	r2, [sp, #72]	@ 0x48
    1532:	465a      	mov	r2, fp
    1534:	68bc      	ldr	r4, [r7, #8]
    1536:	4213      	tst	r3, r2
    1538:	d100      	bne.n	153c <_vfprintf_r+0x150>
    153a:	e169      	b.n	1810 <_vfprintf_r+0x424>
    153c:	ab20      	add	r3, sp, #128	@ 0x80
    153e:	7edb      	ldrb	r3, [r3, #27]
    1540:	2b00      	cmp	r3, #0
    1542:	d023      	beq.n	158c <_vfprintf_r+0x1a0>
    1544:	2200      	movs	r2, #0
    1546:	4690      	mov	r8, r2
    1548:	687b      	ldr	r3, [r7, #4]
    154a:	a920      	add	r1, sp, #128	@ 0x80
    154c:	221b      	movs	r2, #27
    154e:	468c      	mov	ip, r1
    1550:	4462      	add	r2, ip
    1552:	6032      	str	r2, [r6, #0]
    1554:	2201      	movs	r2, #1
    1556:	3401      	adds	r4, #1
    1558:	3301      	adds	r3, #1
    155a:	6072      	str	r2, [r6, #4]
    155c:	60bc      	str	r4, [r7, #8]
    155e:	607b      	str	r3, [r7, #4]
    1560:	2b07      	cmp	r3, #7
    1562:	dd01      	ble.n	1568 <_vfprintf_r+0x17c>
    1564:	f000 fdc6 	bl	20f4 <_vfprintf_r+0xd08>
    1568:	3608      	adds	r6, #8
    156a:	4643      	mov	r3, r8
    156c:	2b00      	cmp	r3, #0
    156e:	d00d      	beq.n	158c <_vfprintf_r+0x1a0>
    1570:	687b      	ldr	r3, [r7, #4]
    1572:	aa27      	add	r2, sp, #156	@ 0x9c
    1574:	6032      	str	r2, [r6, #0]
    1576:	2202      	movs	r2, #2
    1578:	3402      	adds	r4, #2
    157a:	3301      	adds	r3, #1
    157c:	6072      	str	r2, [r6, #4]
    157e:	60bc      	str	r4, [r7, #8]
    1580:	607b      	str	r3, [r7, #4]
    1582:	2b07      	cmp	r3, #7
    1584:	dd01      	ble.n	158a <_vfprintf_r+0x19e>
    1586:	f000 fda9 	bl	20dc <_vfprintf_r+0xcf0>
    158a:	3608      	adds	r6, #8
    158c:	9b12      	ldr	r3, [sp, #72]	@ 0x48
    158e:	2b80      	cmp	r3, #128	@ 0x80
    1590:	d101      	bne.n	1596 <_vfprintf_r+0x1aa>
    1592:	f000 fc4e 	bl	1e32 <_vfprintf_r+0xa46>
    1596:	9b0a      	ldr	r3, [sp, #40]	@ 0x28
    1598:	9a0c      	ldr	r2, [sp, #48]	@ 0x30
    159a:	1a9b      	subs	r3, r3, r2
    159c:	4698      	mov	r8, r3
    159e:	2b00      	cmp	r3, #0
    15a0:	dd00      	ble.n	15a4 <_vfprintf_r+0x1b8>
    15a2:	e148      	b.n	1836 <_vfprintf_r+0x44a>
    15a4:	465b      	mov	r3, fp
    15a6:	05db      	lsls	r3, r3, #23
    15a8:	d500      	bpl.n	15ac <_vfprintf_r+0x1c0>
    15aa:	e182      	b.n	18b2 <_vfprintf_r+0x4c6>
    15ac:	9b0c      	ldr	r3, [sp, #48]	@ 0x30
    15ae:	6035      	str	r5, [r6, #0]
    15b0:	469c      	mov	ip, r3
    15b2:	6073      	str	r3, [r6, #4]
    15b4:	687b      	ldr	r3, [r7, #4]
    15b6:	4464      	add	r4, ip
    15b8:	3301      	adds	r3, #1
    15ba:	60bc      	str	r4, [r7, #8]
    15bc:	607b      	str	r3, [r7, #4]
    15be:	2b07      	cmp	r3, #7
    15c0:	dd00      	ble.n	15c4 <_vfprintf_r+0x1d8>
    15c2:	e09b      	b.n	16fc <_vfprintf_r+0x310>
    15c4:	3608      	adds	r6, #8
    15c6:	465b      	mov	r3, fp
    15c8:	075b      	lsls	r3, r3, #29
    15ca:	d506      	bpl.n	15da <_vfprintf_r+0x1ee>
    15cc:	9b0e      	ldr	r3, [sp, #56]	@ 0x38
    15ce:	9a09      	ldr	r2, [sp, #36]	@ 0x24
    15d0:	1a9d      	subs	r5, r3, r2
    15d2:	2d00      	cmp	r5, #0
    15d4:	dd01      	ble.n	15da <_vfprintf_r+0x1ee>
    15d6:	f000 fd99 	bl	210c <_vfprintf_r+0xd20>
    15da:	9b0e      	ldr	r3, [sp, #56]	@ 0x38
    15dc:	9a09      	ldr	r2, [sp, #36]	@ 0x24
    15de:	4293      	cmp	r3, r2
    15e0:	da00      	bge.n	15e4 <_vfprintf_r+0x1f8>
    15e2:	0013      	movs	r3, r2
    15e4:	9a0b      	ldr	r2, [sp, #44]	@ 0x2c
    15e6:	4694      	mov	ip, r2
    15e8:	449c      	add	ip, r3
    15ea:	4663      	mov	r3, ip
    15ec:	930b      	str	r3, [sp, #44]	@ 0x2c
    15ee:	2c00      	cmp	r4, #0
    15f0:	d001      	beq.n	15f6 <_vfprintf_r+0x20a>
    15f2:	f000 fc60 	bl	1eb6 <_vfprintf_r+0xaca>
    15f6:	2300      	movs	r3, #0
    15f8:	607b      	str	r3, [r7, #4]
    15fa:	9b0f      	ldr	r3, [sp, #60]	@ 0x3c
    15fc:	2b00      	cmp	r3, #0
    15fe:	d003      	beq.n	1608 <_vfprintf_r+0x21c>
    1600:	990f      	ldr	r1, [sp, #60]	@ 0x3c
    1602:	9807      	ldr	r0, [sp, #28]
    1604:	f7ff fafa 	bl	bfc <_free_r>
    1608:	9d06      	ldr	r5, [sp, #24]
    160a:	ae31      	add	r6, sp, #196	@ 0xc4
    160c:	782b      	ldrb	r3, [r5, #0]
    160e:	2b00      	cmp	r3, #0
    1610:	d000      	beq.n	1614 <_vfprintf_r+0x228>
    1612:	e74b      	b.n	14ac <_vfprintf_r+0xc0>
    1614:	9b08      	ldr	r3, [sp, #32]
    1616:	4698      	mov	r8, r3
    1618:	68bb      	ldr	r3, [r7, #8]
    161a:	2b00      	cmp	r3, #0
    161c:	d001      	beq.n	1622 <_vfprintf_r+0x236>
    161e:	f001 fa00 	bl	2a22 <_vfprintf_r+0x1636>
    1622:	2300      	movs	r3, #0
    1624:	607b      	str	r3, [r7, #4]
    1626:	f000 fc57 	bl	1ed8 <_vfprintf_r+0xaec>
    162a:	3b30      	subs	r3, #48	@ 0x30
    162c:	2000      	movs	r0, #0
    162e:	0019      	movs	r1, r3
    1630:	9a06      	ldr	r2, [sp, #24]
    1632:	0083      	lsls	r3, r0, #2
    1634:	181b      	adds	r3, r3, r0
    1636:	005b      	lsls	r3, r3, #1
    1638:	18c8      	adds	r0, r1, r3
    163a:	7813      	ldrb	r3, [r2, #0]
    163c:	3201      	adds	r2, #1
    163e:	0019      	movs	r1, r3
    1640:	3930      	subs	r1, #48	@ 0x30
    1642:	2909      	cmp	r1, #9
    1644:	d9f5      	bls.n	1632 <_vfprintf_r+0x246>
    1646:	900e      	str	r0, [sp, #56]	@ 0x38
    1648:	9206      	str	r2, [sp, #24]
    164a:	e752      	b.n	14f2 <_vfprintf_r+0x106>
    164c:	2207      	movs	r2, #7
    164e:	4699      	mov	r9, r3
    1650:	9b10      	ldr	r3, [sp, #64]	@ 0x40
    1652:	46a3      	mov	fp, r4
    1654:	3307      	adds	r3, #7
    1656:	4393      	bics	r3, r2
    1658:	001a      	movs	r2, r3
    165a:	ca18      	ldmia	r2!, {r3, r4}
    165c:	0019      	movs	r1, r3
    165e:	9210      	str	r2, [sp, #64]	@ 0x40
    1660:	0022      	movs	r2, r4
    1662:	9118      	str	r1, [sp, #96]	@ 0x60
    1664:	9219      	str	r2, [sp, #100]	@ 0x64
    1666:	2201      	movs	r2, #1
    1668:	9322      	str	r3, [sp, #136]	@ 0x88
    166a:	9b19      	ldr	r3, [sp, #100]	@ 0x64
    166c:	4252      	negs	r2, r2
    166e:	005b      	lsls	r3, r3, #1
    1670:	085b      	lsrs	r3, r3, #1
    1672:	9323      	str	r3, [sp, #140]	@ 0x8c
    1674:	9822      	ldr	r0, [sp, #136]	@ 0x88
    1676:	9923      	ldr	r1, [sp, #140]	@ 0x8c
    1678:	4b48      	ldr	r3, [pc, #288]	@ (179c <_vfprintf_r+0x3b0>)
    167a:	f007 fc77 	bl	8f6c <__aeabi_dcmpun>
    167e:	2800      	cmp	r0, #0
    1680:	d001      	beq.n	1686 <_vfprintf_r+0x29a>
    1682:	f000 fedf 	bl	2444 <_vfprintf_r+0x1058>
    1686:	9822      	ldr	r0, [sp, #136]	@ 0x88
    1688:	9923      	ldr	r1, [sp, #140]	@ 0x8c
    168a:	2201      	movs	r2, #1
    168c:	4b43      	ldr	r3, [pc, #268]	@ (179c <_vfprintf_r+0x3b0>)
    168e:	4252      	negs	r2, r2
    1690:	f7fe fdd2 	bl	238 <__aeabi_dcmple>
    1694:	2800      	cmp	r0, #0
    1696:	d001      	beq.n	169c <_vfprintf_r+0x2b0>
    1698:	f000 fed4 	bl	2444 <_vfprintf_r+0x1058>
    169c:	9818      	ldr	r0, [sp, #96]	@ 0x60
    169e:	9919      	ldr	r1, [sp, #100]	@ 0x64
    16a0:	2380      	movs	r3, #128	@ 0x80
    16a2:	465a      	mov	r2, fp
    16a4:	439a      	bics	r2, r3
    16a6:	4693      	mov	fp, r2
    16a8:	2300      	movs	r3, #0
    16aa:	2200      	movs	r2, #0
    16ac:	f7fe fdba 	bl	224 <__aeabi_dcmplt>
    16b0:	2800      	cmp	r0, #0
    16b2:	d001      	beq.n	16b8 <_vfprintf_r+0x2cc>
    16b4:	f001 fbda 	bl	2e6c <_vfprintf_r+0x1a80>
    16b8:	464a      	mov	r2, r9
    16ba:	ab20      	add	r3, sp, #128	@ 0x80
    16bc:	7edb      	ldrb	r3, [r3, #27]
    16be:	2a47      	cmp	r2, #71	@ 0x47
    16c0:	dc01      	bgt.n	16c6 <_vfprintf_r+0x2da>
    16c2:	f001 f9c1 	bl	2a48 <_vfprintf_r+0x165c>
    16c6:	4d36      	ldr	r5, [pc, #216]	@ (17a0 <_vfprintf_r+0x3b4>)
    16c8:	2b00      	cmp	r3, #0
    16ca:	d001      	beq.n	16d0 <_vfprintf_r+0x2e4>
    16cc:	f001 ff92 	bl	35f4 <_vfprintf_r+0x2208>
    16d0:	930f      	str	r3, [sp, #60]	@ 0x3c
    16d2:	3303      	adds	r3, #3
    16d4:	930c      	str	r3, [sp, #48]	@ 0x30
    16d6:	2300      	movs	r3, #0
    16d8:	930a      	str	r3, [sp, #40]	@ 0x28
    16da:	931a      	str	r3, [sp, #104]	@ 0x68
    16dc:	9315      	str	r3, [sp, #84]	@ 0x54
    16de:	9314      	str	r3, [sp, #80]	@ 0x50
    16e0:	3303      	adds	r3, #3
    16e2:	9309      	str	r3, [sp, #36]	@ 0x24
    16e4:	e721      	b.n	152a <_vfprintf_r+0x13e>
    16e6:	0014      	movs	r4, r2
    16e8:	9a12      	ldr	r2, [sp, #72]	@ 0x48
    16ea:	1964      	adds	r4, r4, r5
    16ec:	3301      	adds	r3, #1
    16ee:	6032      	str	r2, [r6, #0]
    16f0:	6075      	str	r5, [r6, #4]
    16f2:	60bc      	str	r4, [r7, #8]
    16f4:	607b      	str	r3, [r7, #4]
    16f6:	2b07      	cmp	r3, #7
    16f8:	dc00      	bgt.n	16fc <_vfprintf_r+0x310>
    16fa:	e763      	b.n	15c4 <_vfprintf_r+0x1d8>
    16fc:	003a      	movs	r2, r7
    16fe:	9908      	ldr	r1, [sp, #32]
    1700:	9807      	ldr	r0, [sp, #28]
    1702:	f002 f89b 	bl	383c <__sprint_r>
    1706:	2800      	cmp	r0, #0
    1708:	d000      	beq.n	170c <_vfprintf_r+0x320>
    170a:	e3dd      	b.n	1ec8 <_vfprintf_r+0xadc>
    170c:	68bc      	ldr	r4, [r7, #8]
    170e:	ae31      	add	r6, sp, #196	@ 0xc4
    1710:	e759      	b.n	15c6 <_vfprintf_r+0x1da>
    1712:	9b06      	ldr	r3, [sp, #24]
    1714:	781b      	ldrb	r3, [r3, #0]
    1716:	e6e9      	b.n	14ec <_vfprintf_r+0x100>
    1718:	2320      	movs	r3, #32
    171a:	431c      	orrs	r4, r3
    171c:	9b06      	ldr	r3, [sp, #24]
    171e:	781b      	ldrb	r3, [r3, #0]
    1720:	e6e4      	b.n	14ec <_vfprintf_r+0x100>
    1722:	4699      	mov	r9, r3
    1724:	0023      	movs	r3, r4
    1726:	46a3      	mov	fp, r4
    1728:	069b      	lsls	r3, r3, #26
    172a:	d401      	bmi.n	1730 <_vfprintf_r+0x344>
    172c:	f000 ff0b 	bl	2546 <_vfprintf_r+0x115a>
    1730:	2307      	movs	r3, #7
    1732:	9a10      	ldr	r2, [sp, #64]	@ 0x40
    1734:	3207      	adds	r2, #7
    1736:	439a      	bics	r2, r3
    1738:	3301      	adds	r3, #1
    173a:	469c      	mov	ip, r3
    173c:	4494      	add	ip, r2
    173e:	4663      	mov	r3, ip
    1740:	9310      	str	r3, [sp, #64]	@ 0x40
    1742:	ca0c      	ldmia	r2, {r2, r3}
    1744:	9216      	str	r2, [sp, #88]	@ 0x58
    1746:	9317      	str	r3, [sp, #92]	@ 0x5c
    1748:	2b00      	cmp	r3, #0
    174a:	da00      	bge.n	174e <_vfprintf_r+0x362>
    174c:	e257      	b.n	1bfe <_vfprintf_r+0x812>
    174e:	990a      	ldr	r1, [sp, #40]	@ 0x28
    1750:	2900      	cmp	r1, #0
    1752:	da00      	bge.n	1756 <_vfprintf_r+0x36a>
    1754:	e123      	b.n	199e <_vfprintf_r+0x5b2>
    1756:	2380      	movs	r3, #128	@ 0x80
    1758:	465a      	mov	r2, fp
    175a:	439a      	bics	r2, r3
    175c:	4693      	mov	fp, r2
    175e:	9a16      	ldr	r2, [sp, #88]	@ 0x58
    1760:	9b17      	ldr	r3, [sp, #92]	@ 0x5c
    1762:	0010      	movs	r0, r2
    1764:	4318      	orrs	r0, r3
    1766:	d000      	beq.n	176a <_vfprintf_r+0x37e>
    1768:	e119      	b.n	199e <_vfprintf_r+0x5b2>
    176a:	2900      	cmp	r1, #0
    176c:	d101      	bne.n	1772 <_vfprintf_r+0x386>
    176e:	f001 f963 	bl	2a38 <_vfprintf_r+0x164c>
    1772:	2330      	movs	r3, #48	@ 0x30
    1774:	e11e      	b.n	19b4 <_vfprintf_r+0x5c8>
    1776:	4699      	mov	r9, r3
    1778:	9b10      	ldr	r3, [sp, #64]	@ 0x40
    177a:	ad41      	add	r5, sp, #260	@ 0x104
    177c:	cb04      	ldmia	r3!, {r2}
    177e:	a920      	add	r1, sp, #128	@ 0x80
    1780:	702a      	strb	r2, [r5, #0]
    1782:	2200      	movs	r2, #0
    1784:	9310      	str	r3, [sp, #64]	@ 0x40
    1786:	46a3      	mov	fp, r4
    1788:	2300      	movs	r3, #0
    178a:	76ca      	strb	r2, [r1, #27]
    178c:	e6c3      	b.n	1516 <_vfprintf_r+0x12a>
    178e:	46c0      	nop			@ (mov r8, r8)
    1790:	ffffdfff 	.word	0xffffdfff
    1794:	0000922c 	.word	0x0000922c
    1798:	00009430 	.word	0x00009430
    179c:	7fefffff 	.word	0x7fefffff
    17a0:	000090f0 	.word	0x000090f0
    17a4:	4699      	mov	r9, r3
    17a6:	2300      	movs	r3, #0
    17a8:	46a3      	mov	fp, r4
    17aa:	9c10      	ldr	r4, [sp, #64]	@ 0x40
    17ac:	aa20      	add	r2, sp, #128	@ 0x80
    17ae:	cc20      	ldmia	r4!, {r5}
    17b0:	76d3      	strb	r3, [r2, #27]
    17b2:	9b0a      	ldr	r3, [sp, #40]	@ 0x28
    17b4:	2d00      	cmp	r5, #0
    17b6:	d101      	bne.n	17bc <_vfprintf_r+0x3d0>
    17b8:	f000 ffa3 	bl	2702 <_vfprintf_r+0x1316>
    17bc:	2b00      	cmp	r3, #0
    17be:	da01      	bge.n	17c4 <_vfprintf_r+0x3d8>
    17c0:	f001 f897 	bl	28f2 <_vfprintf_r+0x1506>
    17c4:	001a      	movs	r2, r3
    17c6:	2100      	movs	r1, #0
    17c8:	0028      	movs	r0, r5
    17ca:	f002 fe21 	bl	4410 <memchr>
    17ce:	aa20      	add	r2, sp, #128	@ 0x80
    17d0:	7ed2      	ldrb	r2, [r2, #27]
    17d2:	900f      	str	r0, [sp, #60]	@ 0x3c
    17d4:	2800      	cmp	r0, #0
    17d6:	d101      	bne.n	17dc <_vfprintf_r+0x3f0>
    17d8:	f001 fd14 	bl	3204 <_vfprintf_r+0x1e18>
    17dc:	1b41      	subs	r1, r0, r5
    17de:	43cb      	mvns	r3, r1
    17e0:	17db      	asrs	r3, r3, #31
    17e2:	910c      	str	r1, [sp, #48]	@ 0x30
    17e4:	4019      	ands	r1, r3
    17e6:	9109      	str	r1, [sp, #36]	@ 0x24
    17e8:	2a00      	cmp	r2, #0
    17ea:	d001      	beq.n	17f0 <_vfprintf_r+0x404>
    17ec:	3101      	adds	r1, #1
    17ee:	9109      	str	r1, [sp, #36]	@ 0x24
    17f0:	2300      	movs	r3, #0
    17f2:	465a      	mov	r2, fp
    17f4:	930f      	str	r3, [sp, #60]	@ 0x3c
    17f6:	930a      	str	r3, [sp, #40]	@ 0x28
    17f8:	931a      	str	r3, [sp, #104]	@ 0x68
    17fa:	9315      	str	r3, [sp, #84]	@ 0x54
    17fc:	9314      	str	r3, [sp, #80]	@ 0x50
    17fe:	2384      	movs	r3, #132	@ 0x84
    1800:	401a      	ands	r2, r3
    1802:	9212      	str	r2, [sp, #72]	@ 0x48
    1804:	465a      	mov	r2, fp
    1806:	9410      	str	r4, [sp, #64]	@ 0x40
    1808:	68bc      	ldr	r4, [r7, #8]
    180a:	4213      	tst	r3, r2
    180c:	d000      	beq.n	1810 <_vfprintf_r+0x424>
    180e:	e695      	b.n	153c <_vfprintf_r+0x150>
    1810:	9b0e      	ldr	r3, [sp, #56]	@ 0x38
    1812:	9a09      	ldr	r2, [sp, #36]	@ 0x24
    1814:	1a9b      	subs	r3, r3, r2
    1816:	4698      	mov	r8, r3
    1818:	2b00      	cmp	r3, #0
    181a:	dd00      	ble.n	181e <_vfprintf_r+0x432>
    181c:	e3d6      	b.n	1fcc <_vfprintf_r+0xbe0>
    181e:	ab20      	add	r3, sp, #128	@ 0x80
    1820:	7edb      	ldrb	r3, [r3, #27]
    1822:	2b00      	cmp	r3, #0
    1824:	d000      	beq.n	1828 <_vfprintf_r+0x43c>
    1826:	e68d      	b.n	1544 <_vfprintf_r+0x158>
    1828:	9b0a      	ldr	r3, [sp, #40]	@ 0x28
    182a:	9a0c      	ldr	r2, [sp, #48]	@ 0x30
    182c:	1a9b      	subs	r3, r3, r2
    182e:	4698      	mov	r8, r3
    1830:	2b00      	cmp	r3, #0
    1832:	dc00      	bgt.n	1836 <_vfprintf_r+0x44a>
    1834:	e6b6      	b.n	15a4 <_vfprintf_r+0x1b8>
    1836:	4642      	mov	r2, r8
    1838:	687b      	ldr	r3, [r7, #4]
    183a:	2a10      	cmp	r2, #16
    183c:	dc01      	bgt.n	1842 <_vfprintf_r+0x456>
    183e:	f001 f8ec 	bl	2a1a <_vfprintf_r+0x162e>
    1842:	2210      	movs	r2, #16
    1844:	991e      	ldr	r1, [sp, #120]	@ 0x78
    1846:	4692      	mov	sl, r2
    1848:	9112      	str	r1, [sp, #72]	@ 0x48
    184a:	0022      	movs	r2, r4
    184c:	4644      	mov	r4, r8
    184e:	46a8      	mov	r8, r5
    1850:	000d      	movs	r5, r1
    1852:	e003      	b.n	185c <_vfprintf_r+0x470>
    1854:	3c10      	subs	r4, #16
    1856:	3608      	adds	r6, #8
    1858:	2c10      	cmp	r4, #16
    185a:	dd16      	ble.n	188a <_vfprintf_r+0x49e>
    185c:	4651      	mov	r1, sl
    185e:	3210      	adds	r2, #16
    1860:	3301      	adds	r3, #1
    1862:	6035      	str	r5, [r6, #0]
    1864:	6071      	str	r1, [r6, #4]
    1866:	60ba      	str	r2, [r7, #8]
    1868:	607b      	str	r3, [r7, #4]
    186a:	2b07      	cmp	r3, #7
    186c:	ddf2      	ble.n	1854 <_vfprintf_r+0x468>
    186e:	003a      	movs	r2, r7
    1870:	9908      	ldr	r1, [sp, #32]
    1872:	9807      	ldr	r0, [sp, #28]
    1874:	f001 ffe2 	bl	383c <__sprint_r>
    1878:	2800      	cmp	r0, #0
    187a:	d000      	beq.n	187e <_vfprintf_r+0x492>
    187c:	e324      	b.n	1ec8 <_vfprintf_r+0xadc>
    187e:	3c10      	subs	r4, #16
    1880:	68ba      	ldr	r2, [r7, #8]
    1882:	687b      	ldr	r3, [r7, #4]
    1884:	ae31      	add	r6, sp, #196	@ 0xc4
    1886:	2c10      	cmp	r4, #16
    1888:	dce8      	bgt.n	185c <_vfprintf_r+0x470>
    188a:	4645      	mov	r5, r8
    188c:	46a0      	mov	r8, r4
    188e:	0014      	movs	r4, r2
    1890:	9a12      	ldr	r2, [sp, #72]	@ 0x48
    1892:	4444      	add	r4, r8
    1894:	6032      	str	r2, [r6, #0]
    1896:	4642      	mov	r2, r8
    1898:	3301      	adds	r3, #1
    189a:	6072      	str	r2, [r6, #4]
    189c:	60bc      	str	r4, [r7, #8]
    189e:	607b      	str	r3, [r7, #4]
    18a0:	2b07      	cmp	r3, #7
    18a2:	dd01      	ble.n	18a8 <_vfprintf_r+0x4bc>
    18a4:	f000 fd66 	bl	2374 <_vfprintf_r+0xf88>
    18a8:	465b      	mov	r3, fp
    18aa:	3608      	adds	r6, #8
    18ac:	05db      	lsls	r3, r3, #23
    18ae:	d400      	bmi.n	18b2 <_vfprintf_r+0x4c6>
    18b0:	e67c      	b.n	15ac <_vfprintf_r+0x1c0>
    18b2:	464b      	mov	r3, r9
    18b4:	2b65      	cmp	r3, #101	@ 0x65
    18b6:	dc00      	bgt.n	18ba <_vfprintf_r+0x4ce>
    18b8:	e324      	b.n	1f04 <_vfprintf_r+0xb18>
    18ba:	9818      	ldr	r0, [sp, #96]	@ 0x60
    18bc:	9919      	ldr	r1, [sp, #100]	@ 0x64
    18be:	2200      	movs	r2, #0
    18c0:	2300      	movs	r3, #0
    18c2:	f7fe fca9 	bl	218 <__aeabi_dcmpeq>
    18c6:	2800      	cmp	r0, #0
    18c8:	d101      	bne.n	18ce <_vfprintf_r+0x4e2>
    18ca:	f000 fc5d 	bl	2188 <_vfprintf_r+0xd9c>
    18ce:	4bde      	ldr	r3, [pc, #888]	@ (1c48 <_vfprintf_r+0x85c>)
    18d0:	3401      	adds	r4, #1
    18d2:	6033      	str	r3, [r6, #0]
    18d4:	2301      	movs	r3, #1
    18d6:	6073      	str	r3, [r6, #4]
    18d8:	687b      	ldr	r3, [r7, #4]
    18da:	60bc      	str	r4, [r7, #8]
    18dc:	3301      	adds	r3, #1
    18de:	607b      	str	r3, [r7, #4]
    18e0:	2b07      	cmp	r3, #7
    18e2:	dd01      	ble.n	18e8 <_vfprintf_r+0x4fc>
    18e4:	f000 ffc2 	bl	286c <_vfprintf_r+0x1480>
    18e8:	3608      	adds	r6, #8
    18ea:	9b28      	ldr	r3, [sp, #160]	@ 0xa0
    18ec:	9a11      	ldr	r2, [sp, #68]	@ 0x44
    18ee:	4293      	cmp	r3, r2
    18f0:	db01      	blt.n	18f6 <_vfprintf_r+0x50a>
    18f2:	f000 fd51 	bl	2398 <_vfprintf_r+0xfac>
    18f6:	9b1c      	ldr	r3, [sp, #112]	@ 0x70
    18f8:	6033      	str	r3, [r6, #0]
    18fa:	9b1b      	ldr	r3, [sp, #108]	@ 0x6c
    18fc:	469c      	mov	ip, r3
    18fe:	6073      	str	r3, [r6, #4]
    1900:	687b      	ldr	r3, [r7, #4]
    1902:	4464      	add	r4, ip
    1904:	3301      	adds	r3, #1
    1906:	60bc      	str	r4, [r7, #8]
    1908:	607b      	str	r3, [r7, #4]
    190a:	2b07      	cmp	r3, #7
    190c:	dd01      	ble.n	1912 <_vfprintf_r+0x526>
    190e:	f000 fee0 	bl	26d2 <_vfprintf_r+0x12e6>
    1912:	3608      	adds	r6, #8
    1914:	9b11      	ldr	r3, [sp, #68]	@ 0x44
    1916:	1e5d      	subs	r5, r3, #1
    1918:	2d00      	cmp	r5, #0
    191a:	dc00      	bgt.n	191e <_vfprintf_r+0x532>
    191c:	e653      	b.n	15c6 <_vfprintf_r+0x1da>
    191e:	687b      	ldr	r3, [r7, #4]
    1920:	2d10      	cmp	r5, #16
    1922:	dc01      	bgt.n	1928 <_vfprintf_r+0x53c>
    1924:	f001 feba 	bl	369c <_vfprintf_r+0x22b0>
    1928:	2210      	movs	r2, #16
    192a:	49c8      	ldr	r1, [pc, #800]	@ (1c4c <_vfprintf_r+0x860>)
    192c:	4690      	mov	r8, r2
    192e:	9112      	str	r1, [sp, #72]	@ 0x48
    1930:	0022      	movs	r2, r4
    1932:	000c      	movs	r4, r1
    1934:	e004      	b.n	1940 <_vfprintf_r+0x554>
    1936:	3608      	adds	r6, #8
    1938:	3d10      	subs	r5, #16
    193a:	2d10      	cmp	r5, #16
    193c:	dc00      	bgt.n	1940 <_vfprintf_r+0x554>
    193e:	e6d2      	b.n	16e6 <_vfprintf_r+0x2fa>
    1940:	4641      	mov	r1, r8
    1942:	3210      	adds	r2, #16
    1944:	3301      	adds	r3, #1
    1946:	6034      	str	r4, [r6, #0]
    1948:	6071      	str	r1, [r6, #4]
    194a:	60ba      	str	r2, [r7, #8]
    194c:	607b      	str	r3, [r7, #4]
    194e:	2b07      	cmp	r3, #7
    1950:	ddf1      	ble.n	1936 <_vfprintf_r+0x54a>
    1952:	003a      	movs	r2, r7
    1954:	9908      	ldr	r1, [sp, #32]
    1956:	9807      	ldr	r0, [sp, #28]
    1958:	f001 ff70 	bl	383c <__sprint_r>
    195c:	2800      	cmp	r0, #0
    195e:	d000      	beq.n	1962 <_vfprintf_r+0x576>
    1960:	e2b2      	b.n	1ec8 <_vfprintf_r+0xadc>
    1962:	68ba      	ldr	r2, [r7, #8]
    1964:	687b      	ldr	r3, [r7, #4]
    1966:	ae31      	add	r6, sp, #196	@ 0xc4
    1968:	e7e6      	b.n	1938 <_vfprintf_r+0x54c>
    196a:	4699      	mov	r9, r3
    196c:	2010      	movs	r0, #16
    196e:	0023      	movs	r3, r4
    1970:	4320      	orrs	r0, r4
    1972:	069b      	lsls	r3, r3, #26
    1974:	d401      	bmi.n	197a <_vfprintf_r+0x58e>
    1976:	f000 fdc2 	bl	24fe <_vfprintf_r+0x1112>
    197a:	2207      	movs	r2, #7
    197c:	9b10      	ldr	r3, [sp, #64]	@ 0x40
    197e:	3307      	adds	r3, #7
    1980:	4393      	bics	r3, r2
    1982:	001a      	movs	r2, r3
    1984:	ca18      	ldmia	r2!, {r3, r4}
    1986:	9316      	str	r3, [sp, #88]	@ 0x58
    1988:	9417      	str	r4, [sp, #92]	@ 0x5c
    198a:	2300      	movs	r3, #0
    198c:	9210      	str	r2, [sp, #64]	@ 0x40
    198e:	aa20      	add	r2, sp, #128	@ 0x80
    1990:	76d3      	strb	r3, [r2, #27]
    1992:	9b0a      	ldr	r3, [sp, #40]	@ 0x28
    1994:	2b00      	cmp	r3, #0
    1996:	db01      	blt.n	199c <_vfprintf_r+0x5b0>
    1998:	f000 fd05 	bl	23a6 <_vfprintf_r+0xfba>
    199c:	4683      	mov	fp, r0
    199e:	9b16      	ldr	r3, [sp, #88]	@ 0x58
    19a0:	9c17      	ldr	r4, [sp, #92]	@ 0x5c
    19a2:	2c00      	cmp	r4, #0
    19a4:	d000      	beq.n	19a8 <_vfprintf_r+0x5bc>
    19a6:	e141      	b.n	1c2c <_vfprintf_r+0x840>
    19a8:	2b09      	cmp	r3, #9
    19aa:	d900      	bls.n	19ae <_vfprintf_r+0x5c2>
    19ac:	e13e      	b.n	1c2c <_vfprintf_r+0x840>
    19ae:	9b16      	ldr	r3, [sp, #88]	@ 0x58
    19b0:	3330      	adds	r3, #48	@ 0x30
    19b2:	b2db      	uxtb	r3, r3
    19b4:	2084      	movs	r0, #132	@ 0x84
    19b6:	2263      	movs	r2, #99	@ 0x63
    19b8:	a920      	add	r1, sp, #128	@ 0x80
    19ba:	1809      	adds	r1, r1, r0
    19bc:	548b      	strb	r3, [r1, r2]
    19be:	9b0a      	ldr	r3, [sp, #40]	@ 0x28
    19c0:	9309      	str	r3, [sp, #36]	@ 0x24
    19c2:	2b00      	cmp	r3, #0
    19c4:	dc01      	bgt.n	19ca <_vfprintf_r+0x5de>
    19c6:	2301      	movs	r3, #1
    19c8:	9309      	str	r3, [sp, #36]	@ 0x24
    19ca:	2201      	movs	r2, #1
    19cc:	920c      	str	r2, [sp, #48]	@ 0x30
    19ce:	aa20      	add	r2, sp, #128	@ 0x80
    19d0:	25e7      	movs	r5, #231	@ 0xe7
    19d2:	4694      	mov	ip, r2
    19d4:	ab20      	add	r3, sp, #128	@ 0x80
    19d6:	7edb      	ldrb	r3, [r3, #27]
    19d8:	4465      	add	r5, ip
    19da:	2b00      	cmp	r3, #0
    19dc:	d002      	beq.n	19e4 <_vfprintf_r+0x5f8>
    19de:	9b09      	ldr	r3, [sp, #36]	@ 0x24
    19e0:	3301      	adds	r3, #1
    19e2:	9309      	str	r3, [sp, #36]	@ 0x24
    19e4:	2300      	movs	r3, #0
    19e6:	930f      	str	r3, [sp, #60]	@ 0x3c
    19e8:	931a      	str	r3, [sp, #104]	@ 0x68
    19ea:	9315      	str	r3, [sp, #84]	@ 0x54
    19ec:	9314      	str	r3, [sp, #80]	@ 0x50
    19ee:	e59c      	b.n	152a <_vfprintf_r+0x13e>
    19f0:	9a10      	ldr	r2, [sp, #64]	@ 0x40
    19f2:	ca08      	ldmia	r2!, {r3}
    19f4:	930e      	str	r3, [sp, #56]	@ 0x38
    19f6:	2b00      	cmp	r3, #0
    19f8:	db01      	blt.n	19fe <_vfprintf_r+0x612>
    19fa:	f000 fce8 	bl	23ce <_vfprintf_r+0xfe2>
    19fe:	9b0e      	ldr	r3, [sp, #56]	@ 0x38
    1a00:	9210      	str	r2, [sp, #64]	@ 0x40
    1a02:	425b      	negs	r3, r3
    1a04:	930e      	str	r3, [sp, #56]	@ 0x38
    1a06:	2304      	movs	r3, #4
    1a08:	431c      	orrs	r4, r3
    1a0a:	9b06      	ldr	r3, [sp, #24]
    1a0c:	781b      	ldrb	r3, [r3, #0]
    1a0e:	e56d      	b.n	14ec <_vfprintf_r+0x100>
    1a10:	4699      	mov	r9, r3
    1a12:	2010      	movs	r0, #16
    1a14:	0023      	movs	r3, r4
    1a16:	4320      	orrs	r0, r4
    1a18:	069b      	lsls	r3, r3, #26
    1a1a:	d401      	bmi.n	1a20 <_vfprintf_r+0x634>
    1a1c:	f000 fd56 	bl	24cc <_vfprintf_r+0x10e0>
    1a20:	2307      	movs	r3, #7
    1a22:	9a10      	ldr	r2, [sp, #64]	@ 0x40
    1a24:	3207      	adds	r2, #7
    1a26:	439a      	bics	r2, r3
    1a28:	3301      	adds	r3, #1
    1a2a:	469c      	mov	ip, r3
    1a2c:	4494      	add	ip, r2
    1a2e:	4663      	mov	r3, ip
    1a30:	9310      	str	r3, [sp, #64]	@ 0x40
    1a32:	6813      	ldr	r3, [r2, #0]
    1a34:	6852      	ldr	r2, [r2, #4]
    1a36:	2100      	movs	r1, #0
    1a38:	ac20      	add	r4, sp, #128	@ 0x80
    1a3a:	76e1      	strb	r1, [r4, #27]
    1a3c:	990a      	ldr	r1, [sp, #40]	@ 0x28
    1a3e:	2900      	cmp	r1, #0
    1a40:	db21      	blt.n	1a86 <_vfprintf_r+0x69a>
    1a42:	4983      	ldr	r1, [pc, #524]	@ (1c50 <_vfprintf_r+0x864>)
    1a44:	4001      	ands	r1, r0
    1a46:	468b      	mov	fp, r1
    1a48:	0019      	movs	r1, r3
    1a4a:	4311      	orrs	r1, r2
    1a4c:	d11e      	bne.n	1a8c <_vfprintf_r+0x6a0>
    1a4e:	990a      	ldr	r1, [sp, #40]	@ 0x28
    1a50:	2900      	cmp	r1, #0
    1a52:	d11b      	bne.n	1a8c <_vfprintf_r+0x6a0>
    1a54:	2301      	movs	r3, #1
    1a56:	0019      	movs	r1, r3
    1a58:	4001      	ands	r1, r0
    1a5a:	9109      	str	r1, [sp, #36]	@ 0x24
    1a5c:	4203      	tst	r3, r0
    1a5e:	d101      	bne.n	1a64 <_vfprintf_r+0x678>
    1a60:	f000 fed5 	bl	280e <_vfprintf_r+0x1422>
    1a64:	2484      	movs	r4, #132	@ 0x84
    1a66:	2230      	movs	r2, #48	@ 0x30
    1a68:	a820      	add	r0, sp, #128	@ 0x80
    1a6a:	3362      	adds	r3, #98	@ 0x62
    1a6c:	1900      	adds	r0, r0, r4
    1a6e:	54c2      	strb	r2, [r0, r3]
    1a70:	2300      	movs	r3, #0
    1a72:	931a      	str	r3, [sp, #104]	@ 0x68
    1a74:	9315      	str	r3, [sp, #84]	@ 0x54
    1a76:	9314      	str	r3, [sp, #80]	@ 0x50
    1a78:	930f      	str	r3, [sp, #60]	@ 0x3c
    1a7a:	ab20      	add	r3, sp, #128	@ 0x80
    1a7c:	25e7      	movs	r5, #231	@ 0xe7
    1a7e:	469c      	mov	ip, r3
    1a80:	910c      	str	r1, [sp, #48]	@ 0x30
    1a82:	4465      	add	r5, ip
    1a84:	e551      	b.n	152a <_vfprintf_r+0x13e>
    1a86:	4973      	ldr	r1, [pc, #460]	@ (1c54 <_vfprintf_r+0x868>)
    1a88:	4008      	ands	r0, r1
    1a8a:	4683      	mov	fp, r0
    1a8c:	2107      	movs	r1, #7
    1a8e:	468c      	mov	ip, r1
    1a90:	ad5a      	add	r5, sp, #360	@ 0x168
    1a92:	4661      	mov	r1, ip
    1a94:	0750      	lsls	r0, r2, #29
    1a96:	4019      	ands	r1, r3
    1a98:	08db      	lsrs	r3, r3, #3
    1a9a:	4303      	orrs	r3, r0
    1a9c:	0018      	movs	r0, r3
    1a9e:	002c      	movs	r4, r5
    1aa0:	3130      	adds	r1, #48	@ 0x30
    1aa2:	3d01      	subs	r5, #1
    1aa4:	08d2      	lsrs	r2, r2, #3
    1aa6:	7029      	strb	r1, [r5, #0]
    1aa8:	4310      	orrs	r0, r2
    1aaa:	d1f2      	bne.n	1a92 <_vfprintf_r+0x6a6>
    1aac:	2301      	movs	r3, #1
    1aae:	465a      	mov	r2, fp
    1ab0:	401a      	ands	r2, r3
    1ab2:	9214      	str	r2, [sp, #80]	@ 0x50
    1ab4:	465a      	mov	r2, fp
    1ab6:	4213      	tst	r3, r2
    1ab8:	d001      	beq.n	1abe <_vfprintf_r+0x6d2>
    1aba:	f000 fc20 	bl	22fe <_vfprintf_r+0xf12>
    1abe:	9a0a      	ldr	r2, [sp, #40]	@ 0x28
    1ac0:	ab5a      	add	r3, sp, #360	@ 0x168
    1ac2:	1b5b      	subs	r3, r3, r5
    1ac4:	930c      	str	r3, [sp, #48]	@ 0x30
    1ac6:	9209      	str	r2, [sp, #36]	@ 0x24
    1ac8:	429a      	cmp	r2, r3
    1aca:	da01      	bge.n	1ad0 <_vfprintf_r+0x6e4>
    1acc:	f000 fcb3 	bl	2436 <_vfprintf_r+0x104a>
    1ad0:	2300      	movs	r3, #0
    1ad2:	931a      	str	r3, [sp, #104]	@ 0x68
    1ad4:	9315      	str	r3, [sp, #84]	@ 0x54
    1ad6:	930f      	str	r3, [sp, #60]	@ 0x3c
    1ad8:	e527      	b.n	152a <_vfprintf_r+0x13e>
    1ada:	2308      	movs	r3, #8
    1adc:	431c      	orrs	r4, r3
    1ade:	9b06      	ldr	r3, [sp, #24]
    1ae0:	781b      	ldrb	r3, [r3, #0]
    1ae2:	e503      	b.n	14ec <_vfprintf_r+0x100>
    1ae4:	9b06      	ldr	r3, [sp, #24]
    1ae6:	781b      	ldrb	r3, [r3, #0]
    1ae8:	2b6c      	cmp	r3, #108	@ 0x6c
    1aea:	d101      	bne.n	1af0 <_vfprintf_r+0x704>
    1aec:	f000 fe07 	bl	26fe <_vfprintf_r+0x1312>
    1af0:	2210      	movs	r2, #16
    1af2:	4314      	orrs	r4, r2
    1af4:	e4fa      	b.n	14ec <_vfprintf_r+0x100>
    1af6:	9b06      	ldr	r3, [sp, #24]
    1af8:	781b      	ldrb	r3, [r3, #0]
    1afa:	2b68      	cmp	r3, #104	@ 0x68
    1afc:	d101      	bne.n	1b02 <_vfprintf_r+0x716>
    1afe:	f000 fdf5 	bl	26ec <_vfprintf_r+0x1300>
    1b02:	2240      	movs	r2, #64	@ 0x40
    1b04:	4314      	orrs	r4, r2
    1b06:	e4f1      	b.n	14ec <_vfprintf_r+0x100>
    1b08:	2200      	movs	r2, #0
    1b0a:	9910      	ldr	r1, [sp, #64]	@ 0x40
    1b0c:	4852      	ldr	r0, [pc, #328]	@ (1c58 <_vfprintf_r+0x86c>)
    1b0e:	9d0a      	ldr	r5, [sp, #40]	@ 0x28
    1b10:	46a3      	mov	fp, r4
    1b12:	ac20      	add	r4, sp, #128	@ 0x80
    1b14:	c908      	ldmia	r1!, {r3}
    1b16:	83a0      	strh	r0, [r4, #28]
    1b18:	76e2      	strb	r2, [r4, #27]
    1b1a:	2d00      	cmp	r5, #0
    1b1c:	da01      	bge.n	1b22 <_vfprintf_r+0x736>
    1b1e:	f000 fd2b 	bl	2578 <_vfprintf_r+0x118c>
    1b22:	2080      	movs	r0, #128	@ 0x80
    1b24:	465c      	mov	r4, fp
    1b26:	4384      	bics	r4, r0
    1b28:	387e      	subs	r0, #126	@ 0x7e
    1b2a:	4304      	orrs	r4, r0
    1b2c:	46a3      	mov	fp, r4
    1b2e:	2b00      	cmp	r3, #0
    1b30:	d001      	beq.n	1b36 <_vfprintf_r+0x74a>
    1b32:	f000 feb2 	bl	289a <_vfprintf_r+0x14ae>
    1b36:	2d00      	cmp	r5, #0
    1b38:	d101      	bne.n	1b3e <_vfprintf_r+0x752>
    1b3a:	f000 ff88 	bl	2a4e <_vfprintf_r+0x1662>
    1b3e:	2484      	movs	r4, #132	@ 0x84
    1b40:	a820      	add	r0, sp, #128	@ 0x80
    1b42:	3363      	adds	r3, #99	@ 0x63
    1b44:	3230      	adds	r2, #48	@ 0x30
    1b46:	1900      	adds	r0, r0, r4
    1b48:	54c2      	strb	r2, [r0, r3]
    1b4a:	ab20      	add	r3, sp, #128	@ 0x80
    1b4c:	469c      	mov	ip, r3
    1b4e:	2300      	movs	r3, #0
    1b50:	9314      	str	r3, [sp, #80]	@ 0x50
    1b52:	3378      	adds	r3, #120	@ 0x78
    1b54:	4699      	mov	r9, r3
    1b56:	2300      	movs	r3, #0
    1b58:	9509      	str	r5, [sp, #36]	@ 0x24
    1b5a:	25e7      	movs	r5, #231	@ 0xe7
    1b5c:	931a      	str	r3, [sp, #104]	@ 0x68
    1b5e:	9315      	str	r3, [sp, #84]	@ 0x54
    1b60:	930f      	str	r3, [sp, #60]	@ 0x3c
    1b62:	3301      	adds	r3, #1
    1b64:	9110      	str	r1, [sp, #64]	@ 0x40
    1b66:	4465      	add	r5, ip
    1b68:	2100      	movs	r1, #0
    1b6a:	930c      	str	r3, [sp, #48]	@ 0x30
    1b6c:	f000 fd44 	bl	25f8 <_vfprintf_r+0x120c>
    1b70:	4699      	mov	r9, r3
    1b72:	0023      	movs	r3, r4
    1b74:	069b      	lsls	r3, r3, #26
    1b76:	d501      	bpl.n	1b7c <_vfprintf_r+0x790>
    1b78:	f000 fcb8 	bl	24ec <_vfprintf_r+0x1100>
    1b7c:	0022      	movs	r2, r4
    1b7e:	9910      	ldr	r1, [sp, #64]	@ 0x40
    1b80:	c908      	ldmia	r1!, {r3}
    1b82:	06d2      	lsls	r2, r2, #27
    1b84:	d501      	bpl.n	1b8a <_vfprintf_r+0x79e>
    1b86:	f001 fbee 	bl	3366 <_vfprintf_r+0x1f7a>
    1b8a:	0022      	movs	r2, r4
    1b8c:	0652      	lsls	r2, r2, #25
    1b8e:	d401      	bmi.n	1b94 <_vfprintf_r+0x7a8>
    1b90:	f000 ff30 	bl	29f4 <_vfprintf_r+0x1608>
    1b94:	2200      	movs	r2, #0
    1b96:	0020      	movs	r0, r4
    1b98:	b29b      	uxth	r3, r3
    1b9a:	9110      	str	r1, [sp, #64]	@ 0x40
    1b9c:	e74b      	b.n	1a36 <_vfprintf_r+0x64a>
    1b9e:	0022      	movs	r2, r4
    1ba0:	9910      	ldr	r1, [sp, #64]	@ 0x40
    1ba2:	1d0b      	adds	r3, r1, #4
    1ba4:	0692      	lsls	r2, r2, #26
    1ba6:	d501      	bpl.n	1bac <_vfprintf_r+0x7c0>
    1ba8:	f000 fc98 	bl	24dc <_vfprintf_r+0x10f0>
    1bac:	0022      	movs	r2, r4
    1bae:	06d2      	lsls	r2, r2, #27
    1bb0:	d501      	bpl.n	1bb6 <_vfprintf_r+0x7ca>
    1bb2:	f000 fe68 	bl	2886 <_vfprintf_r+0x149a>
    1bb6:	0022      	movs	r2, r4
    1bb8:	0652      	lsls	r2, r2, #25
    1bba:	d501      	bpl.n	1bc0 <_vfprintf_r+0x7d4>
    1bbc:	f000 ff67 	bl	2a8e <_vfprintf_r+0x16a2>
    1bc0:	0022      	movs	r2, r4
    1bc2:	0592      	lsls	r2, r2, #22
    1bc4:	d401      	bmi.n	1bca <_vfprintf_r+0x7de>
    1bc6:	f000 fe5e 	bl	2886 <_vfprintf_r+0x149a>
    1bca:	9a10      	ldr	r2, [sp, #64]	@ 0x40
    1bcc:	990b      	ldr	r1, [sp, #44]	@ 0x2c
    1bce:	6812      	ldr	r2, [r2, #0]
    1bd0:	9310      	str	r3, [sp, #64]	@ 0x40
    1bd2:	7011      	strb	r1, [r2, #0]
    1bd4:	9d06      	ldr	r5, [sp, #24]
    1bd6:	e519      	b.n	160c <_vfprintf_r+0x220>
    1bd8:	4699      	mov	r9, r3
    1bda:	2210      	movs	r2, #16
    1bdc:	0023      	movs	r3, r4
    1bde:	4322      	orrs	r2, r4
    1be0:	069b      	lsls	r3, r3, #26
    1be2:	d501      	bpl.n	1be8 <_vfprintf_r+0x7fc>
    1be4:	f000 fc88 	bl	24f8 <_vfprintf_r+0x110c>
    1be8:	9b10      	ldr	r3, [sp, #64]	@ 0x40
    1bea:	1d19      	adds	r1, r3, #4
    1bec:	9b10      	ldr	r3, [sp, #64]	@ 0x40
    1bee:	4693      	mov	fp, r2
    1bf0:	681b      	ldr	r3, [r3, #0]
    1bf2:	9110      	str	r1, [sp, #64]	@ 0x40
    1bf4:	9316      	str	r3, [sp, #88]	@ 0x58
    1bf6:	17db      	asrs	r3, r3, #31
    1bf8:	9317      	str	r3, [sp, #92]	@ 0x5c
    1bfa:	d400      	bmi.n	1bfe <_vfprintf_r+0x812>
    1bfc:	e5a7      	b.n	174e <_vfprintf_r+0x362>
    1bfe:	9916      	ldr	r1, [sp, #88]	@ 0x58
    1c00:	9a17      	ldr	r2, [sp, #92]	@ 0x5c
    1c02:	2400      	movs	r4, #0
    1c04:	424b      	negs	r3, r1
    1c06:	4194      	sbcs	r4, r2
    1c08:	9316      	str	r3, [sp, #88]	@ 0x58
    1c0a:	9417      	str	r4, [sp, #92]	@ 0x5c
    1c0c:	232d      	movs	r3, #45	@ 0x2d
    1c0e:	aa20      	add	r2, sp, #128	@ 0x80
    1c10:	76d3      	strb	r3, [r2, #27]
    1c12:	9b0a      	ldr	r3, [sp, #40]	@ 0x28
    1c14:	2b00      	cmp	r3, #0
    1c16:	da00      	bge.n	1c1a <_vfprintf_r+0x82e>
    1c18:	e6c1      	b.n	199e <_vfprintf_r+0x5b2>
    1c1a:	2380      	movs	r3, #128	@ 0x80
    1c1c:	465a      	mov	r2, fp
    1c1e:	439a      	bics	r2, r3
    1c20:	4693      	mov	fp, r2
    1c22:	9b16      	ldr	r3, [sp, #88]	@ 0x58
    1c24:	9c17      	ldr	r4, [sp, #92]	@ 0x5c
    1c26:	2c00      	cmp	r4, #0
    1c28:	d100      	bne.n	1c2c <_vfprintf_r+0x840>
    1c2a:	e6bd      	b.n	19a8 <_vfprintf_r+0x5bc>
    1c2c:	2380      	movs	r3, #128	@ 0x80
    1c2e:	465a      	mov	r2, fp
    1c30:	00db      	lsls	r3, r3, #3
    1c32:	401a      	ands	r2, r3
    1c34:	2300      	movs	r3, #0
    1c36:	9311      	str	r3, [sp, #68]	@ 0x44
    1c38:	ab5a      	add	r3, sp, #360	@ 0x168
    1c3a:	46b2      	mov	sl, r6
    1c3c:	970f      	str	r7, [sp, #60]	@ 0x3c
    1c3e:	4698      	mov	r8, r3
    1c40:	9e16      	ldr	r6, [sp, #88]	@ 0x58
    1c42:	9f17      	ldr	r7, [sp, #92]	@ 0x5c
    1c44:	920c      	str	r2, [sp, #48]	@ 0x30
    1c46:	e018      	b.n	1c7a <_vfprintf_r+0x88e>
    1c48:	0000912c 	.word	0x0000912c
    1c4c:	00009430 	.word	0x00009430
    1c50:	fffffb7f 	.word	0xfffffb7f
    1c54:	fffffbff 	.word	0xfffffbff
    1c58:	00007830 	.word	0x00007830
    1c5c:	9609      	str	r6, [sp, #36]	@ 0x24
    1c5e:	0039      	movs	r1, r7
    1c60:	220a      	movs	r2, #10
    1c62:	2300      	movs	r3, #0
    1c64:	9809      	ldr	r0, [sp, #36]	@ 0x24
    1c66:	f7fe fb05 	bl	274 <__aeabi_uldivmod>
    1c6a:	003c      	movs	r4, r7
    1c6c:	46a8      	mov	r8, r5
    1c6e:	0006      	movs	r6, r0
    1c70:	000f      	movs	r7, r1
    1c72:	2c00      	cmp	r4, #0
    1c74:	d101      	bne.n	1c7a <_vfprintf_r+0x88e>
    1c76:	f001 f9e8 	bl	304a <_vfprintf_r+0x1c5e>
    1c7a:	220a      	movs	r2, #10
    1c7c:	2300      	movs	r3, #0
    1c7e:	0030      	movs	r0, r6
    1c80:	0039      	movs	r1, r7
    1c82:	f7fe faf7 	bl	274 <__aeabi_uldivmod>
    1c86:	4645      	mov	r5, r8
    1c88:	9b11      	ldr	r3, [sp, #68]	@ 0x44
    1c8a:	3d01      	subs	r5, #1
    1c8c:	3301      	adds	r3, #1
    1c8e:	9311      	str	r3, [sp, #68]	@ 0x44
    1c90:	9b0c      	ldr	r3, [sp, #48]	@ 0x30
    1c92:	3230      	adds	r2, #48	@ 0x30
    1c94:	702a      	strb	r2, [r5, #0]
    1c96:	2b00      	cmp	r3, #0
    1c98:	d0e0      	beq.n	1c5c <_vfprintf_r+0x870>
    1c9a:	9b1d      	ldr	r3, [sp, #116]	@ 0x74
    1c9c:	9a11      	ldr	r2, [sp, #68]	@ 0x44
    1c9e:	781b      	ldrb	r3, [r3, #0]
    1ca0:	4293      	cmp	r3, r2
    1ca2:	d1db      	bne.n	1c5c <_vfprintf_r+0x870>
    1ca4:	2aff      	cmp	r2, #255	@ 0xff
    1ca6:	d0d9      	beq.n	1c5c <_vfprintf_r+0x870>
    1ca8:	2f00      	cmp	r7, #0
    1caa:	d001      	beq.n	1cb0 <_vfprintf_r+0x8c4>
    1cac:	f001 f85a 	bl	2d64 <_vfprintf_r+0x1978>
    1cb0:	2e09      	cmp	r6, #9
    1cb2:	d901      	bls.n	1cb8 <_vfprintf_r+0x8cc>
    1cb4:	f001 f856 	bl	2d64 <_vfprintf_r+0x1978>
    1cb8:	9a0a      	ldr	r2, [sp, #40]	@ 0x28
    1cba:	ab5a      	add	r3, sp, #360	@ 0x168
    1cbc:	1b5b      	subs	r3, r3, r5
    1cbe:	9616      	str	r6, [sp, #88]	@ 0x58
    1cc0:	9717      	str	r7, [sp, #92]	@ 0x5c
    1cc2:	930c      	str	r3, [sp, #48]	@ 0x30
    1cc4:	4656      	mov	r6, sl
    1cc6:	9f0f      	ldr	r7, [sp, #60]	@ 0x3c
    1cc8:	9209      	str	r2, [sp, #36]	@ 0x24
    1cca:	429a      	cmp	r2, r3
    1ccc:	da00      	bge.n	1cd0 <_vfprintf_r+0x8e4>
    1cce:	9309      	str	r3, [sp, #36]	@ 0x24
    1cd0:	ab20      	add	r3, sp, #128	@ 0x80
    1cd2:	7edb      	ldrb	r3, [r3, #27]
    1cd4:	e681      	b.n	19da <_vfprintf_r+0x5ee>
    1cd6:	4699      	mov	r9, r3
    1cd8:	0023      	movs	r3, r4
    1cda:	46a3      	mov	fp, r4
    1cdc:	069b      	lsls	r3, r3, #26
    1cde:	d501      	bpl.n	1ce4 <_vfprintf_r+0x8f8>
    1ce0:	f000 fc07 	bl	24f2 <_vfprintf_r+0x1106>
    1ce4:	2310      	movs	r3, #16
    1ce6:	0020      	movs	r0, r4
    1ce8:	9910      	ldr	r1, [sp, #64]	@ 0x40
    1cea:	4018      	ands	r0, r3
    1cec:	c904      	ldmia	r1!, {r2}
    1cee:	4223      	tst	r3, r4
    1cf0:	d001      	beq.n	1cf6 <_vfprintf_r+0x90a>
    1cf2:	f001 fb3b 	bl	336c <_vfprintf_r+0x1f80>
    1cf6:	2340      	movs	r3, #64	@ 0x40
    1cf8:	465d      	mov	r5, fp
    1cfa:	401c      	ands	r4, r3
    1cfc:	422b      	tst	r3, r5
    1cfe:	d101      	bne.n	1d04 <_vfprintf_r+0x918>
    1d00:	f000 fe5a 	bl	29b8 <_vfprintf_r+0x15cc>
    1d04:	b293      	uxth	r3, r2
    1d06:	9316      	str	r3, [sp, #88]	@ 0x58
    1d08:	2300      	movs	r3, #0
    1d0a:	9317      	str	r3, [sp, #92]	@ 0x5c
    1d0c:	ab20      	add	r3, sp, #128	@ 0x80
    1d0e:	76d8      	strb	r0, [r3, #27]
    1d10:	9b0a      	ldr	r3, [sp, #40]	@ 0x28
    1d12:	2b00      	cmp	r3, #0
    1d14:	db08      	blt.n	1d28 <_vfprintf_r+0x93c>
    1d16:	2380      	movs	r3, #128	@ 0x80
    1d18:	465a      	mov	r2, fp
    1d1a:	439a      	bics	r2, r3
    1d1c:	9b16      	ldr	r3, [sp, #88]	@ 0x58
    1d1e:	4693      	mov	fp, r2
    1d20:	2b00      	cmp	r3, #0
    1d22:	d101      	bne.n	1d28 <_vfprintf_r+0x93c>
    1d24:	f000 fc01 	bl	252a <_vfprintf_r+0x113e>
    1d28:	9110      	str	r1, [sp, #64]	@ 0x40
    1d2a:	e638      	b.n	199e <_vfprintf_r+0x5b2>
    1d2c:	9b07      	ldr	r3, [sp, #28]
    1d2e:	0018      	movs	r0, r3
    1d30:	4699      	mov	r9, r3
    1d32:	f002 fad5 	bl	42e0 <_localeconv_r>
    1d36:	6843      	ldr	r3, [r0, #4]
    1d38:	0018      	movs	r0, r3
    1d3a:	9320      	str	r3, [sp, #128]	@ 0x80
    1d3c:	f002 fba6 	bl	448c <strlen>
    1d40:	4680      	mov	r8, r0
    1d42:	9021      	str	r0, [sp, #132]	@ 0x84
    1d44:	4648      	mov	r0, r9
    1d46:	f002 facb 	bl	42e0 <_localeconv_r>
    1d4a:	4641      	mov	r1, r8
    1d4c:	6882      	ldr	r2, [r0, #8]
    1d4e:	9b06      	ldr	r3, [sp, #24]
    1d50:	921d      	str	r2, [sp, #116]	@ 0x74
    1d52:	781b      	ldrb	r3, [r3, #0]
    1d54:	2900      	cmp	r1, #0
    1d56:	d101      	bne.n	1d5c <_vfprintf_r+0x970>
    1d58:	f7ff fbc8 	bl	14ec <_vfprintf_r+0x100>
    1d5c:	2a00      	cmp	r2, #0
    1d5e:	d101      	bne.n	1d64 <_vfprintf_r+0x978>
    1d60:	f7ff fbc4 	bl	14ec <_vfprintf_r+0x100>
    1d64:	7812      	ldrb	r2, [r2, #0]
    1d66:	2a00      	cmp	r2, #0
    1d68:	d101      	bne.n	1d6e <_vfprintf_r+0x982>
    1d6a:	f7ff fbbf 	bl	14ec <_vfprintf_r+0x100>
    1d6e:	2280      	movs	r2, #128	@ 0x80
    1d70:	00d2      	lsls	r2, r2, #3
    1d72:	4314      	orrs	r4, r2
    1d74:	f7ff fbba 	bl	14ec <_vfprintf_r+0x100>
    1d78:	2301      	movs	r3, #1
    1d7a:	431c      	orrs	r4, r3
    1d7c:	9b06      	ldr	r3, [sp, #24]
    1d7e:	781b      	ldrb	r3, [r3, #0]
    1d80:	f7ff fbb4 	bl	14ec <_vfprintf_r+0x100>
    1d84:	aa20      	add	r2, sp, #128	@ 0x80
    1d86:	9b06      	ldr	r3, [sp, #24]
    1d88:	7ed2      	ldrb	r2, [r2, #27]
    1d8a:	781b      	ldrb	r3, [r3, #0]
    1d8c:	2a00      	cmp	r2, #0
    1d8e:	d001      	beq.n	1d94 <_vfprintf_r+0x9a8>
    1d90:	f7ff fbac 	bl	14ec <_vfprintf_r+0x100>
    1d94:	3220      	adds	r2, #32
    1d96:	a920      	add	r1, sp, #128	@ 0x80
    1d98:	76ca      	strb	r2, [r1, #27]
    1d9a:	f7ff fba7 	bl	14ec <_vfprintf_r+0x100>
    1d9e:	2380      	movs	r3, #128	@ 0x80
    1da0:	431c      	orrs	r4, r3
    1da2:	9b06      	ldr	r3, [sp, #24]
    1da4:	781b      	ldrb	r3, [r3, #0]
    1da6:	f7ff fba1 	bl	14ec <_vfprintf_r+0x100>
    1daa:	9b06      	ldr	r3, [sp, #24]
    1dac:	1c5a      	adds	r2, r3, #1
    1dae:	781b      	ldrb	r3, [r3, #0]
    1db0:	4694      	mov	ip, r2
    1db2:	2b2a      	cmp	r3, #42	@ 0x2a
    1db4:	d101      	bne.n	1dba <_vfprintf_r+0x9ce>
    1db6:	f001 fcbf 	bl	3738 <_vfprintf_r+0x234c>
    1dba:	0019      	movs	r1, r3
    1dbc:	3930      	subs	r1, #48	@ 0x30
    1dbe:	0010      	movs	r0, r2
    1dc0:	2200      	movs	r2, #0
    1dc2:	2909      	cmp	r1, #9
    1dc4:	d901      	bls.n	1dca <_vfprintf_r+0x9de>
    1dc6:	f001 fa87 	bl	32d8 <_vfprintf_r+0x1eec>
    1dca:	0093      	lsls	r3, r2, #2
    1dcc:	189b      	adds	r3, r3, r2
    1dce:	005b      	lsls	r3, r3, #1
    1dd0:	185a      	adds	r2, r3, r1
    1dd2:	7803      	ldrb	r3, [r0, #0]
    1dd4:	3001      	adds	r0, #1
    1dd6:	0019      	movs	r1, r3
    1dd8:	3930      	subs	r1, #48	@ 0x30
    1dda:	2909      	cmp	r1, #9
    1ddc:	d9f5      	bls.n	1dca <_vfprintf_r+0x9de>
    1dde:	9006      	str	r0, [sp, #24]
    1de0:	920a      	str	r2, [sp, #40]	@ 0x28
    1de2:	2a00      	cmp	r2, #0
    1de4:	db01      	blt.n	1dea <_vfprintf_r+0x9fe>
    1de6:	f7ff fb84 	bl	14f2 <_vfprintf_r+0x106>
    1dea:	2201      	movs	r2, #1
    1dec:	4252      	negs	r2, r2
    1dee:	920a      	str	r2, [sp, #40]	@ 0x28
    1df0:	f7ff fb7f 	bl	14f2 <_vfprintf_r+0x106>
    1df4:	232b      	movs	r3, #43	@ 0x2b
    1df6:	aa20      	add	r2, sp, #128	@ 0x80
    1df8:	76d3      	strb	r3, [r2, #27]
    1dfa:	9b06      	ldr	r3, [sp, #24]
    1dfc:	781b      	ldrb	r3, [r3, #0]
    1dfe:	f7ff fb75 	bl	14ec <_vfprintf_r+0x100>
    1e02:	1b63      	subs	r3, r4, r5
    1e04:	4698      	mov	r8, r3
    1e06:	42ac      	cmp	r4, r5
    1e08:	d101      	bne.n	1e0e <_vfprintf_r+0xa22>
    1e0a:	f7ff fc03 	bl	1614 <_vfprintf_r+0x228>
    1e0e:	4643      	mov	r3, r8
    1e10:	6073      	str	r3, [r6, #4]
    1e12:	68bb      	ldr	r3, [r7, #8]
    1e14:	6035      	str	r5, [r6, #0]
    1e16:	4443      	add	r3, r8
    1e18:	60bb      	str	r3, [r7, #8]
    1e1a:	687b      	ldr	r3, [r7, #4]
    1e1c:	3301      	adds	r3, #1
    1e1e:	607b      	str	r3, [r7, #4]
    1e20:	2b07      	cmp	r3, #7
    1e22:	dd00      	ble.n	1e26 <_vfprintf_r+0xa3a>
    1e24:	e0c5      	b.n	1fb2 <_vfprintf_r+0xbc6>
    1e26:	3608      	adds	r6, #8
    1e28:	9b0b      	ldr	r3, [sp, #44]	@ 0x2c
    1e2a:	4443      	add	r3, r8
    1e2c:	930b      	str	r3, [sp, #44]	@ 0x2c
    1e2e:	f7ff fb4d 	bl	14cc <_vfprintf_r+0xe0>
    1e32:	9b0e      	ldr	r3, [sp, #56]	@ 0x38
    1e34:	9a09      	ldr	r2, [sp, #36]	@ 0x24
    1e36:	1a9b      	subs	r3, r3, r2
    1e38:	4698      	mov	r8, r3
    1e3a:	2b00      	cmp	r3, #0
    1e3c:	dc01      	bgt.n	1e42 <_vfprintf_r+0xa56>
    1e3e:	f7ff fbaa 	bl	1596 <_vfprintf_r+0x1aa>
    1e42:	4642      	mov	r2, r8
    1e44:	687b      	ldr	r3, [r7, #4]
    1e46:	2a10      	cmp	r2, #16
    1e48:	dc01      	bgt.n	1e4e <_vfprintf_r+0xa62>
    1e4a:	f001 faaf 	bl	33ac <_vfprintf_r+0x1fc0>
    1e4e:	2210      	movs	r2, #16
    1e50:	49cb      	ldr	r1, [pc, #812]	@ (2180 <_vfprintf_r+0xd94>)
    1e52:	4692      	mov	sl, r2
    1e54:	9112      	str	r1, [sp, #72]	@ 0x48
    1e56:	0022      	movs	r2, r4
    1e58:	4644      	mov	r4, r8
    1e5a:	46a8      	mov	r8, r5
    1e5c:	000d      	movs	r5, r1
    1e5e:	e003      	b.n	1e68 <_vfprintf_r+0xa7c>
    1e60:	3c10      	subs	r4, #16
    1e62:	3608      	adds	r6, #8
    1e64:	2c10      	cmp	r4, #16
    1e66:	dd15      	ble.n	1e94 <_vfprintf_r+0xaa8>
    1e68:	4651      	mov	r1, sl
    1e6a:	3210      	adds	r2, #16
    1e6c:	3301      	adds	r3, #1
    1e6e:	6035      	str	r5, [r6, #0]
    1e70:	6071      	str	r1, [r6, #4]
    1e72:	60ba      	str	r2, [r7, #8]
    1e74:	607b      	str	r3, [r7, #4]
    1e76:	2b07      	cmp	r3, #7
    1e78:	ddf2      	ble.n	1e60 <_vfprintf_r+0xa74>
    1e7a:	003a      	movs	r2, r7
    1e7c:	9908      	ldr	r1, [sp, #32]
    1e7e:	9807      	ldr	r0, [sp, #28]
    1e80:	f001 fcdc 	bl	383c <__sprint_r>
    1e84:	2800      	cmp	r0, #0
    1e86:	d11f      	bne.n	1ec8 <_vfprintf_r+0xadc>
    1e88:	3c10      	subs	r4, #16
    1e8a:	68ba      	ldr	r2, [r7, #8]
    1e8c:	687b      	ldr	r3, [r7, #4]
    1e8e:	ae31      	add	r6, sp, #196	@ 0xc4
    1e90:	2c10      	cmp	r4, #16
    1e92:	dce9      	bgt.n	1e68 <_vfprintf_r+0xa7c>
    1e94:	4645      	mov	r5, r8
    1e96:	46a0      	mov	r8, r4
    1e98:	0014      	movs	r4, r2
    1e9a:	9a12      	ldr	r2, [sp, #72]	@ 0x48
    1e9c:	4444      	add	r4, r8
    1e9e:	6032      	str	r2, [r6, #0]
    1ea0:	4642      	mov	r2, r8
    1ea2:	3301      	adds	r3, #1
    1ea4:	6072      	str	r2, [r6, #4]
    1ea6:	60bc      	str	r4, [r7, #8]
    1ea8:	607b      	str	r3, [r7, #4]
    1eaa:	2b07      	cmp	r3, #7
    1eac:	dd00      	ble.n	1eb0 <_vfprintf_r+0xac4>
    1eae:	e3c9      	b.n	2644 <_vfprintf_r+0x1258>
    1eb0:	3608      	adds	r6, #8
    1eb2:	f7ff fb70 	bl	1596 <_vfprintf_r+0x1aa>
    1eb6:	003a      	movs	r2, r7
    1eb8:	9908      	ldr	r1, [sp, #32]
    1eba:	9807      	ldr	r0, [sp, #28]
    1ebc:	f001 fcbe 	bl	383c <__sprint_r>
    1ec0:	2800      	cmp	r0, #0
    1ec2:	d101      	bne.n	1ec8 <_vfprintf_r+0xadc>
    1ec4:	f7ff fb97 	bl	15f6 <_vfprintf_r+0x20a>
    1ec8:	9b08      	ldr	r3, [sp, #32]
    1eca:	990f      	ldr	r1, [sp, #60]	@ 0x3c
    1ecc:	4698      	mov	r8, r3
    1ece:	2900      	cmp	r1, #0
    1ed0:	d002      	beq.n	1ed8 <_vfprintf_r+0xaec>
    1ed2:	9807      	ldr	r0, [sp, #28]
    1ed4:	f7fe fe92 	bl	bfc <_free_r>
    1ed8:	4643      	mov	r3, r8
    1eda:	220c      	movs	r2, #12
    1edc:	5e9b      	ldrsh	r3, [r3, r2]
    1ede:	4642      	mov	r2, r8
    1ee0:	6e52      	ldr	r2, [r2, #100]	@ 0x64
    1ee2:	07d2      	lsls	r2, r2, #31
    1ee4:	d403      	bmi.n	1eee <_vfprintf_r+0xb02>
    1ee6:	059a      	lsls	r2, r3, #22
    1ee8:	d401      	bmi.n	1eee <_vfprintf_r+0xb02>
    1eea:	f000 fc87 	bl	27fc <_vfprintf_r+0x1410>
    1eee:	065b      	lsls	r3, r3, #25
    1ef0:	d500      	bpl.n	1ef4 <_vfprintf_r+0xb08>
    1ef2:	e0ef      	b.n	20d4 <_vfprintf_r+0xce8>
    1ef4:	980b      	ldr	r0, [sp, #44]	@ 0x2c
    1ef6:	b05b      	add	sp, #364	@ 0x16c
    1ef8:	bcf0      	pop	{r4, r5, r6, r7}
    1efa:	46bb      	mov	fp, r7
    1efc:	46b2      	mov	sl, r6
    1efe:	46a9      	mov	r9, r5
    1f00:	46a0      	mov	r8, r4
    1f02:	bdf0      	pop	{r4, r5, r6, r7, pc}
    1f04:	687b      	ldr	r3, [r7, #4]
    1f06:	3401      	adds	r4, #1
    1f08:	3301      	adds	r3, #1
    1f0a:	4698      	mov	r8, r3
    1f0c:	2308      	movs	r3, #8
    1f0e:	4699      	mov	r9, r3
    1f10:	9b11      	ldr	r3, [sp, #68]	@ 0x44
    1f12:	44b1      	add	r9, r6
    1f14:	6035      	str	r5, [r6, #0]
    1f16:	2b01      	cmp	r3, #1
    1f18:	dc00      	bgt.n	1f1c <_vfprintf_r+0xb30>
    1f1a:	e1d6      	b.n	22ca <_vfprintf_r+0xede>
    1f1c:	2301      	movs	r3, #1
    1f1e:	6073      	str	r3, [r6, #4]
    1f20:	4643      	mov	r3, r8
    1f22:	60bc      	str	r4, [r7, #8]
    1f24:	607b      	str	r3, [r7, #4]
    1f26:	2b07      	cmp	r3, #7
    1f28:	dd01      	ble.n	1f2e <_vfprintf_r+0xb42>
    1f2a:	f000 fc2f 	bl	278c <_vfprintf_r+0x13a0>
    1f2e:	464b      	mov	r3, r9
    1f30:	9a1c      	ldr	r2, [sp, #112]	@ 0x70
    1f32:	601a      	str	r2, [r3, #0]
    1f34:	464a      	mov	r2, r9
    1f36:	9b1b      	ldr	r3, [sp, #108]	@ 0x6c
    1f38:	469c      	mov	ip, r3
    1f3a:	6053      	str	r3, [r2, #4]
    1f3c:	2301      	movs	r3, #1
    1f3e:	4464      	add	r4, ip
    1f40:	469c      	mov	ip, r3
    1f42:	44e0      	add	r8, ip
    1f44:	4643      	mov	r3, r8
    1f46:	60bc      	str	r4, [r7, #8]
    1f48:	607b      	str	r3, [r7, #4]
    1f4a:	2b07      	cmp	r3, #7
    1f4c:	dd01      	ble.n	1f52 <_vfprintf_r+0xb66>
    1f4e:	f000 fc2d 	bl	27ac <_vfprintf_r+0x13c0>
    1f52:	2308      	movs	r3, #8
    1f54:	469c      	mov	ip, r3
    1f56:	44e1      	add	r9, ip
    1f58:	9b11      	ldr	r3, [sp, #68]	@ 0x44
    1f5a:	2200      	movs	r2, #0
    1f5c:	9818      	ldr	r0, [sp, #96]	@ 0x60
    1f5e:	9919      	ldr	r1, [sp, #100]	@ 0x64
    1f60:	1e5e      	subs	r6, r3, #1
    1f62:	2300      	movs	r3, #0
    1f64:	f7fe f958 	bl	218 <__aeabi_dcmpeq>
    1f68:	2800      	cmp	r0, #0
    1f6a:	d000      	beq.n	1f6e <_vfprintf_r+0xb82>
    1f6c:	e1d9      	b.n	2322 <_vfprintf_r+0xf36>
    1f6e:	2301      	movs	r3, #1
    1f70:	469c      	mov	ip, r3
    1f72:	464b      	mov	r3, r9
    1f74:	44e0      	add	r8, ip
    1f76:	3501      	adds	r5, #1
    1f78:	c360      	stmia	r3!, {r5, r6}
    1f7a:	4643      	mov	r3, r8
    1f7c:	19a4      	adds	r4, r4, r6
    1f7e:	60bc      	str	r4, [r7, #8]
    1f80:	607b      	str	r3, [r7, #4]
    1f82:	2b07      	cmp	r3, #7
    1f84:	dd00      	ble.n	1f88 <_vfprintf_r+0xb9c>
    1f86:	e1ac      	b.n	22e2 <_vfprintf_r+0xef6>
    1f88:	2308      	movs	r3, #8
    1f8a:	469c      	mov	ip, r3
    1f8c:	44e1      	add	r9, ip
    1f8e:	464a      	mov	r2, r9
    1f90:	ab2a      	add	r3, sp, #168	@ 0xa8
    1f92:	6013      	str	r3, [r2, #0]
    1f94:	9b1f      	ldr	r3, [sp, #124]	@ 0x7c
    1f96:	469c      	mov	ip, r3
    1f98:	6053      	str	r3, [r2, #4]
    1f9a:	4643      	mov	r3, r8
    1f9c:	4464      	add	r4, ip
    1f9e:	3301      	adds	r3, #1
    1fa0:	60bc      	str	r4, [r7, #8]
    1fa2:	607b      	str	r3, [r7, #4]
    1fa4:	2b07      	cmp	r3, #7
    1fa6:	dd01      	ble.n	1fac <_vfprintf_r+0xbc0>
    1fa8:	f7ff fba8 	bl	16fc <_vfprintf_r+0x310>
    1fac:	464e      	mov	r6, r9
    1fae:	f7ff fb09 	bl	15c4 <_vfprintf_r+0x1d8>
    1fb2:	003a      	movs	r2, r7
    1fb4:	9908      	ldr	r1, [sp, #32]
    1fb6:	9807      	ldr	r0, [sp, #28]
    1fb8:	f001 fc40 	bl	383c <__sprint_r>
    1fbc:	2800      	cmp	r0, #0
    1fbe:	d001      	beq.n	1fc4 <_vfprintf_r+0xbd8>
    1fc0:	f001 faa2 	bl	3508 <_vfprintf_r+0x211c>
    1fc4:	ae31      	add	r6, sp, #196	@ 0xc4
    1fc6:	e72f      	b.n	1e28 <_vfprintf_r+0xa3c>
    1fc8:	2302      	movs	r3, #2
    1fca:	9312      	str	r3, [sp, #72]	@ 0x48
    1fcc:	4641      	mov	r1, r8
    1fce:	68ba      	ldr	r2, [r7, #8]
    1fd0:	687b      	ldr	r3, [r7, #4]
    1fd2:	2910      	cmp	r1, #16
    1fd4:	dc01      	bgt.n	1fda <_vfprintf_r+0xbee>
    1fd6:	f001 f924 	bl	3222 <_vfprintf_r+0x1e36>
    1fda:	496a      	ldr	r1, [pc, #424]	@ (2184 <_vfprintf_r+0xd98>)
    1fdc:	0028      	movs	r0, r5
    1fde:	468a      	mov	sl, r1
    1fe0:	4645      	mov	r5, r8
    1fe2:	0031      	movs	r1, r6
    1fe4:	2410      	movs	r4, #16
    1fe6:	4656      	mov	r6, sl
    1fe8:	4680      	mov	r8, r0
    1fea:	e003      	b.n	1ff4 <_vfprintf_r+0xc08>
    1fec:	3d10      	subs	r5, #16
    1fee:	3108      	adds	r1, #8
    1ff0:	2d10      	cmp	r5, #16
    1ff2:	dd15      	ble.n	2020 <_vfprintf_r+0xc34>
    1ff4:	3210      	adds	r2, #16
    1ff6:	3301      	adds	r3, #1
    1ff8:	600e      	str	r6, [r1, #0]
    1ffa:	604c      	str	r4, [r1, #4]
    1ffc:	60ba      	str	r2, [r7, #8]
    1ffe:	607b      	str	r3, [r7, #4]
    2000:	2b07      	cmp	r3, #7
    2002:	ddf3      	ble.n	1fec <_vfprintf_r+0xc00>
    2004:	003a      	movs	r2, r7
    2006:	9908      	ldr	r1, [sp, #32]
    2008:	9807      	ldr	r0, [sp, #28]
    200a:	f001 fc17 	bl	383c <__sprint_r>
    200e:	2800      	cmp	r0, #0
    2010:	d000      	beq.n	2014 <_vfprintf_r+0xc28>
    2012:	e759      	b.n	1ec8 <_vfprintf_r+0xadc>
    2014:	3d10      	subs	r5, #16
    2016:	68ba      	ldr	r2, [r7, #8]
    2018:	687b      	ldr	r3, [r7, #4]
    201a:	a931      	add	r1, sp, #196	@ 0xc4
    201c:	2d10      	cmp	r5, #16
    201e:	dce9      	bgt.n	1ff4 <_vfprintf_r+0xc08>
    2020:	4640      	mov	r0, r8
    2022:	46b2      	mov	sl, r6
    2024:	46a8      	mov	r8, r5
    2026:	000e      	movs	r6, r1
    2028:	0005      	movs	r5, r0
    202a:	4651      	mov	r1, sl
    202c:	6031      	str	r1, [r6, #0]
    202e:	4641      	mov	r1, r8
    2030:	4442      	add	r2, r8
    2032:	3301      	adds	r3, #1
    2034:	0014      	movs	r4, r2
    2036:	6071      	str	r1, [r6, #4]
    2038:	60ba      	str	r2, [r7, #8]
    203a:	607b      	str	r3, [r7, #4]
    203c:	2b07      	cmp	r3, #7
    203e:	dd00      	ble.n	2042 <_vfprintf_r+0xc56>
    2040:	e3ee      	b.n	2820 <_vfprintf_r+0x1434>
    2042:	aa20      	add	r2, sp, #128	@ 0x80
    2044:	7ed2      	ldrb	r2, [r2, #27]
    2046:	3608      	adds	r6, #8
    2048:	2a00      	cmp	r2, #0
    204a:	d000      	beq.n	204e <_vfprintf_r+0xc62>
    204c:	e1c4      	b.n	23d8 <_vfprintf_r+0xfec>
    204e:	9a12      	ldr	r2, [sp, #72]	@ 0x48
    2050:	2a00      	cmp	r2, #0
    2052:	d101      	bne.n	2058 <_vfprintf_r+0xc6c>
    2054:	f7ff fa9f 	bl	1596 <_vfprintf_r+0x1aa>
    2058:	2200      	movs	r2, #0
    205a:	9212      	str	r2, [sp, #72]	@ 0x48
    205c:	f7ff fa89 	bl	1572 <_vfprintf_r+0x186>
    2060:	4641      	mov	r1, r8
    2062:	9807      	ldr	r0, [sp, #28]
    2064:	f002 f82c 	bl	40c0 <__swsetup_r>
    2068:	4643      	mov	r3, r8
    206a:	2800      	cmp	r0, #0
    206c:	d001      	beq.n	2072 <_vfprintf_r+0xc86>
    206e:	f001 fb0e 	bl	368e <_vfprintf_r+0x22a2>
    2072:	220c      	movs	r2, #12
    2074:	5e9b      	ldrsh	r3, [r3, r2]
    2076:	221a      	movs	r2, #26
    2078:	401a      	ands	r2, r3
    207a:	2a0a      	cmp	r2, #10
    207c:	d001      	beq.n	2082 <_vfprintf_r+0xc96>
    207e:	f7ff f9f8 	bl	1472 <_vfprintf_r+0x86>
    2082:	4642      	mov	r2, r8
    2084:	210e      	movs	r1, #14
    2086:	5e52      	ldrsh	r2, [r2, r1]
    2088:	2a00      	cmp	r2, #0
    208a:	da01      	bge.n	2090 <_vfprintf_r+0xca4>
    208c:	f7ff f9f1 	bl	1472 <_vfprintf_r+0x86>
    2090:	4642      	mov	r2, r8
    2092:	6e52      	ldr	r2, [r2, #100]	@ 0x64
    2094:	07d2      	lsls	r2, r2, #31
    2096:	d403      	bmi.n	20a0 <_vfprintf_r+0xcb4>
    2098:	059b      	lsls	r3, r3, #22
    209a:	d401      	bmi.n	20a0 <_vfprintf_r+0xcb4>
    209c:	f000 fe5c 	bl	2d58 <_vfprintf_r+0x196c>
    20a0:	0023      	movs	r3, r4
    20a2:	465a      	mov	r2, fp
    20a4:	4641      	mov	r1, r8
    20a6:	9807      	ldr	r0, [sp, #28]
    20a8:	f001 fb82 	bl	37b0 <__sbprintf>
    20ac:	900b      	str	r0, [sp, #44]	@ 0x2c
    20ae:	e721      	b.n	1ef4 <_vfprintf_r+0xb08>
    20b0:	0599      	lsls	r1, r3, #22
    20b2:	d400      	bmi.n	20b6 <_vfprintf_r+0xcca>
    20b4:	e0f3      	b.n	229e <_vfprintf_r+0xeb2>
    20b6:	0499      	lsls	r1, r3, #18
    20b8:	d401      	bmi.n	20be <_vfprintf_r+0xcd2>
    20ba:	f7ff f9c0 	bl	143e <_vfprintf_r+0x52>
    20be:	1352      	asrs	r2, r2, #13
    20c0:	4215      	tst	r5, r2
    20c2:	d101      	bne.n	20c8 <_vfprintf_r+0xcdc>
    20c4:	f7ff f9c5 	bl	1452 <_vfprintf_r+0x66>
    20c8:	4643      	mov	r3, r8
    20ca:	899b      	ldrh	r3, [r3, #12]
    20cc:	059b      	lsls	r3, r3, #22
    20ce:	d401      	bmi.n	20d4 <_vfprintf_r+0xce8>
    20d0:	f001 fb0c 	bl	36ec <_vfprintf_r+0x2300>
    20d4:	2301      	movs	r3, #1
    20d6:	425b      	negs	r3, r3
    20d8:	930b      	str	r3, [sp, #44]	@ 0x2c
    20da:	e70b      	b.n	1ef4 <_vfprintf_r+0xb08>
    20dc:	003a      	movs	r2, r7
    20de:	9908      	ldr	r1, [sp, #32]
    20e0:	9807      	ldr	r0, [sp, #28]
    20e2:	f001 fbab 	bl	383c <__sprint_r>
    20e6:	2800      	cmp	r0, #0
    20e8:	d000      	beq.n	20ec <_vfprintf_r+0xd00>
    20ea:	e6ed      	b.n	1ec8 <_vfprintf_r+0xadc>
    20ec:	68bc      	ldr	r4, [r7, #8]
    20ee:	ae31      	add	r6, sp, #196	@ 0xc4
    20f0:	f7ff fa4c 	bl	158c <_vfprintf_r+0x1a0>
    20f4:	003a      	movs	r2, r7
    20f6:	9908      	ldr	r1, [sp, #32]
    20f8:	9807      	ldr	r0, [sp, #28]
    20fa:	f001 fb9f 	bl	383c <__sprint_r>
    20fe:	2800      	cmp	r0, #0
    2100:	d000      	beq.n	2104 <_vfprintf_r+0xd18>
    2102:	e6e1      	b.n	1ec8 <_vfprintf_r+0xadc>
    2104:	68bc      	ldr	r4, [r7, #8]
    2106:	ae31      	add	r6, sp, #196	@ 0xc4
    2108:	f7ff fa2f 	bl	156a <_vfprintf_r+0x17e>
    210c:	4a1d      	ldr	r2, [pc, #116]	@ (2184 <_vfprintf_r+0xd98>)
    210e:	687b      	ldr	r3, [r7, #4]
    2110:	4692      	mov	sl, r2
    2112:	2210      	movs	r2, #16
    2114:	4690      	mov	r8, r2
    2116:	2d10      	cmp	r5, #16
    2118:	dc04      	bgt.n	2124 <_vfprintf_r+0xd38>
    211a:	e01b      	b.n	2154 <_vfprintf_r+0xd68>
    211c:	3d10      	subs	r5, #16
    211e:	3608      	adds	r6, #8
    2120:	2d10      	cmp	r5, #16
    2122:	dd17      	ble.n	2154 <_vfprintf_r+0xd68>
    2124:	4652      	mov	r2, sl
    2126:	6032      	str	r2, [r6, #0]
    2128:	4642      	mov	r2, r8
    212a:	3410      	adds	r4, #16
    212c:	3301      	adds	r3, #1
    212e:	6072      	str	r2, [r6, #4]
    2130:	60bc      	str	r4, [r7, #8]
    2132:	607b      	str	r3, [r7, #4]
    2134:	2b07      	cmp	r3, #7
    2136:	ddf1      	ble.n	211c <_vfprintf_r+0xd30>
    2138:	003a      	movs	r2, r7
    213a:	9908      	ldr	r1, [sp, #32]
    213c:	9807      	ldr	r0, [sp, #28]
    213e:	f001 fb7d 	bl	383c <__sprint_r>
    2142:	2800      	cmp	r0, #0
    2144:	d000      	beq.n	2148 <_vfprintf_r+0xd5c>
    2146:	e6bf      	b.n	1ec8 <_vfprintf_r+0xadc>
    2148:	3d10      	subs	r5, #16
    214a:	68bc      	ldr	r4, [r7, #8]
    214c:	687b      	ldr	r3, [r7, #4]
    214e:	ae31      	add	r6, sp, #196	@ 0xc4
    2150:	2d10      	cmp	r5, #16
    2152:	dce7      	bgt.n	2124 <_vfprintf_r+0xd38>
    2154:	4652      	mov	r2, sl
    2156:	1964      	adds	r4, r4, r5
    2158:	3301      	adds	r3, #1
    215a:	c624      	stmia	r6!, {r2, r5}
    215c:	60bc      	str	r4, [r7, #8]
    215e:	607b      	str	r3, [r7, #4]
    2160:	2b07      	cmp	r3, #7
    2162:	dc01      	bgt.n	2168 <_vfprintf_r+0xd7c>
    2164:	f7ff fa39 	bl	15da <_vfprintf_r+0x1ee>
    2168:	003a      	movs	r2, r7
    216a:	9908      	ldr	r1, [sp, #32]
    216c:	9807      	ldr	r0, [sp, #28]
    216e:	f001 fb65 	bl	383c <__sprint_r>
    2172:	2800      	cmp	r0, #0
    2174:	d000      	beq.n	2178 <_vfprintf_r+0xd8c>
    2176:	e6a7      	b.n	1ec8 <_vfprintf_r+0xadc>
    2178:	68bc      	ldr	r4, [r7, #8]
    217a:	f7ff fa2e 	bl	15da <_vfprintf_r+0x1ee>
    217e:	46c0      	nop			@ (mov r8, r8)
    2180:	00009430 	.word	0x00009430
    2184:	00009440 	.word	0x00009440
    2188:	9828      	ldr	r0, [sp, #160]	@ 0xa0
    218a:	2800      	cmp	r0, #0
    218c:	dc00      	bgt.n	2190 <_vfprintf_r+0xda4>
    218e:	e129      	b.n	23e4 <_vfprintf_r+0xff8>
    2190:	9b14      	ldr	r3, [sp, #80]	@ 0x50
    2192:	9a11      	ldr	r2, [sp, #68]	@ 0x44
    2194:	4698      	mov	r8, r3
    2196:	4293      	cmp	r3, r2
    2198:	dd00      	ble.n	219c <_vfprintf_r+0xdb0>
    219a:	4690      	mov	r8, r2
    219c:	4643      	mov	r3, r8
    219e:	2b00      	cmp	r3, #0
    21a0:	dd0b      	ble.n	21ba <_vfprintf_r+0xdce>
    21a2:	6073      	str	r3, [r6, #4]
    21a4:	687b      	ldr	r3, [r7, #4]
    21a6:	4444      	add	r4, r8
    21a8:	3301      	adds	r3, #1
    21aa:	6035      	str	r5, [r6, #0]
    21ac:	60bc      	str	r4, [r7, #8]
    21ae:	607b      	str	r3, [r7, #4]
    21b0:	2b07      	cmp	r3, #7
    21b2:	dd01      	ble.n	21b8 <_vfprintf_r+0xdcc>
    21b4:	f000 ff6d 	bl	3092 <_vfprintf_r+0x1ca6>
    21b8:	3608      	adds	r6, #8
    21ba:	4643      	mov	r3, r8
    21bc:	43db      	mvns	r3, r3
    21be:	4642      	mov	r2, r8
    21c0:	17db      	asrs	r3, r3, #31
    21c2:	4013      	ands	r3, r2
    21c4:	9a14      	ldr	r2, [sp, #80]	@ 0x50
    21c6:	1ad3      	subs	r3, r2, r3
    21c8:	4698      	mov	r8, r3
    21ca:	2b00      	cmp	r3, #0
    21cc:	dd00      	ble.n	21d0 <_vfprintf_r+0xde4>
    21ce:	e3b7      	b.n	2940 <_vfprintf_r+0x1554>
    21d0:	9b14      	ldr	r3, [sp, #80]	@ 0x50
    21d2:	469a      	mov	sl, r3
    21d4:	465b      	mov	r3, fp
    21d6:	44aa      	add	sl, r5
    21d8:	055b      	lsls	r3, r3, #21
    21da:	d501      	bpl.n	21e0 <_vfprintf_r+0xdf4>
    21dc:	f000 fe5b 	bl	2e96 <_vfprintf_r+0x1aaa>
    21e0:	9a28      	ldr	r2, [sp, #160]	@ 0xa0
    21e2:	9911      	ldr	r1, [sp, #68]	@ 0x44
    21e4:	428a      	cmp	r2, r1
    21e6:	db04      	blt.n	21f2 <_vfprintf_r+0xe06>
    21e8:	465b      	mov	r3, fp
    21ea:	07db      	lsls	r3, r3, #31
    21ec:	d401      	bmi.n	21f2 <_vfprintf_r+0xe06>
    21ee:	f000 fc3f 	bl	2a70 <_vfprintf_r+0x1684>
    21f2:	9b1c      	ldr	r3, [sp, #112]	@ 0x70
    21f4:	6033      	str	r3, [r6, #0]
    21f6:	9b1b      	ldr	r3, [sp, #108]	@ 0x6c
    21f8:	469c      	mov	ip, r3
    21fa:	6073      	str	r3, [r6, #4]
    21fc:	687b      	ldr	r3, [r7, #4]
    21fe:	4464      	add	r4, ip
    2200:	3301      	adds	r3, #1
    2202:	60bc      	str	r4, [r7, #8]
    2204:	607b      	str	r3, [r7, #4]
    2206:	2b07      	cmp	r3, #7
    2208:	dd01      	ble.n	220e <_vfprintf_r+0xe22>
    220a:	f000 ffe3 	bl	31d4 <_vfprintf_r+0x1de8>
    220e:	3608      	adds	r6, #8
    2210:	9b11      	ldr	r3, [sp, #68]	@ 0x44
    2212:	469c      	mov	ip, r3
    2214:	1a9a      	subs	r2, r3, r2
    2216:	4653      	mov	r3, sl
    2218:	4465      	add	r5, ip
    221a:	1aed      	subs	r5, r5, r3
    221c:	4295      	cmp	r5, r2
    221e:	dd00      	ble.n	2222 <_vfprintf_r+0xe36>
    2220:	0015      	movs	r5, r2
    2222:	2d00      	cmp	r5, #0
    2224:	dd0c      	ble.n	2240 <_vfprintf_r+0xe54>
    2226:	4653      	mov	r3, sl
    2228:	6033      	str	r3, [r6, #0]
    222a:	687b      	ldr	r3, [r7, #4]
    222c:	1964      	adds	r4, r4, r5
    222e:	3301      	adds	r3, #1
    2230:	6075      	str	r5, [r6, #4]
    2232:	60bc      	str	r4, [r7, #8]
    2234:	607b      	str	r3, [r7, #4]
    2236:	2b07      	cmp	r3, #7
    2238:	dd01      	ble.n	223e <_vfprintf_r+0xe52>
    223a:	f001 f852 	bl	32e2 <_vfprintf_r+0x1ef6>
    223e:	3608      	adds	r6, #8
    2240:	43eb      	mvns	r3, r5
    2242:	17db      	asrs	r3, r3, #31
    2244:	401d      	ands	r5, r3
    2246:	1b55      	subs	r5, r2, r5
    2248:	2d00      	cmp	r5, #0
    224a:	dc01      	bgt.n	2250 <_vfprintf_r+0xe64>
    224c:	f7ff f9bb 	bl	15c6 <_vfprintf_r+0x1da>
    2250:	687b      	ldr	r3, [r7, #4]
    2252:	2d10      	cmp	r5, #16
    2254:	dc01      	bgt.n	225a <_vfprintf_r+0xe6e>
    2256:	f001 fa21 	bl	369c <_vfprintf_r+0x22b0>
    225a:	2210      	movs	r2, #16
    225c:	49c3      	ldr	r1, [pc, #780]	@ (256c <_vfprintf_r+0x1180>)
    225e:	4690      	mov	r8, r2
    2260:	9112      	str	r1, [sp, #72]	@ 0x48
    2262:	0022      	movs	r2, r4
    2264:	000c      	movs	r4, r1
    2266:	e005      	b.n	2274 <_vfprintf_r+0xe88>
    2268:	3608      	adds	r6, #8
    226a:	3d10      	subs	r5, #16
    226c:	2d10      	cmp	r5, #16
    226e:	dc01      	bgt.n	2274 <_vfprintf_r+0xe88>
    2270:	f7ff fa39 	bl	16e6 <_vfprintf_r+0x2fa>
    2274:	4641      	mov	r1, r8
    2276:	3210      	adds	r2, #16
    2278:	3301      	adds	r3, #1
    227a:	6034      	str	r4, [r6, #0]
    227c:	6071      	str	r1, [r6, #4]
    227e:	60ba      	str	r2, [r7, #8]
    2280:	607b      	str	r3, [r7, #4]
    2282:	2b07      	cmp	r3, #7
    2284:	ddf0      	ble.n	2268 <_vfprintf_r+0xe7c>
    2286:	003a      	movs	r2, r7
    2288:	9908      	ldr	r1, [sp, #32]
    228a:	9807      	ldr	r0, [sp, #28]
    228c:	f001 fad6 	bl	383c <__sprint_r>
    2290:	2800      	cmp	r0, #0
    2292:	d000      	beq.n	2296 <_vfprintf_r+0xeaa>
    2294:	e618      	b.n	1ec8 <_vfprintf_r+0xadc>
    2296:	68ba      	ldr	r2, [r7, #8]
    2298:	687b      	ldr	r3, [r7, #4]
    229a:	ae31      	add	r6, sp, #196	@ 0xc4
    229c:	e7e5      	b.n	226a <_vfprintf_r+0xe7e>
    229e:	4643      	mov	r3, r8
    22a0:	6d98      	ldr	r0, [r3, #88]	@ 0x58
    22a2:	f7fe fbf7 	bl	a94 <__retarget_lock_acquire_recursive>
    22a6:	4643      	mov	r3, r8
    22a8:	220c      	movs	r2, #12
    22aa:	5e9b      	ldrsh	r3, [r3, r2]
    22ac:	4642      	mov	r2, r8
    22ae:	6e52      	ldr	r2, [r2, #100]	@ 0x64
    22b0:	0499      	lsls	r1, r3, #18
    22b2:	d401      	bmi.n	22b8 <_vfprintf_r+0xecc>
    22b4:	f7ff f8c3 	bl	143e <_vfprintf_r+0x52>
    22b8:	1351      	asrs	r1, r2, #13
    22ba:	420d      	tst	r5, r1
    22bc:	d101      	bne.n	22c2 <_vfprintf_r+0xed6>
    22be:	f7ff f8c8 	bl	1452 <_vfprintf_r+0x66>
    22c2:	4215      	tst	r5, r2
    22c4:	d100      	bne.n	22c8 <_vfprintf_r+0xedc>
    22c6:	e6ff      	b.n	20c8 <_vfprintf_r+0xcdc>
    22c8:	e704      	b.n	20d4 <_vfprintf_r+0xce8>
    22ca:	2301      	movs	r3, #1
    22cc:	465a      	mov	r2, fp
    22ce:	4213      	tst	r3, r2
    22d0:	d000      	beq.n	22d4 <_vfprintf_r+0xee8>
    22d2:	e623      	b.n	1f1c <_vfprintf_r+0xb30>
    22d4:	6073      	str	r3, [r6, #4]
    22d6:	4643      	mov	r3, r8
    22d8:	60bc      	str	r4, [r7, #8]
    22da:	607b      	str	r3, [r7, #4]
    22dc:	2b07      	cmp	r3, #7
    22de:	dc00      	bgt.n	22e2 <_vfprintf_r+0xef6>
    22e0:	e655      	b.n	1f8e <_vfprintf_r+0xba2>
    22e2:	003a      	movs	r2, r7
    22e4:	9908      	ldr	r1, [sp, #32]
    22e6:	9807      	ldr	r0, [sp, #28]
    22e8:	f001 faa8 	bl	383c <__sprint_r>
    22ec:	2800      	cmp	r0, #0
    22ee:	d000      	beq.n	22f2 <_vfprintf_r+0xf06>
    22f0:	e5ea      	b.n	1ec8 <_vfprintf_r+0xadc>
    22f2:	687b      	ldr	r3, [r7, #4]
    22f4:	68bc      	ldr	r4, [r7, #8]
    22f6:	4698      	mov	r8, r3
    22f8:	ab31      	add	r3, sp, #196	@ 0xc4
    22fa:	4699      	mov	r9, r3
    22fc:	e647      	b.n	1f8e <_vfprintf_r+0xba2>
    22fe:	2930      	cmp	r1, #48	@ 0x30
    2300:	d100      	bne.n	2304 <_vfprintf_r+0xf18>
    2302:	e194      	b.n	262e <_vfprintf_r+0x1242>
    2304:	2330      	movs	r3, #48	@ 0x30
    2306:	3d01      	subs	r5, #1
    2308:	9a0a      	ldr	r2, [sp, #40]	@ 0x28
    230a:	3c02      	subs	r4, #2
    230c:	702b      	strb	r3, [r5, #0]
    230e:	ab5a      	add	r3, sp, #360	@ 0x168
    2310:	1b1b      	subs	r3, r3, r4
    2312:	930c      	str	r3, [sp, #48]	@ 0x30
    2314:	9209      	str	r2, [sp, #36]	@ 0x24
    2316:	429a      	cmp	r2, r3
    2318:	da00      	bge.n	231c <_vfprintf_r+0xf30>
    231a:	9309      	str	r3, [sp, #36]	@ 0x24
    231c:	0025      	movs	r5, r4
    231e:	f7ff fb61 	bl	19e4 <_vfprintf_r+0x5f8>
    2322:	9b11      	ldr	r3, [sp, #68]	@ 0x44
    2324:	2b01      	cmp	r3, #1
    2326:	dc00      	bgt.n	232a <_vfprintf_r+0xf3e>
    2328:	e631      	b.n	1f8e <_vfprintf_r+0xba2>
    232a:	2b11      	cmp	r3, #17
    232c:	dc01      	bgt.n	2332 <_vfprintf_r+0xf46>
    232e:	f001 f9aa 	bl	3686 <_vfprintf_r+0x229a>
    2332:	488e      	ldr	r0, [pc, #568]	@ (256c <_vfprintf_r+0x1180>)
    2334:	0021      	movs	r1, r4
    2336:	2510      	movs	r5, #16
    2338:	4643      	mov	r3, r8
    233a:	464a      	mov	r2, r9
    233c:	0004      	movs	r4, r0
    233e:	9012      	str	r0, [sp, #72]	@ 0x48
    2340:	e004      	b.n	234c <_vfprintf_r+0xf60>
    2342:	3208      	adds	r2, #8
    2344:	3e10      	subs	r6, #16
    2346:	2e10      	cmp	r6, #16
    2348:	dc00      	bgt.n	234c <_vfprintf_r+0xf60>
    234a:	e323      	b.n	2994 <_vfprintf_r+0x15a8>
    234c:	3110      	adds	r1, #16
    234e:	3301      	adds	r3, #1
    2350:	6014      	str	r4, [r2, #0]
    2352:	6055      	str	r5, [r2, #4]
    2354:	60b9      	str	r1, [r7, #8]
    2356:	607b      	str	r3, [r7, #4]
    2358:	2b07      	cmp	r3, #7
    235a:	ddf2      	ble.n	2342 <_vfprintf_r+0xf56>
    235c:	003a      	movs	r2, r7
    235e:	9908      	ldr	r1, [sp, #32]
    2360:	9807      	ldr	r0, [sp, #28]
    2362:	f001 fa6b 	bl	383c <__sprint_r>
    2366:	2800      	cmp	r0, #0
    2368:	d000      	beq.n	236c <_vfprintf_r+0xf80>
    236a:	e5ad      	b.n	1ec8 <_vfprintf_r+0xadc>
    236c:	68b9      	ldr	r1, [r7, #8]
    236e:	687b      	ldr	r3, [r7, #4]
    2370:	aa31      	add	r2, sp, #196	@ 0xc4
    2372:	e7e7      	b.n	2344 <_vfprintf_r+0xf58>
    2374:	003a      	movs	r2, r7
    2376:	9908      	ldr	r1, [sp, #32]
    2378:	9807      	ldr	r0, [sp, #28]
    237a:	f001 fa5f 	bl	383c <__sprint_r>
    237e:	2800      	cmp	r0, #0
    2380:	d000      	beq.n	2384 <_vfprintf_r+0xf98>
    2382:	e5a1      	b.n	1ec8 <_vfprintf_r+0xadc>
    2384:	68bc      	ldr	r4, [r7, #8]
    2386:	ae31      	add	r6, sp, #196	@ 0xc4
    2388:	f7ff f90c 	bl	15a4 <_vfprintf_r+0x1b8>
    238c:	1352      	asrs	r2, r2, #13
    238e:	4215      	tst	r5, r2
    2390:	d101      	bne.n	2396 <_vfprintf_r+0xfaa>
    2392:	f7ff f85e 	bl	1452 <_vfprintf_r+0x66>
    2396:	e69d      	b.n	20d4 <_vfprintf_r+0xce8>
    2398:	465b      	mov	r3, fp
    239a:	07db      	lsls	r3, r3, #31
    239c:	d401      	bmi.n	23a2 <_vfprintf_r+0xfb6>
    239e:	f7ff f912 	bl	15c6 <_vfprintf_r+0x1da>
    23a2:	f7ff faa8 	bl	18f6 <_vfprintf_r+0x50a>
    23a6:	2380      	movs	r3, #128	@ 0x80
    23a8:	4398      	bics	r0, r3
    23aa:	9a16      	ldr	r2, [sp, #88]	@ 0x58
    23ac:	9b17      	ldr	r3, [sp, #92]	@ 0x5c
    23ae:	0011      	movs	r1, r2
    23b0:	4683      	mov	fp, r0
    23b2:	4319      	orrs	r1, r3
    23b4:	d001      	beq.n	23ba <_vfprintf_r+0xfce>
    23b6:	f7ff faf2 	bl	199e <_vfprintf_r+0x5b2>
    23ba:	9b0a      	ldr	r3, [sp, #40]	@ 0x28
    23bc:	2b00      	cmp	r3, #0
    23be:	d100      	bne.n	23c2 <_vfprintf_r+0xfd6>
    23c0:	e0b8      	b.n	2534 <_vfprintf_r+0x1148>
    23c2:	2300      	movs	r3, #0
    23c4:	2400      	movs	r4, #0
    23c6:	9316      	str	r3, [sp, #88]	@ 0x58
    23c8:	9417      	str	r4, [sp, #92]	@ 0x5c
    23ca:	f7ff faf0 	bl	19ae <_vfprintf_r+0x5c2>
    23ce:	9b06      	ldr	r3, [sp, #24]
    23d0:	9210      	str	r2, [sp, #64]	@ 0x40
    23d2:	781b      	ldrb	r3, [r3, #0]
    23d4:	f7ff f88a 	bl	14ec <_vfprintf_r+0x100>
    23d8:	9a12      	ldr	r2, [sp, #72]	@ 0x48
    23da:	4690      	mov	r8, r2
    23dc:	2200      	movs	r2, #0
    23de:	9212      	str	r2, [sp, #72]	@ 0x48
    23e0:	f7ff f8b3 	bl	154a <_vfprintf_r+0x15e>
    23e4:	4b62      	ldr	r3, [pc, #392]	@ (2570 <_vfprintf_r+0x1184>)
    23e6:	3401      	adds	r4, #1
    23e8:	6033      	str	r3, [r6, #0]
    23ea:	2301      	movs	r3, #1
    23ec:	6073      	str	r3, [r6, #4]
    23ee:	687b      	ldr	r3, [r7, #4]
    23f0:	60bc      	str	r4, [r7, #8]
    23f2:	3301      	adds	r3, #1
    23f4:	607b      	str	r3, [r7, #4]
    23f6:	2b07      	cmp	r3, #7
    23f8:	dd01      	ble.n	23fe <_vfprintf_r+0x1012>
    23fa:	f000 fe2d 	bl	3058 <_vfprintf_r+0x1c6c>
    23fe:	3608      	adds	r6, #8
    2400:	2800      	cmp	r0, #0
    2402:	d000      	beq.n	2406 <_vfprintf_r+0x101a>
    2404:	e254      	b.n	28b0 <_vfprintf_r+0x14c4>
    2406:	465a      	mov	r2, fp
    2408:	2301      	movs	r3, #1
    240a:	4013      	ands	r3, r2
    240c:	9a11      	ldr	r2, [sp, #68]	@ 0x44
    240e:	4313      	orrs	r3, r2
    2410:	d101      	bne.n	2416 <_vfprintf_r+0x102a>
    2412:	f7ff f8d8 	bl	15c6 <_vfprintf_r+0x1da>
    2416:	9b1c      	ldr	r3, [sp, #112]	@ 0x70
    2418:	6033      	str	r3, [r6, #0]
    241a:	9b1b      	ldr	r3, [sp, #108]	@ 0x6c
    241c:	1919      	adds	r1, r3, r4
    241e:	6073      	str	r3, [r6, #4]
    2420:	687b      	ldr	r3, [r7, #4]
    2422:	60b9      	str	r1, [r7, #8]
    2424:	3301      	adds	r3, #1
    2426:	607b      	str	r3, [r7, #4]
    2428:	2b07      	cmp	r3, #7
    242a:	dd01      	ble.n	2430 <_vfprintf_r+0x1044>
    242c:	f000 fc2d 	bl	2c8a <_vfprintf_r+0x189e>
    2430:	0032      	movs	r2, r6
    2432:	3208      	adds	r2, #8
    2434:	e24e      	b.n	28d4 <_vfprintf_r+0x14e8>
    2436:	9309      	str	r3, [sp, #36]	@ 0x24
    2438:	2300      	movs	r3, #0
    243a:	931a      	str	r3, [sp, #104]	@ 0x68
    243c:	9315      	str	r3, [sp, #84]	@ 0x54
    243e:	930f      	str	r3, [sp, #60]	@ 0x3c
    2440:	f7ff f873 	bl	152a <_vfprintf_r+0x13e>
    2444:	9818      	ldr	r0, [sp, #96]	@ 0x60
    2446:	9919      	ldr	r1, [sp, #100]	@ 0x64
    2448:	0002      	movs	r2, r0
    244a:	000b      	movs	r3, r1
    244c:	f006 fd8e 	bl	8f6c <__aeabi_dcmpun>
    2450:	2800      	cmp	r0, #0
    2452:	d001      	beq.n	2458 <_vfprintf_r+0x106c>
    2454:	f001 f838 	bl	34c8 <_vfprintf_r+0x20dc>
    2458:	464b      	mov	r3, r9
    245a:	2b61      	cmp	r3, #97	@ 0x61
    245c:	d101      	bne.n	2462 <_vfprintf_r+0x1076>
    245e:	f000 fe59 	bl	3114 <_vfprintf_r+0x1d28>
    2462:	2b41      	cmp	r3, #65	@ 0x41
    2464:	d100      	bne.n	2468 <_vfprintf_r+0x107c>
    2466:	e337      	b.n	2ad8 <_vfprintf_r+0x16ec>
    2468:	9b0a      	ldr	r3, [sp, #40]	@ 0x28
    246a:	3301      	adds	r3, #1
    246c:	d101      	bne.n	2472 <_vfprintf_r+0x1086>
    246e:	f000 ffcc 	bl	340a <_vfprintf_r+0x201e>
    2472:	2380      	movs	r3, #128	@ 0x80
    2474:	465a      	mov	r2, fp
    2476:	005b      	lsls	r3, r3, #1
    2478:	431a      	orrs	r2, r3
    247a:	4692      	mov	sl, r2
    247c:	464a      	mov	r2, r9
    247e:	9b19      	ldr	r3, [sp, #100]	@ 0x64
    2480:	2a67      	cmp	r2, #103	@ 0x67
    2482:	d101      	bne.n	2488 <_vfprintf_r+0x109c>
    2484:	f000 ffa1 	bl	33ca <_vfprintf_r+0x1fde>
    2488:	2200      	movs	r2, #0
    248a:	920f      	str	r2, [sp, #60]	@ 0x3c
    248c:	464a      	mov	r2, r9
    248e:	2a47      	cmp	r2, #71	@ 0x47
    2490:	d101      	bne.n	2496 <_vfprintf_r+0x10aa>
    2492:	f000 ff9a 	bl	33ca <_vfprintf_r+0x1fde>
    2496:	2380      	movs	r3, #128	@ 0x80
    2498:	465a      	mov	r2, fp
    249a:	005b      	lsls	r3, r3, #1
    249c:	431a      	orrs	r2, r3
    249e:	4692      	mov	sl, r2
    24a0:	9918      	ldr	r1, [sp, #96]	@ 0x60
    24a2:	9a19      	ldr	r2, [sp, #100]	@ 0x64
    24a4:	2a00      	cmp	r2, #0
    24a6:	da01      	bge.n	24ac <_vfprintf_r+0x10c0>
    24a8:	f000 ff75 	bl	3396 <_vfprintf_r+0x1faa>
    24ac:	9b18      	ldr	r3, [sp, #96]	@ 0x60
    24ae:	9c19      	ldr	r4, [sp, #100]	@ 0x64
    24b0:	9324      	str	r3, [sp, #144]	@ 0x90
    24b2:	9425      	str	r4, [sp, #148]	@ 0x94
    24b4:	2300      	movs	r3, #0
    24b6:	9312      	str	r3, [sp, #72]	@ 0x48
    24b8:	464b      	mov	r3, r9
    24ba:	3b41      	subs	r3, #65	@ 0x41
    24bc:	2b25      	cmp	r3, #37	@ 0x25
    24be:	d901      	bls.n	24c4 <_vfprintf_r+0x10d8>
    24c0:	f000 fc00 	bl	2cc4 <_vfprintf_r+0x18d8>
    24c4:	4a2b      	ldr	r2, [pc, #172]	@ (2574 <_vfprintf_r+0x1188>)
    24c6:	009b      	lsls	r3, r3, #2
    24c8:	58d3      	ldr	r3, [r2, r3]
    24ca:	469f      	mov	pc, r3
    24cc:	9b10      	ldr	r3, [sp, #64]	@ 0x40
    24ce:	1d19      	adds	r1, r3, #4
    24d0:	9b10      	ldr	r3, [sp, #64]	@ 0x40
    24d2:	2200      	movs	r2, #0
    24d4:	681b      	ldr	r3, [r3, #0]
    24d6:	9110      	str	r1, [sp, #64]	@ 0x40
    24d8:	f7ff faad 	bl	1a36 <_vfprintf_r+0x64a>
    24dc:	680a      	ldr	r2, [r1, #0]
    24de:	990b      	ldr	r1, [sp, #44]	@ 0x2c
    24e0:	9310      	str	r3, [sp, #64]	@ 0x40
    24e2:	6011      	str	r1, [r2, #0]
    24e4:	17c9      	asrs	r1, r1, #31
    24e6:	6051      	str	r1, [r2, #4]
    24e8:	f7ff fb74 	bl	1bd4 <_vfprintf_r+0x7e8>
    24ec:	0020      	movs	r0, r4
    24ee:	f7ff fa97 	bl	1a20 <_vfprintf_r+0x634>
    24f2:	0020      	movs	r0, r4
    24f4:	f7ff fa41 	bl	197a <_vfprintf_r+0x58e>
    24f8:	4693      	mov	fp, r2
    24fa:	f7ff f919 	bl	1730 <_vfprintf_r+0x344>
    24fe:	9b10      	ldr	r3, [sp, #64]	@ 0x40
    2500:	1d19      	adds	r1, r3, #4
    2502:	9b10      	ldr	r3, [sp, #64]	@ 0x40
    2504:	aa20      	add	r2, sp, #128	@ 0x80
    2506:	681b      	ldr	r3, [r3, #0]
    2508:	9316      	str	r3, [sp, #88]	@ 0x58
    250a:	2300      	movs	r3, #0
    250c:	9317      	str	r3, [sp, #92]	@ 0x5c
    250e:	76d3      	strb	r3, [r2, #27]
    2510:	9b0a      	ldr	r3, [sp, #40]	@ 0x28
    2512:	2b00      	cmp	r3, #0
    2514:	da01      	bge.n	251a <_vfprintf_r+0x112e>
    2516:	f000 fd94 	bl	3042 <_vfprintf_r+0x1c56>
    251a:	2380      	movs	r3, #128	@ 0x80
    251c:	4398      	bics	r0, r3
    251e:	9b16      	ldr	r3, [sp, #88]	@ 0x58
    2520:	4683      	mov	fp, r0
    2522:	2b00      	cmp	r3, #0
    2524:	d001      	beq.n	252a <_vfprintf_r+0x113e>
    2526:	f7ff fbff 	bl	1d28 <_vfprintf_r+0x93c>
    252a:	9b0a      	ldr	r3, [sp, #40]	@ 0x28
    252c:	9110      	str	r1, [sp, #64]	@ 0x40
    252e:	2b00      	cmp	r3, #0
    2530:	d000      	beq.n	2534 <_vfprintf_r+0x1148>
    2532:	e746      	b.n	23c2 <_vfprintf_r+0xfd6>
    2534:	930c      	str	r3, [sp, #48]	@ 0x30
    2536:	931a      	str	r3, [sp, #104]	@ 0x68
    2538:	9315      	str	r3, [sp, #84]	@ 0x54
    253a:	9314      	str	r3, [sp, #80]	@ 0x50
    253c:	9309      	str	r3, [sp, #36]	@ 0x24
    253e:	930f      	str	r3, [sp, #60]	@ 0x3c
    2540:	ad5a      	add	r5, sp, #360	@ 0x168
    2542:	f7fe fff2 	bl	152a <_vfprintf_r+0x13e>
    2546:	0022      	movs	r2, r4
    2548:	9910      	ldr	r1, [sp, #64]	@ 0x40
    254a:	c908      	ldmia	r1!, {r3}
    254c:	06d2      	lsls	r2, r2, #27
    254e:	d501      	bpl.n	2554 <_vfprintf_r+0x1168>
    2550:	f000 ff1e 	bl	3390 <_vfprintf_r+0x1fa4>
    2554:	0022      	movs	r2, r4
    2556:	0652      	lsls	r2, r2, #25
    2558:	d400      	bmi.n	255c <_vfprintf_r+0x1170>
    255a:	e254      	b.n	2a06 <_vfprintf_r+0x161a>
    255c:	b21b      	sxth	r3, r3
    255e:	9316      	str	r3, [sp, #88]	@ 0x58
    2560:	17db      	asrs	r3, r3, #31
    2562:	9317      	str	r3, [sp, #92]	@ 0x5c
    2564:	9110      	str	r1, [sp, #64]	@ 0x40
    2566:	f7ff f8ef 	bl	1748 <_vfprintf_r+0x35c>
    256a:	46c0      	nop			@ (mov r8, r8)
    256c:	00009430 	.word	0x00009430
    2570:	0000912c 	.word	0x0000912c
    2574:	00009398 	.word	0x00009398
    2578:	2002      	movs	r0, #2
    257a:	465c      	mov	r4, fp
    257c:	9110      	str	r1, [sp, #64]	@ 0x40
    257e:	2102      	movs	r1, #2
    2580:	4304      	orrs	r4, r0
    2582:	46a3      	mov	fp, r4
    2584:	4ce4      	ldr	r4, [pc, #912]	@ (2918 <_vfprintf_r+0x152c>)
    2586:	468c      	mov	ip, r1
    2588:	3176      	adds	r1, #118	@ 0x76
    258a:	46a0      	mov	r8, r4
    258c:	4689      	mov	r9, r1
    258e:	300d      	adds	r0, #13
    2590:	4018      	ands	r0, r3
    2592:	5c25      	ldrb	r5, [r4, r0]
    2594:	2484      	movs	r4, #132	@ 0x84
    2596:	2163      	movs	r1, #99	@ 0x63
    2598:	a820      	add	r0, sp, #128	@ 0x80
    259a:	1900      	adds	r0, r0, r4
    259c:	5445      	strb	r5, [r0, r1]
    259e:	091b      	lsrs	r3, r3, #4
    25a0:	0711      	lsls	r1, r2, #28
    25a2:	a820      	add	r0, sp, #128	@ 0x80
    25a4:	430b      	orrs	r3, r1
    25a6:	4682      	mov	sl, r0
    25a8:	0019      	movs	r1, r3
    25aa:	25e7      	movs	r5, #231	@ 0xe7
    25ac:	0912      	lsrs	r2, r2, #4
    25ae:	200f      	movs	r0, #15
    25b0:	4644      	mov	r4, r8
    25b2:	4311      	orrs	r1, r2
    25b4:	4455      	add	r5, sl
    25b6:	2900      	cmp	r1, #0
    25b8:	d00b      	beq.n	25d2 <_vfprintf_r+0x11e6>
    25ba:	0019      	movs	r1, r3
    25bc:	4001      	ands	r1, r0
    25be:	5c61      	ldrb	r1, [r4, r1]
    25c0:	3d01      	subs	r5, #1
    25c2:	7029      	strb	r1, [r5, #0]
    25c4:	091b      	lsrs	r3, r3, #4
    25c6:	0711      	lsls	r1, r2, #28
    25c8:	430b      	orrs	r3, r1
    25ca:	0019      	movs	r1, r3
    25cc:	0912      	lsrs	r2, r2, #4
    25ce:	4311      	orrs	r1, r2
    25d0:	d1f3      	bne.n	25ba <_vfprintf_r+0x11ce>
    25d2:	9a0a      	ldr	r2, [sp, #40]	@ 0x28
    25d4:	ab5a      	add	r3, sp, #360	@ 0x168
    25d6:	1b5b      	subs	r3, r3, r5
    25d8:	930c      	str	r3, [sp, #48]	@ 0x30
    25da:	9209      	str	r2, [sp, #36]	@ 0x24
    25dc:	429a      	cmp	r2, r3
    25de:	da00      	bge.n	25e2 <_vfprintf_r+0x11f6>
    25e0:	9309      	str	r3, [sp, #36]	@ 0x24
    25e2:	2300      	movs	r3, #0
    25e4:	2100      	movs	r1, #0
    25e6:	930f      	str	r3, [sp, #60]	@ 0x3c
    25e8:	931a      	str	r3, [sp, #104]	@ 0x68
    25ea:	9315      	str	r3, [sp, #84]	@ 0x54
    25ec:	9314      	str	r3, [sp, #80]	@ 0x50
    25ee:	4663      	mov	r3, ip
    25f0:	2b00      	cmp	r3, #0
    25f2:	d101      	bne.n	25f8 <_vfprintf_r+0x120c>
    25f4:	f7fe ff99 	bl	152a <_vfprintf_r+0x13e>
    25f8:	2284      	movs	r2, #132	@ 0x84
    25fa:	465b      	mov	r3, fp
    25fc:	4658      	mov	r0, fp
    25fe:	4013      	ands	r3, r2
    2600:	9312      	str	r3, [sp, #72]	@ 0x48
    2602:	9b09      	ldr	r3, [sp, #36]	@ 0x24
    2604:	68bc      	ldr	r4, [r7, #8]
    2606:	3302      	adds	r3, #2
    2608:	9309      	str	r3, [sp, #36]	@ 0x24
    260a:	687b      	ldr	r3, [r7, #4]
    260c:	4202      	tst	r2, r0
    260e:	d106      	bne.n	261e <_vfprintf_r+0x1232>
    2610:	9a0e      	ldr	r2, [sp, #56]	@ 0x38
    2612:	9809      	ldr	r0, [sp, #36]	@ 0x24
    2614:	1a12      	subs	r2, r2, r0
    2616:	4690      	mov	r8, r2
    2618:	2a00      	cmp	r2, #0
    261a:	dd00      	ble.n	261e <_vfprintf_r+0x1232>
    261c:	e4d4      	b.n	1fc8 <_vfprintf_r+0xbdc>
    261e:	2900      	cmp	r1, #0
    2620:	d101      	bne.n	2626 <_vfprintf_r+0x123a>
    2622:	f7fe ffa6 	bl	1572 <_vfprintf_r+0x186>
    2626:	2202      	movs	r2, #2
    2628:	4690      	mov	r8, r2
    262a:	f7fe ff8e 	bl	154a <_vfprintf_r+0x15e>
    262e:	9a0a      	ldr	r2, [sp, #40]	@ 0x28
    2630:	ab5a      	add	r3, sp, #360	@ 0x168
    2632:	1b5b      	subs	r3, r3, r5
    2634:	930c      	str	r3, [sp, #48]	@ 0x30
    2636:	9209      	str	r2, [sp, #36]	@ 0x24
    2638:	429a      	cmp	r2, r3
    263a:	db01      	blt.n	2640 <_vfprintf_r+0x1254>
    263c:	f7ff f9d2 	bl	19e4 <_vfprintf_r+0x5f8>
    2640:	f7ff f9cf 	bl	19e2 <_vfprintf_r+0x5f6>
    2644:	003a      	movs	r2, r7
    2646:	9908      	ldr	r1, [sp, #32]
    2648:	9807      	ldr	r0, [sp, #28]
    264a:	f001 f8f7 	bl	383c <__sprint_r>
    264e:	2800      	cmp	r0, #0
    2650:	d000      	beq.n	2654 <_vfprintf_r+0x1268>
    2652:	e439      	b.n	1ec8 <_vfprintf_r+0xadc>
    2654:	68bc      	ldr	r4, [r7, #8]
    2656:	ae31      	add	r6, sp, #196	@ 0xc4
    2658:	f7fe ff9d 	bl	1596 <_vfprintf_r+0x1aa>
    265c:	4699      	mov	r9, r3
    265e:	4baf      	ldr	r3, [pc, #700]	@ (291c <_vfprintf_r+0x1530>)
    2660:	46a3      	mov	fp, r4
    2662:	4698      	mov	r8, r3
    2664:	465b      	mov	r3, fp
    2666:	069b      	lsls	r3, r3, #26
    2668:	d55c      	bpl.n	2724 <_vfprintf_r+0x1338>
    266a:	2307      	movs	r3, #7
    266c:	9a10      	ldr	r2, [sp, #64]	@ 0x40
    266e:	3207      	adds	r2, #7
    2670:	439a      	bics	r2, r3
    2672:	0011      	movs	r1, r2
    2674:	6813      	ldr	r3, [r2, #0]
    2676:	6852      	ldr	r2, [r2, #4]
    2678:	3108      	adds	r1, #8
    267a:	2001      	movs	r0, #1
    267c:	465d      	mov	r5, fp
    267e:	465c      	mov	r4, fp
    2680:	4005      	ands	r5, r0
    2682:	4220      	tst	r0, r4
    2684:	d059      	beq.n	273a <_vfprintf_r+0x134e>
    2686:	0018      	movs	r0, r3
    2688:	4310      	orrs	r0, r2
    268a:	d100      	bne.n	268e <_vfprintf_r+0x12a2>
    268c:	e0e3      	b.n	2856 <_vfprintf_r+0x146a>
    268e:	464c      	mov	r4, r9
    2690:	2530      	movs	r5, #48	@ 0x30
    2692:	a827      	add	r0, sp, #156	@ 0x9c
    2694:	7044      	strb	r4, [r0, #1]
    2696:	7005      	strb	r5, [r0, #0]
    2698:	2000      	movs	r0, #0
    269a:	ac20      	add	r4, sp, #128	@ 0x80
    269c:	76e0      	strb	r0, [r4, #27]
    269e:	980a      	ldr	r0, [sp, #40]	@ 0x28
    26a0:	2800      	cmp	r0, #0
    26a2:	da00      	bge.n	26a6 <_vfprintf_r+0x12ba>
    26a4:	e098      	b.n	27d8 <_vfprintf_r+0x13ec>
    26a6:	465c      	mov	r4, fp
    26a8:	489d      	ldr	r0, [pc, #628]	@ (2920 <_vfprintf_r+0x1534>)
    26aa:	2502      	movs	r5, #2
    26ac:	4004      	ands	r4, r0
    26ae:	0020      	movs	r0, r4
    26b0:	4328      	orrs	r0, r5
    26b2:	4683      	mov	fp, r0
    26b4:	2002      	movs	r0, #2
    26b6:	465c      	mov	r4, fp
    26b8:	250f      	movs	r5, #15
    26ba:	4004      	ands	r4, r0
    26bc:	4640      	mov	r0, r8
    26be:	401d      	ands	r5, r3
    26c0:	46a4      	mov	ip, r4
    26c2:	5d45      	ldrb	r5, [r0, r5]
    26c4:	9110      	str	r1, [sp, #64]	@ 0x40
    26c6:	e765      	b.n	2594 <_vfprintf_r+0x11a8>
    26c8:	4699      	mov	r9, r3
    26ca:	4b93      	ldr	r3, [pc, #588]	@ (2918 <_vfprintf_r+0x152c>)
    26cc:	46a3      	mov	fp, r4
    26ce:	4698      	mov	r8, r3
    26d0:	e7c8      	b.n	2664 <_vfprintf_r+0x1278>
    26d2:	003a      	movs	r2, r7
    26d4:	9908      	ldr	r1, [sp, #32]
    26d6:	9807      	ldr	r0, [sp, #28]
    26d8:	f001 f8b0 	bl	383c <__sprint_r>
    26dc:	2800      	cmp	r0, #0
    26de:	d001      	beq.n	26e4 <_vfprintf_r+0x12f8>
    26e0:	f7ff fbf2 	bl	1ec8 <_vfprintf_r+0xadc>
    26e4:	68bc      	ldr	r4, [r7, #8]
    26e6:	ae31      	add	r6, sp, #196	@ 0xc4
    26e8:	f7ff f914 	bl	1914 <_vfprintf_r+0x528>
    26ec:	3399      	adds	r3, #153	@ 0x99
    26ee:	33ff      	adds	r3, #255	@ 0xff
    26f0:	9a06      	ldr	r2, [sp, #24]
    26f2:	431c      	orrs	r4, r3
    26f4:	3201      	adds	r2, #1
    26f6:	7813      	ldrb	r3, [r2, #0]
    26f8:	9206      	str	r2, [sp, #24]
    26fa:	f7fe fef7 	bl	14ec <_vfprintf_r+0x100>
    26fe:	3b4c      	subs	r3, #76	@ 0x4c
    2700:	e7f6      	b.n	26f0 <_vfprintf_r+0x1304>
    2702:	9309      	str	r3, [sp, #36]	@ 0x24
    2704:	2b06      	cmp	r3, #6
    2706:	d900      	bls.n	270a <_vfprintf_r+0x131e>
    2708:	e1af      	b.n	2a6a <_vfprintf_r+0x167e>
    270a:	2300      	movs	r3, #0
    270c:	930f      	str	r3, [sp, #60]	@ 0x3c
    270e:	9b09      	ldr	r3, [sp, #36]	@ 0x24
    2710:	4d84      	ldr	r5, [pc, #528]	@ (2924 <_vfprintf_r+0x1538>)
    2712:	930c      	str	r3, [sp, #48]	@ 0x30
    2714:	2300      	movs	r3, #0
    2716:	9410      	str	r4, [sp, #64]	@ 0x40
    2718:	930a      	str	r3, [sp, #40]	@ 0x28
    271a:	931a      	str	r3, [sp, #104]	@ 0x68
    271c:	9315      	str	r3, [sp, #84]	@ 0x54
    271e:	9314      	str	r3, [sp, #80]	@ 0x50
    2720:	f7fe ff03 	bl	152a <_vfprintf_r+0x13e>
    2724:	465a      	mov	r2, fp
    2726:	9910      	ldr	r1, [sp, #64]	@ 0x40
    2728:	c908      	ldmia	r1!, {r3}
    272a:	06d2      	lsls	r2, r2, #27
    272c:	d452      	bmi.n	27d4 <_vfprintf_r+0x13e8>
    272e:	465a      	mov	r2, fp
    2730:	0652      	lsls	r2, r2, #25
    2732:	d54b      	bpl.n	27cc <_vfprintf_r+0x13e0>
    2734:	2200      	movs	r2, #0
    2736:	b29b      	uxth	r3, r3
    2738:	e79f      	b.n	267a <_vfprintf_r+0x128e>
    273a:	a820      	add	r0, sp, #128	@ 0x80
    273c:	76c5      	strb	r5, [r0, #27]
    273e:	980a      	ldr	r0, [sp, #40]	@ 0x28
    2740:	2800      	cmp	r0, #0
    2742:	db4d      	blt.n	27e0 <_vfprintf_r+0x13f4>
    2744:	4876      	ldr	r0, [pc, #472]	@ (2920 <_vfprintf_r+0x1534>)
    2746:	4004      	ands	r4, r0
    2748:	0018      	movs	r0, r3
    274a:	46a3      	mov	fp, r4
    274c:	4310      	orrs	r0, r2
    274e:	d1b1      	bne.n	26b4 <_vfprintf_r+0x12c8>
    2750:	980a      	ldr	r0, [sp, #40]	@ 0x28
    2752:	2800      	cmp	r0, #0
    2754:	d100      	bne.n	2758 <_vfprintf_r+0x136c>
    2756:	e09d      	b.n	2894 <_vfprintf_r+0x14a8>
    2758:	4643      	mov	r3, r8
    275a:	2584      	movs	r5, #132	@ 0x84
    275c:	781a      	ldrb	r2, [r3, #0]
    275e:	2363      	movs	r3, #99	@ 0x63
    2760:	ac20      	add	r4, sp, #128	@ 0x80
    2762:	1964      	adds	r4, r4, r5
    2764:	54e2      	strb	r2, [r4, r3]
    2766:	9009      	str	r0, [sp, #36]	@ 0x24
    2768:	2800      	cmp	r0, #0
    276a:	dc00      	bgt.n	276e <_vfprintf_r+0x1382>
    276c:	e196      	b.n	2a9c <_vfprintf_r+0x16b0>
    276e:	2300      	movs	r3, #0
    2770:	930f      	str	r3, [sp, #60]	@ 0x3c
    2772:	3301      	adds	r3, #1
    2774:	930c      	str	r3, [sp, #48]	@ 0x30
    2776:	2300      	movs	r3, #0
    2778:	931a      	str	r3, [sp, #104]	@ 0x68
    277a:	9315      	str	r3, [sp, #84]	@ 0x54
    277c:	9314      	str	r3, [sp, #80]	@ 0x50
    277e:	ab20      	add	r3, sp, #128	@ 0x80
    2780:	25e7      	movs	r5, #231	@ 0xe7
    2782:	469c      	mov	ip, r3
    2784:	9110      	str	r1, [sp, #64]	@ 0x40
    2786:	4465      	add	r5, ip
    2788:	f7fe fecf 	bl	152a <_vfprintf_r+0x13e>
    278c:	003a      	movs	r2, r7
    278e:	9908      	ldr	r1, [sp, #32]
    2790:	9807      	ldr	r0, [sp, #28]
    2792:	f001 f853 	bl	383c <__sprint_r>
    2796:	2800      	cmp	r0, #0
    2798:	d001      	beq.n	279e <_vfprintf_r+0x13b2>
    279a:	f7ff fb95 	bl	1ec8 <_vfprintf_r+0xadc>
    279e:	687b      	ldr	r3, [r7, #4]
    27a0:	68bc      	ldr	r4, [r7, #8]
    27a2:	4698      	mov	r8, r3
    27a4:	ab31      	add	r3, sp, #196	@ 0xc4
    27a6:	4699      	mov	r9, r3
    27a8:	f7ff fbc1 	bl	1f2e <_vfprintf_r+0xb42>
    27ac:	003a      	movs	r2, r7
    27ae:	9908      	ldr	r1, [sp, #32]
    27b0:	9807      	ldr	r0, [sp, #28]
    27b2:	f001 f843 	bl	383c <__sprint_r>
    27b6:	2800      	cmp	r0, #0
    27b8:	d001      	beq.n	27be <_vfprintf_r+0x13d2>
    27ba:	f7ff fb85 	bl	1ec8 <_vfprintf_r+0xadc>
    27be:	687b      	ldr	r3, [r7, #4]
    27c0:	68bc      	ldr	r4, [r7, #8]
    27c2:	4698      	mov	r8, r3
    27c4:	ab31      	add	r3, sp, #196	@ 0xc4
    27c6:	4699      	mov	r9, r3
    27c8:	f7ff fbc6 	bl	1f58 <_vfprintf_r+0xb6c>
    27cc:	465a      	mov	r2, fp
    27ce:	0592      	lsls	r2, r2, #22
    27d0:	d500      	bpl.n	27d4 <_vfprintf_r+0x13e8>
    27d2:	e171      	b.n	2ab8 <_vfprintf_r+0x16cc>
    27d4:	2200      	movs	r2, #0
    27d6:	e750      	b.n	267a <_vfprintf_r+0x128e>
    27d8:	465c      	mov	r4, fp
    27da:	2002      	movs	r0, #2
    27dc:	4304      	orrs	r4, r0
    27de:	46a3      	mov	fp, r4
    27e0:	2002      	movs	r0, #2
    27e2:	465c      	mov	r4, fp
    27e4:	250f      	movs	r5, #15
    27e6:	4004      	ands	r4, r0
    27e8:	4640      	mov	r0, r8
    27ea:	46a4      	mov	ip, r4
    27ec:	465c      	mov	r4, fp
    27ee:	401d      	ands	r5, r3
    27f0:	5d45      	ldrb	r5, [r0, r5]
    27f2:	484d      	ldr	r0, [pc, #308]	@ (2928 <_vfprintf_r+0x153c>)
    27f4:	9110      	str	r1, [sp, #64]	@ 0x40
    27f6:	4004      	ands	r4, r0
    27f8:	46a3      	mov	fp, r4
    27fa:	e6cb      	b.n	2594 <_vfprintf_r+0x11a8>
    27fc:	4643      	mov	r3, r8
    27fe:	6d98      	ldr	r0, [r3, #88]	@ 0x58
    2800:	f7fe f94a 	bl	a98 <__retarget_lock_release_recursive>
    2804:	4643      	mov	r3, r8
    2806:	220c      	movs	r2, #12
    2808:	5e9b      	ldrsh	r3, [r3, r2]
    280a:	f7ff fb70 	bl	1eee <_vfprintf_r+0xb02>
    280e:	2300      	movs	r3, #0
    2810:	ad5a      	add	r5, sp, #360	@ 0x168
    2812:	930c      	str	r3, [sp, #48]	@ 0x30
    2814:	931a      	str	r3, [sp, #104]	@ 0x68
    2816:	9315      	str	r3, [sp, #84]	@ 0x54
    2818:	9314      	str	r3, [sp, #80]	@ 0x50
    281a:	930f      	str	r3, [sp, #60]	@ 0x3c
    281c:	f7fe fe85 	bl	152a <_vfprintf_r+0x13e>
    2820:	003a      	movs	r2, r7
    2822:	9908      	ldr	r1, [sp, #32]
    2824:	9807      	ldr	r0, [sp, #28]
    2826:	f001 f809 	bl	383c <__sprint_r>
    282a:	2800      	cmp	r0, #0
    282c:	d001      	beq.n	2832 <_vfprintf_r+0x1446>
    282e:	f7ff fb4b 	bl	1ec8 <_vfprintf_r+0xadc>
    2832:	ab20      	add	r3, sp, #128	@ 0x80
    2834:	7edb      	ldrb	r3, [r3, #27]
    2836:	68bc      	ldr	r4, [r7, #8]
    2838:	2b00      	cmp	r3, #0
    283a:	d077      	beq.n	292c <_vfprintf_r+0x1540>
    283c:	9a12      	ldr	r2, [sp, #72]	@ 0x48
    283e:	687b      	ldr	r3, [r7, #4]
    2840:	4690      	mov	r8, r2
    2842:	2200      	movs	r2, #0
    2844:	ae31      	add	r6, sp, #196	@ 0xc4
    2846:	9212      	str	r2, [sp, #72]	@ 0x48
    2848:	f7fe fe7f 	bl	154a <_vfprintf_r+0x15e>
    284c:	9807      	ldr	r0, [sp, #28]
    284e:	f001 f98f 	bl	3b70 <__sinit>
    2852:	f7fe fde7 	bl	1424 <_vfprintf_r+0x38>
    2856:	ab20      	add	r3, sp, #128	@ 0x80
    2858:	76d8      	strb	r0, [r3, #27]
    285a:	9b0a      	ldr	r3, [sp, #40]	@ 0x28
    285c:	2b00      	cmp	r3, #0
    285e:	da00      	bge.n	2862 <_vfprintf_r+0x1476>
    2860:	e3ca      	b.n	2ff8 <_vfprintf_r+0x1c0c>
    2862:	465a      	mov	r2, fp
    2864:	4b2e      	ldr	r3, [pc, #184]	@ (2920 <_vfprintf_r+0x1534>)
    2866:	401a      	ands	r2, r3
    2868:	4693      	mov	fp, r2
    286a:	e771      	b.n	2750 <_vfprintf_r+0x1364>
    286c:	003a      	movs	r2, r7
    286e:	9908      	ldr	r1, [sp, #32]
    2870:	9807      	ldr	r0, [sp, #28]
    2872:	f000 ffe3 	bl	383c <__sprint_r>
    2876:	2800      	cmp	r0, #0
    2878:	d001      	beq.n	287e <_vfprintf_r+0x1492>
    287a:	f7ff fb25 	bl	1ec8 <_vfprintf_r+0xadc>
    287e:	68bc      	ldr	r4, [r7, #8]
    2880:	ae31      	add	r6, sp, #196	@ 0xc4
    2882:	f7ff f832 	bl	18ea <_vfprintf_r+0x4fe>
    2886:	9a10      	ldr	r2, [sp, #64]	@ 0x40
    2888:	990b      	ldr	r1, [sp, #44]	@ 0x2c
    288a:	6812      	ldr	r2, [r2, #0]
    288c:	6011      	str	r1, [r2, #0]
    288e:	9310      	str	r3, [sp, #64]	@ 0x40
    2890:	f7ff f9a0 	bl	1bd4 <_vfprintf_r+0x7e8>
    2894:	2300      	movs	r3, #0
    2896:	9110      	str	r1, [sp, #64]	@ 0x40
    2898:	e64c      	b.n	2534 <_vfprintf_r+0x1148>
    289a:	200f      	movs	r0, #15
    289c:	4c1e      	ldr	r4, [pc, #120]	@ (2918 <_vfprintf_r+0x152c>)
    289e:	4018      	ands	r0, r3
    28a0:	5c25      	ldrb	r5, [r4, r0]
    28a2:	2002      	movs	r0, #2
    28a4:	4684      	mov	ip, r0
    28a6:	3076      	adds	r0, #118	@ 0x76
    28a8:	46a0      	mov	r8, r4
    28aa:	4681      	mov	r9, r0
    28ac:	9110      	str	r1, [sp, #64]	@ 0x40
    28ae:	e671      	b.n	2594 <_vfprintf_r+0x11a8>
    28b0:	9b1c      	ldr	r3, [sp, #112]	@ 0x70
    28b2:	6033      	str	r3, [r6, #0]
    28b4:	9b1b      	ldr	r3, [sp, #108]	@ 0x6c
    28b6:	1919      	adds	r1, r3, r4
    28b8:	6073      	str	r3, [r6, #4]
    28ba:	687b      	ldr	r3, [r7, #4]
    28bc:	60b9      	str	r1, [r7, #8]
    28be:	3301      	adds	r3, #1
    28c0:	607b      	str	r3, [r7, #4]
    28c2:	2b07      	cmp	r3, #7
    28c4:	dd00      	ble.n	28c8 <_vfprintf_r+0x14dc>
    28c6:	e1e0      	b.n	2c8a <_vfprintf_r+0x189e>
    28c8:	0032      	movs	r2, r6
    28ca:	3208      	adds	r2, #8
    28cc:	2800      	cmp	r0, #0
    28ce:	da01      	bge.n	28d4 <_vfprintf_r+0x14e8>
    28d0:	f000 fd25 	bl	331e <_vfprintf_r+0x1f32>
    28d4:	9811      	ldr	r0, [sp, #68]	@ 0x44
    28d6:	3301      	adds	r3, #1
    28d8:	1844      	adds	r4, r0, r1
    28da:	6015      	str	r5, [r2, #0]
    28dc:	6050      	str	r0, [r2, #4]
    28de:	60bc      	str	r4, [r7, #8]
    28e0:	607b      	str	r3, [r7, #4]
    28e2:	2b07      	cmp	r3, #7
    28e4:	dd01      	ble.n	28ea <_vfprintf_r+0x14fe>
    28e6:	f7fe ff09 	bl	16fc <_vfprintf_r+0x310>
    28ea:	3208      	adds	r2, #8
    28ec:	0016      	movs	r6, r2
    28ee:	f7fe fe6a 	bl	15c6 <_vfprintf_r+0x1da>
    28f2:	0028      	movs	r0, r5
    28f4:	f001 fdca 	bl	448c <strlen>
    28f8:	43c3      	mvns	r3, r0
    28fa:	0002      	movs	r2, r0
    28fc:	17db      	asrs	r3, r3, #31
    28fe:	401a      	ands	r2, r3
    2900:	ab20      	add	r3, sp, #128	@ 0x80
    2902:	7edb      	ldrb	r3, [r3, #27]
    2904:	900c      	str	r0, [sp, #48]	@ 0x30
    2906:	9209      	str	r2, [sp, #36]	@ 0x24
    2908:	2b00      	cmp	r3, #0
    290a:	d101      	bne.n	2910 <_vfprintf_r+0x1524>
    290c:	f7fe ff70 	bl	17f0 <_vfprintf_r+0x404>
    2910:	3201      	adds	r2, #1
    2912:	9209      	str	r2, [sp, #36]	@ 0x24
    2914:	f7fe ff6c 	bl	17f0 <_vfprintf_r+0x404>
    2918:	000090fc 	.word	0x000090fc
    291c:	00009110 	.word	0x00009110
    2920:	fffffb7f 	.word	0xfffffb7f
    2924:	00009124 	.word	0x00009124
    2928:	fffffbff 	.word	0xfffffbff
    292c:	9b12      	ldr	r3, [sp, #72]	@ 0x48
    292e:	2b00      	cmp	r3, #0
    2930:	d100      	bne.n	2934 <_vfprintf_r+0x1548>
    2932:	e0a9      	b.n	2a88 <_vfprintf_r+0x169c>
    2934:	2200      	movs	r2, #0
    2936:	687b      	ldr	r3, [r7, #4]
    2938:	9212      	str	r2, [sp, #72]	@ 0x48
    293a:	ae31      	add	r6, sp, #196	@ 0xc4
    293c:	f7fe fe19 	bl	1572 <_vfprintf_r+0x186>
    2940:	4642      	mov	r2, r8
    2942:	687b      	ldr	r3, [r7, #4]
    2944:	2a10      	cmp	r2, #16
    2946:	dc01      	bgt.n	294c <_vfprintf_r+0x1560>
    2948:	f000 fecd 	bl	36e6 <_vfprintf_r+0x22fa>
    294c:	2210      	movs	r2, #16
    294e:	49d6      	ldr	r1, [pc, #856]	@ (2ca8 <_vfprintf_r+0x18bc>)
    2950:	4691      	mov	r9, r2
    2952:	9112      	str	r1, [sp, #72]	@ 0x48
    2954:	0022      	movs	r2, r4
    2956:	4644      	mov	r4, r8
    2958:	46a8      	mov	r8, r5
    295a:	000d      	movs	r5, r1
    295c:	e004      	b.n	2968 <_vfprintf_r+0x157c>
    295e:	3608      	adds	r6, #8
    2960:	3c10      	subs	r4, #16
    2962:	2c10      	cmp	r4, #16
    2964:	dc00      	bgt.n	2968 <_vfprintf_r+0x157c>
    2966:	e35b      	b.n	3020 <_vfprintf_r+0x1c34>
    2968:	4649      	mov	r1, r9
    296a:	3210      	adds	r2, #16
    296c:	3301      	adds	r3, #1
    296e:	6035      	str	r5, [r6, #0]
    2970:	6071      	str	r1, [r6, #4]
    2972:	60ba      	str	r2, [r7, #8]
    2974:	607b      	str	r3, [r7, #4]
    2976:	2b07      	cmp	r3, #7
    2978:	ddf1      	ble.n	295e <_vfprintf_r+0x1572>
    297a:	003a      	movs	r2, r7
    297c:	9908      	ldr	r1, [sp, #32]
    297e:	9807      	ldr	r0, [sp, #28]
    2980:	f000 ff5c 	bl	383c <__sprint_r>
    2984:	2800      	cmp	r0, #0
    2986:	d001      	beq.n	298c <_vfprintf_r+0x15a0>
    2988:	f7ff fa9e 	bl	1ec8 <_vfprintf_r+0xadc>
    298c:	68ba      	ldr	r2, [r7, #8]
    298e:	687b      	ldr	r3, [r7, #4]
    2990:	ae31      	add	r6, sp, #196	@ 0xc4
    2992:	e7e5      	b.n	2960 <_vfprintf_r+0x1574>
    2994:	000c      	movs	r4, r1
    2996:	4698      	mov	r8, r3
    2998:	4691      	mov	r9, r2
    299a:	464b      	mov	r3, r9
    299c:	9a12      	ldr	r2, [sp, #72]	@ 0x48
    299e:	19a4      	adds	r4, r4, r6
    29a0:	c344      	stmia	r3!, {r2, r6}
    29a2:	2301      	movs	r3, #1
    29a4:	469c      	mov	ip, r3
    29a6:	44e0      	add	r8, ip
    29a8:	4643      	mov	r3, r8
    29aa:	60bc      	str	r4, [r7, #8]
    29ac:	607b      	str	r3, [r7, #4]
    29ae:	2b07      	cmp	r3, #7
    29b0:	dc01      	bgt.n	29b6 <_vfprintf_r+0x15ca>
    29b2:	f7ff fae9 	bl	1f88 <_vfprintf_r+0xb9c>
    29b6:	e494      	b.n	22e2 <_vfprintf_r+0xef6>
    29b8:	2380      	movs	r3, #128	@ 0x80
    29ba:	4658      	mov	r0, fp
    29bc:	009b      	lsls	r3, r3, #2
    29be:	4018      	ands	r0, r3
    29c0:	421d      	tst	r5, r3
    29c2:	d17c      	bne.n	2abe <_vfprintf_r+0x16d2>
    29c4:	2300      	movs	r3, #0
    29c6:	9216      	str	r2, [sp, #88]	@ 0x58
    29c8:	9a0a      	ldr	r2, [sp, #40]	@ 0x28
    29ca:	9317      	str	r3, [sp, #92]	@ 0x5c
    29cc:	ab20      	add	r3, sp, #128	@ 0x80
    29ce:	76d8      	strb	r0, [r3, #27]
    29d0:	2a00      	cmp	r2, #0
    29d2:	da01      	bge.n	29d8 <_vfprintf_r+0x15ec>
    29d4:	f7ff f9a8 	bl	1d28 <_vfprintf_r+0x93c>
    29d8:	2380      	movs	r3, #128	@ 0x80
    29da:	4658      	mov	r0, fp
    29dc:	4398      	bics	r0, r3
    29de:	9b16      	ldr	r3, [sp, #88]	@ 0x58
    29e0:	4683      	mov	fp, r0
    29e2:	2b00      	cmp	r3, #0
    29e4:	d001      	beq.n	29ea <_vfprintf_r+0x15fe>
    29e6:	f7ff f99f 	bl	1d28 <_vfprintf_r+0x93c>
    29ea:	9110      	str	r1, [sp, #64]	@ 0x40
    29ec:	2a00      	cmp	r2, #0
    29ee:	d000      	beq.n	29f2 <_vfprintf_r+0x1606>
    29f0:	e4e7      	b.n	23c2 <_vfprintf_r+0xfd6>
    29f2:	e59f      	b.n	2534 <_vfprintf_r+0x1148>
    29f4:	0022      	movs	r2, r4
    29f6:	0592      	lsls	r2, r2, #22
    29f8:	d559      	bpl.n	2aae <_vfprintf_r+0x16c2>
    29fa:	2200      	movs	r2, #0
    29fc:	0020      	movs	r0, r4
    29fe:	b2db      	uxtb	r3, r3
    2a00:	9110      	str	r1, [sp, #64]	@ 0x40
    2a02:	f7ff f818 	bl	1a36 <_vfprintf_r+0x64a>
    2a06:	0022      	movs	r2, r4
    2a08:	0592      	lsls	r2, r2, #22
    2a0a:	d54a      	bpl.n	2aa2 <_vfprintf_r+0x16b6>
    2a0c:	b25b      	sxtb	r3, r3
    2a0e:	9316      	str	r3, [sp, #88]	@ 0x58
    2a10:	17db      	asrs	r3, r3, #31
    2a12:	9317      	str	r3, [sp, #92]	@ 0x5c
    2a14:	9110      	str	r1, [sp, #64]	@ 0x40
    2a16:	f7fe fe97 	bl	1748 <_vfprintf_r+0x35c>
    2a1a:	4aa3      	ldr	r2, [pc, #652]	@ (2ca8 <_vfprintf_r+0x18bc>)
    2a1c:	9212      	str	r2, [sp, #72]	@ 0x48
    2a1e:	f7fe ff37 	bl	1890 <_vfprintf_r+0x4a4>
    2a22:	003a      	movs	r2, r7
    2a24:	4641      	mov	r1, r8
    2a26:	9807      	ldr	r0, [sp, #28]
    2a28:	f000 ff08 	bl	383c <__sprint_r>
    2a2c:	2800      	cmp	r0, #0
    2a2e:	d101      	bne.n	2a34 <_vfprintf_r+0x1648>
    2a30:	f7fe fdf7 	bl	1622 <_vfprintf_r+0x236>
    2a34:	f7ff fa50 	bl	1ed8 <_vfprintf_r+0xaec>
    2a38:	2200      	movs	r2, #0
    2a3a:	ab20      	add	r3, sp, #128	@ 0x80
    2a3c:	7edb      	ldrb	r3, [r3, #27]
    2a3e:	9209      	str	r2, [sp, #36]	@ 0x24
    2a40:	920c      	str	r2, [sp, #48]	@ 0x30
    2a42:	ad5a      	add	r5, sp, #360	@ 0x168
    2a44:	f7fe ffc9 	bl	19da <_vfprintf_r+0x5ee>
    2a48:	4d98      	ldr	r5, [pc, #608]	@ (2cac <_vfprintf_r+0x18c0>)
    2a4a:	f7fe fe3d 	bl	16c8 <_vfprintf_r+0x2dc>
    2a4e:	2300      	movs	r3, #0
    2a50:	9314      	str	r3, [sp, #80]	@ 0x50
    2a52:	931a      	str	r3, [sp, #104]	@ 0x68
    2a54:	9315      	str	r3, [sp, #84]	@ 0x54
    2a56:	930c      	str	r3, [sp, #48]	@ 0x30
    2a58:	9309      	str	r3, [sp, #36]	@ 0x24
    2a5a:	3378      	adds	r3, #120	@ 0x78
    2a5c:	4699      	mov	r9, r3
    2a5e:	2300      	movs	r3, #0
    2a60:	9110      	str	r1, [sp, #64]	@ 0x40
    2a62:	ad5a      	add	r5, sp, #360	@ 0x168
    2a64:	2100      	movs	r1, #0
    2a66:	930f      	str	r3, [sp, #60]	@ 0x3c
    2a68:	e5c6      	b.n	25f8 <_vfprintf_r+0x120c>
    2a6a:	2306      	movs	r3, #6
    2a6c:	9309      	str	r3, [sp, #36]	@ 0x24
    2a6e:	e64c      	b.n	270a <_vfprintf_r+0x131e>
    2a70:	468c      	mov	ip, r1
    2a72:	4653      	mov	r3, sl
    2a74:	4465      	add	r5, ip
    2a76:	1a8a      	subs	r2, r1, r2
    2a78:	1aed      	subs	r5, r5, r3
    2a7a:	4295      	cmp	r5, r2
    2a7c:	dc01      	bgt.n	2a82 <_vfprintf_r+0x1696>
    2a7e:	f7ff fbdf 	bl	2240 <_vfprintf_r+0xe54>
    2a82:	0015      	movs	r5, r2
    2a84:	f7ff fbdc 	bl	2240 <_vfprintf_r+0xe54>
    2a88:	ae31      	add	r6, sp, #196	@ 0xc4
    2a8a:	f7fe fd84 	bl	1596 <_vfprintf_r+0x1aa>
    2a8e:	9a10      	ldr	r2, [sp, #64]	@ 0x40
    2a90:	990b      	ldr	r1, [sp, #44]	@ 0x2c
    2a92:	6812      	ldr	r2, [r2, #0]
    2a94:	9310      	str	r3, [sp, #64]	@ 0x40
    2a96:	8011      	strh	r1, [r2, #0]
    2a98:	f7ff f89c 	bl	1bd4 <_vfprintf_r+0x7e8>
    2a9c:	3b62      	subs	r3, #98	@ 0x62
    2a9e:	9309      	str	r3, [sp, #36]	@ 0x24
    2aa0:	e665      	b.n	276e <_vfprintf_r+0x1382>
    2aa2:	9316      	str	r3, [sp, #88]	@ 0x58
    2aa4:	17db      	asrs	r3, r3, #31
    2aa6:	9317      	str	r3, [sp, #92]	@ 0x5c
    2aa8:	9110      	str	r1, [sp, #64]	@ 0x40
    2aaa:	f7fe fe4d 	bl	1748 <_vfprintf_r+0x35c>
    2aae:	2200      	movs	r2, #0
    2ab0:	0020      	movs	r0, r4
    2ab2:	9110      	str	r1, [sp, #64]	@ 0x40
    2ab4:	f7fe ffbf 	bl	1a36 <_vfprintf_r+0x64a>
    2ab8:	2200      	movs	r2, #0
    2aba:	b2db      	uxtb	r3, r3
    2abc:	e5dd      	b.n	267a <_vfprintf_r+0x128e>
    2abe:	b2d3      	uxtb	r3, r2
    2ac0:	9316      	str	r3, [sp, #88]	@ 0x58
    2ac2:	2300      	movs	r3, #0
    2ac4:	9317      	str	r3, [sp, #92]	@ 0x5c
    2ac6:	ab20      	add	r3, sp, #128	@ 0x80
    2ac8:	76dc      	strb	r4, [r3, #27]
    2aca:	9b0a      	ldr	r3, [sp, #40]	@ 0x28
    2acc:	2b00      	cmp	r3, #0
    2ace:	db01      	blt.n	2ad4 <_vfprintf_r+0x16e8>
    2ad0:	f7ff f921 	bl	1d16 <_vfprintf_r+0x92a>
    2ad4:	f7ff f928 	bl	1d28 <_vfprintf_r+0x93c>
    2ad8:	4b75      	ldr	r3, [pc, #468]	@ (2cb0 <_vfprintf_r+0x18c4>)
    2ada:	aa20      	add	r2, sp, #128	@ 0x80
    2adc:	8393      	strh	r3, [r2, #28]
    2ade:	2302      	movs	r3, #2
    2ae0:	465a      	mov	r2, fp
    2ae2:	431a      	orrs	r2, r3
    2ae4:	9b0a      	ldr	r3, [sp, #40]	@ 0x28
    2ae6:	4693      	mov	fp, r2
    2ae8:	2b63      	cmp	r3, #99	@ 0x63
    2aea:	dd01      	ble.n	2af0 <_vfprintf_r+0x1704>
    2aec:	f000 fc62 	bl	33b4 <_vfprintf_r+0x1fc8>
    2af0:	9918      	ldr	r1, [sp, #96]	@ 0x60
    2af2:	9a19      	ldr	r2, [sp, #100]	@ 0x64
    2af4:	2a00      	cmp	r2, #0
    2af6:	da01      	bge.n	2afc <_vfprintf_r+0x1710>
    2af8:	f000 fc92 	bl	3420 <_vfprintf_r+0x2034>
    2afc:	9818      	ldr	r0, [sp, #96]	@ 0x60
    2afe:	9919      	ldr	r1, [sp, #100]	@ 0x64
    2b00:	aa28      	add	r2, sp, #160	@ 0xa0
    2b02:	f001 fcf1 	bl	44e8 <frexp>
    2b06:	23ff      	movs	r3, #255	@ 0xff
    2b08:	2200      	movs	r2, #0
    2b0a:	059b      	lsls	r3, r3, #22
    2b0c:	f005 fd36 	bl	857c <__aeabi_dmul>
    2b10:	2200      	movs	r2, #0
    2b12:	2300      	movs	r3, #0
    2b14:	900c      	str	r0, [sp, #48]	@ 0x30
    2b16:	910d      	str	r1, [sp, #52]	@ 0x34
    2b18:	f7fd fb7e 	bl	218 <__aeabi_dcmpeq>
    2b1c:	2800      	cmp	r0, #0
    2b1e:	d001      	beq.n	2b24 <_vfprintf_r+0x1738>
    2b20:	2301      	movs	r3, #1
    2b22:	9328      	str	r3, [sp, #160]	@ 0xa0
    2b24:	2300      	movs	r3, #0
    2b26:	9312      	str	r3, [sp, #72]	@ 0x48
    2b28:	930f      	str	r3, [sp, #60]	@ 0x3c
    2b2a:	4b62      	ldr	r3, [pc, #392]	@ (2cb4 <_vfprintf_r+0x18c8>)
    2b2c:	ad41      	add	r5, sp, #260	@ 0x104
    2b2e:	9309      	str	r3, [sp, #36]	@ 0x24
    2b30:	9b0a      	ldr	r3, [sp, #40]	@ 0x28
    2b32:	46a8      	mov	r8, r5
    2b34:	469c      	mov	ip, r3
    2b36:	44ac      	add	ip, r5
    2b38:	4663      	mov	r3, ip
    2b3a:	930a      	str	r3, [sp, #40]	@ 0x28
    2b3c:	464b      	mov	r3, r9
    2b3e:	9314      	str	r3, [sp, #80]	@ 0x50
    2b40:	465b      	mov	r3, fp
    2b42:	46a9      	mov	r9, r5
    2b44:	9c0c      	ldr	r4, [sp, #48]	@ 0x30
    2b46:	9d0d      	ldr	r5, [sp, #52]	@ 0x34
    2b48:	9611      	str	r6, [sp, #68]	@ 0x44
    2b4a:	9315      	str	r3, [sp, #84]	@ 0x54
    2b4c:	e007      	b.n	2b5e <_vfprintf_r+0x1772>
    2b4e:	2200      	movs	r2, #0
    2b50:	2300      	movs	r3, #0
    2b52:	f7fd fb61 	bl	218 <__aeabi_dcmpeq>
    2b56:	2800      	cmp	r0, #0
    2b58:	d001      	beq.n	2b5e <_vfprintf_r+0x1772>
    2b5a:	f000 fd31 	bl	35c0 <_vfprintf_r+0x21d4>
    2b5e:	2200      	movs	r2, #0
    2b60:	4b55      	ldr	r3, [pc, #340]	@ (2cb8 <_vfprintf_r+0x18cc>)
    2b62:	0020      	movs	r0, r4
    2b64:	0029      	movs	r1, r5
    2b66:	f005 fd09 	bl	857c <__aeabi_dmul>
    2b6a:	000d      	movs	r5, r1
    2b6c:	0004      	movs	r4, r0
    2b6e:	f006 fa1b 	bl	8fa8 <__aeabi_d2iz>
    2b72:	0006      	movs	r6, r0
    2b74:	f006 fa4a 	bl	900c <__aeabi_i2d>
    2b78:	46c2      	mov	sl, r8
    2b7a:	0002      	movs	r2, r0
    2b7c:	000b      	movs	r3, r1
    2b7e:	0020      	movs	r0, r4
    2b80:	0029      	movs	r1, r5
    2b82:	f005 ff21 	bl	89c8 <__aeabi_dsub>
    2b86:	2301      	movs	r3, #1
    2b88:	4652      	mov	r2, sl
    2b8a:	469c      	mov	ip, r3
    2b8c:	9b09      	ldr	r3, [sp, #36]	@ 0x24
    2b8e:	0004      	movs	r4, r0
    2b90:	5d9b      	ldrb	r3, [r3, r6]
    2b92:	000d      	movs	r5, r1
    2b94:	7013      	strb	r3, [r2, #0]
    2b96:	9b0a      	ldr	r3, [sp, #40]	@ 0x28
    2b98:	44e0      	add	r8, ip
    2b9a:	459a      	cmp	sl, r3
    2b9c:	d1d7      	bne.n	2b4e <_vfprintf_r+0x1762>
    2b9e:	9b15      	ldr	r3, [sp, #84]	@ 0x54
    2ba0:	464d      	mov	r5, r9
    2ba2:	469b      	mov	fp, r3
    2ba4:	9b14      	ldr	r3, [sp, #80]	@ 0x50
    2ba6:	2200      	movs	r2, #0
    2ba8:	4699      	mov	r9, r3
    2baa:	4b44      	ldr	r3, [pc, #272]	@ (2cbc <_vfprintf_r+0x18d0>)
    2bac:	960a      	str	r6, [sp, #40]	@ 0x28
    2bae:	4644      	mov	r4, r8
    2bb0:	900c      	str	r0, [sp, #48]	@ 0x30
    2bb2:	910d      	str	r1, [sp, #52]	@ 0x34
    2bb4:	9e11      	ldr	r6, [sp, #68]	@ 0x44
    2bb6:	f7fd fb49 	bl	24c <__aeabi_dcmpgt>
    2bba:	2800      	cmp	r0, #0
    2bbc:	d10a      	bne.n	2bd4 <_vfprintf_r+0x17e8>
    2bbe:	980c      	ldr	r0, [sp, #48]	@ 0x30
    2bc0:	990d      	ldr	r1, [sp, #52]	@ 0x34
    2bc2:	2200      	movs	r2, #0
    2bc4:	4b3d      	ldr	r3, [pc, #244]	@ (2cbc <_vfprintf_r+0x18d0>)
    2bc6:	f7fd fb27 	bl	218 <__aeabi_dcmpeq>
    2bca:	2800      	cmp	r0, #0
    2bcc:	d01a      	beq.n	2c04 <_vfprintf_r+0x1818>
    2bce:	9b0a      	ldr	r3, [sp, #40]	@ 0x28
    2bd0:	07db      	lsls	r3, r3, #31
    2bd2:	d517      	bpl.n	2c04 <_vfprintf_r+0x1818>
    2bd4:	4653      	mov	r3, sl
    2bd6:	932c      	str	r3, [sp, #176]	@ 0xb0
    2bd8:	4643      	mov	r3, r8
    2bda:	9909      	ldr	r1, [sp, #36]	@ 0x24
    2bdc:	3b01      	subs	r3, #1
    2bde:	781a      	ldrb	r2, [r3, #0]
    2be0:	7bc9      	ldrb	r1, [r1, #15]
    2be2:	4291      	cmp	r1, r2
    2be4:	d107      	bne.n	2bf6 <_vfprintf_r+0x180a>
    2be6:	2030      	movs	r0, #48	@ 0x30
    2be8:	7018      	strb	r0, [r3, #0]
    2bea:	9b2c      	ldr	r3, [sp, #176]	@ 0xb0
    2bec:	3b01      	subs	r3, #1
    2bee:	932c      	str	r3, [sp, #176]	@ 0xb0
    2bf0:	781a      	ldrb	r2, [r3, #0]
    2bf2:	428a      	cmp	r2, r1
    2bf4:	d0f8      	beq.n	2be8 <_vfprintf_r+0x17fc>
    2bf6:	2a39      	cmp	r2, #57	@ 0x39
    2bf8:	d101      	bne.n	2bfe <_vfprintf_r+0x1812>
    2bfa:	f000 fdac 	bl	3756 <_vfprintf_r+0x236a>
    2bfe:	3201      	adds	r2, #1
    2c00:	b2d2      	uxtb	r2, r2
    2c02:	701a      	strb	r2, [r3, #0]
    2c04:	9a28      	ldr	r2, [sp, #160]	@ 0xa0
    2c06:	1b63      	subs	r3, r4, r5
    2c08:	9311      	str	r3, [sp, #68]	@ 0x44
    2c0a:	1e53      	subs	r3, r2, #1
    2c0c:	469a      	mov	sl, r3
    2c0e:	9328      	str	r3, [sp, #160]	@ 0xa0
    2c10:	464b      	mov	r3, r9
    2c12:	2170      	movs	r1, #112	@ 0x70
    2c14:	2b61      	cmp	r3, #97	@ 0x61
    2c16:	d002      	beq.n	2c1e <_vfprintf_r+0x1832>
    2c18:	2341      	movs	r3, #65	@ 0x41
    2c1a:	4699      	mov	r9, r3
    2c1c:	3920      	subs	r1, #32
    2c1e:	ab2a      	add	r3, sp, #168	@ 0xa8
    2c20:	7019      	strb	r1, [r3, #0]
    2c22:	4651      	mov	r1, sl
    2c24:	2900      	cmp	r1, #0
    2c26:	da01      	bge.n	2c2c <_vfprintf_r+0x1840>
    2c28:	f000 fcf1 	bl	360e <_vfprintf_r+0x2222>
    2c2c:	222b      	movs	r2, #43	@ 0x2b
    2c2e:	705a      	strb	r2, [r3, #1]
    2c30:	2909      	cmp	r1, #9
    2c32:	dd00      	ble.n	2c36 <_vfprintf_r+0x184a>
    2c34:	e30d      	b.n	3252 <_vfprintf_r+0x1e66>
    2c36:	a920      	add	r1, sp, #128	@ 0x80
    2c38:	222a      	movs	r2, #42	@ 0x2a
    2c3a:	468c      	mov	ip, r1
    2c3c:	4462      	add	r2, ip
    2c3e:	4651      	mov	r1, sl
    2c40:	3130      	adds	r1, #48	@ 0x30
    2c42:	7011      	strb	r1, [r2, #0]
    2c44:	3201      	adds	r2, #1
    2c46:	1ad3      	subs	r3, r2, r3
    2c48:	931f      	str	r3, [sp, #124]	@ 0x7c
    2c4a:	9b11      	ldr	r3, [sp, #68]	@ 0x44
    2c4c:	991f      	ldr	r1, [sp, #124]	@ 0x7c
    2c4e:	001a      	movs	r2, r3
    2c50:	468c      	mov	ip, r1
    2c52:	4462      	add	r2, ip
    2c54:	920c      	str	r2, [sp, #48]	@ 0x30
    2c56:	2b01      	cmp	r3, #1
    2c58:	dc00      	bgt.n	2c5c <_vfprintf_r+0x1870>
    2c5a:	e3dc      	b.n	3416 <_vfprintf_r+0x202a>
    2c5c:	9a1b      	ldr	r2, [sp, #108]	@ 0x6c
    2c5e:	9b0c      	ldr	r3, [sp, #48]	@ 0x30
    2c60:	4694      	mov	ip, r2
    2c62:	4463      	add	r3, ip
    2c64:	930c      	str	r3, [sp, #48]	@ 0x30
    2c66:	465a      	mov	r2, fp
    2c68:	4b15      	ldr	r3, [pc, #84]	@ (2cc0 <_vfprintf_r+0x18d4>)
    2c6a:	401a      	ands	r2, r3
    2c6c:	0013      	movs	r3, r2
    2c6e:	2280      	movs	r2, #128	@ 0x80
    2c70:	0052      	lsls	r2, r2, #1
    2c72:	431a      	orrs	r2, r3
    2c74:	4693      	mov	fp, r2
    2c76:	9a0c      	ldr	r2, [sp, #48]	@ 0x30
    2c78:	43d3      	mvns	r3, r2
    2c7a:	17db      	asrs	r3, r3, #31
    2c7c:	401a      	ands	r2, r3
    2c7e:	2300      	movs	r3, #0
    2c80:	9209      	str	r2, [sp, #36]	@ 0x24
    2c82:	931a      	str	r3, [sp, #104]	@ 0x68
    2c84:	9315      	str	r3, [sp, #84]	@ 0x54
    2c86:	9314      	str	r3, [sp, #80]	@ 0x50
    2c88:	e054      	b.n	2d34 <_vfprintf_r+0x1948>
    2c8a:	003a      	movs	r2, r7
    2c8c:	9908      	ldr	r1, [sp, #32]
    2c8e:	9807      	ldr	r0, [sp, #28]
    2c90:	f000 fdd4 	bl	383c <__sprint_r>
    2c94:	2800      	cmp	r0, #0
    2c96:	d001      	beq.n	2c9c <_vfprintf_r+0x18b0>
    2c98:	f7ff f916 	bl	1ec8 <_vfprintf_r+0xadc>
    2c9c:	9828      	ldr	r0, [sp, #160]	@ 0xa0
    2c9e:	68b9      	ldr	r1, [r7, #8]
    2ca0:	687b      	ldr	r3, [r7, #4]
    2ca2:	aa31      	add	r2, sp, #196	@ 0xc4
    2ca4:	e612      	b.n	28cc <_vfprintf_r+0x14e0>
    2ca6:	46c0      	nop			@ (mov r8, r8)
    2ca8:	00009430 	.word	0x00009430
    2cac:	000090ec 	.word	0x000090ec
    2cb0:	00005830 	.word	0x00005830
    2cb4:	00009110 	.word	0x00009110
    2cb8:	40300000 	.word	0x40300000
    2cbc:	3fe00000 	.word	0x3fe00000
    2cc0:	fffffbff 	.word	0xfffffbff
    2cc4:	ab2c      	add	r3, sp, #176	@ 0xb0
    2cc6:	9304      	str	r3, [sp, #16]
    2cc8:	ab29      	add	r3, sp, #164	@ 0xa4
    2cca:	9303      	str	r3, [sp, #12]
    2ccc:	ab28      	add	r3, sp, #160	@ 0xa0
    2cce:	9302      	str	r3, [sp, #8]
    2cd0:	9b0a      	ldr	r3, [sp, #40]	@ 0x28
    2cd2:	9807      	ldr	r0, [sp, #28]
    2cd4:	9301      	str	r3, [sp, #4]
    2cd6:	2302      	movs	r3, #2
    2cd8:	9300      	str	r3, [sp, #0]
    2cda:	9a24      	ldr	r2, [sp, #144]	@ 0x90
    2cdc:	9b25      	ldr	r3, [sp, #148]	@ 0x94
    2cde:	f001 fcdf 	bl	46a0 <_dtoa_r>
    2ce2:	0005      	movs	r5, r0
    2ce4:	465b      	mov	r3, fp
    2ce6:	07db      	lsls	r3, r3, #31
    2ce8:	d500      	bpl.n	2cec <_vfprintf_r+0x1900>
    2cea:	e2f0      	b.n	32ce <_vfprintf_r+0x1ee2>
    2cec:	9b2c      	ldr	r3, [sp, #176]	@ 0xb0
    2cee:	9a28      	ldr	r2, [sp, #160]	@ 0xa0
    2cf0:	1b59      	subs	r1, r3, r5
    2cf2:	9111      	str	r1, [sp, #68]	@ 0x44
    2cf4:	9214      	str	r2, [sp, #80]	@ 0x50
    2cf6:	1cd3      	adds	r3, r2, #3
    2cf8:	da00      	bge.n	2cfc <_vfprintf_r+0x1910>
    2cfa:	e296      	b.n	322a <_vfprintf_r+0x1e3e>
    2cfc:	9b0a      	ldr	r3, [sp, #40]	@ 0x28
    2cfe:	4293      	cmp	r3, r2
    2d00:	da00      	bge.n	2d04 <_vfprintf_r+0x1918>
    2d02:	e241      	b.n	3188 <_vfprintf_r+0x1d9c>
    2d04:	4291      	cmp	r1, r2
    2d06:	dd00      	ble.n	2d0a <_vfprintf_r+0x191e>
    2d08:	e333      	b.n	3372 <_vfprintf_r+0x1f86>
    2d0a:	9b14      	ldr	r3, [sp, #80]	@ 0x50
    2d0c:	930c      	str	r3, [sp, #48]	@ 0x30
    2d0e:	465b      	mov	r3, fp
    2d10:	055b      	lsls	r3, r3, #21
    2d12:	d504      	bpl.n	2d1e <_vfprintf_r+0x1932>
    2d14:	9b14      	ldr	r3, [sp, #80]	@ 0x50
    2d16:	2b00      	cmp	r3, #0
    2d18:	dd01      	ble.n	2d1e <_vfprintf_r+0x1932>
    2d1a:	f000 fbf9 	bl	3510 <_vfprintf_r+0x2124>
    2d1e:	9a0c      	ldr	r2, [sp, #48]	@ 0x30
    2d20:	46d3      	mov	fp, sl
    2d22:	43d3      	mvns	r3, r2
    2d24:	17db      	asrs	r3, r3, #31
    2d26:	401a      	ands	r2, r3
    2d28:	2367      	movs	r3, #103	@ 0x67
    2d2a:	4699      	mov	r9, r3
    2d2c:	9209      	str	r2, [sp, #36]	@ 0x24
    2d2e:	2300      	movs	r3, #0
    2d30:	931a      	str	r3, [sp, #104]	@ 0x68
    2d32:	9315      	str	r3, [sp, #84]	@ 0x54
    2d34:	2002      	movs	r0, #2
    2d36:	465b      	mov	r3, fp
    2d38:	4003      	ands	r3, r0
    2d3a:	469c      	mov	ip, r3
    2d3c:	9b12      	ldr	r3, [sp, #72]	@ 0x48
    2d3e:	2b00      	cmp	r3, #0
    2d40:	d100      	bne.n	2d44 <_vfprintf_r+0x1958>
    2d42:	e08a      	b.n	2e5a <_vfprintf_r+0x1a6e>
    2d44:	232d      	movs	r3, #45	@ 0x2d
    2d46:	212d      	movs	r1, #45	@ 0x2d
    2d48:	aa20      	add	r2, sp, #128	@ 0x80
    2d4a:	76d3      	strb	r3, [r2, #27]
    2d4c:	9b09      	ldr	r3, [sp, #36]	@ 0x24
    2d4e:	3301      	adds	r3, #1
    2d50:	9309      	str	r3, [sp, #36]	@ 0x24
    2d52:	2300      	movs	r3, #0
    2d54:	930a      	str	r3, [sp, #40]	@ 0x28
    2d56:	e44a      	b.n	25ee <_vfprintf_r+0x1202>
    2d58:	4643      	mov	r3, r8
    2d5a:	6d98      	ldr	r0, [r3, #88]	@ 0x58
    2d5c:	f7fd fe9c 	bl	a98 <__retarget_lock_release_recursive>
    2d60:	f7ff f99e 	bl	20a0 <_vfprintf_r+0xcb4>
    2d64:	9a21      	ldr	r2, [sp, #132]	@ 0x84
    2d66:	9920      	ldr	r1, [sp, #128]	@ 0x80
    2d68:	1aad      	subs	r5, r5, r2
    2d6a:	0028      	movs	r0, r5
    2d6c:	f001 fa8a 	bl	4284 <strncpy>
    2d70:	991d      	ldr	r1, [sp, #116]	@ 0x74
    2d72:	0030      	movs	r0, r6
    2d74:	784b      	ldrb	r3, [r1, #1]
    2d76:	468c      	mov	ip, r1
    2d78:	1e5a      	subs	r2, r3, #1
    2d7a:	4193      	sbcs	r3, r2
    2d7c:	449c      	add	ip, r3
    2d7e:	4663      	mov	r3, ip
    2d80:	220a      	movs	r2, #10
    2d82:	0039      	movs	r1, r7
    2d84:	931d      	str	r3, [sp, #116]	@ 0x74
    2d86:	2300      	movs	r3, #0
    2d88:	f7fd fa74 	bl	274 <__aeabi_uldivmod>
    2d8c:	220a      	movs	r2, #10
    2d8e:	2300      	movs	r3, #0
    2d90:	0006      	movs	r6, r0
    2d92:	000f      	movs	r7, r1
    2d94:	f7fd fa6e 	bl	274 <__aeabi_uldivmod>
    2d98:	2301      	movs	r3, #1
    2d9a:	3d01      	subs	r5, #1
    2d9c:	3230      	adds	r2, #48	@ 0x30
    2d9e:	702a      	strb	r2, [r5, #0]
    2da0:	9311      	str	r3, [sp, #68]	@ 0x44
    2da2:	f7fe ff7a 	bl	1c9a <_vfprintf_r+0x8ae>
    2da6:	9b0a      	ldr	r3, [sp, #40]	@ 0x28
    2da8:	3301      	adds	r3, #1
    2daa:	9311      	str	r3, [sp, #68]	@ 0x44
    2dac:	2302      	movs	r3, #2
    2dae:	aa2c      	add	r2, sp, #176	@ 0xb0
    2db0:	9c11      	ldr	r4, [sp, #68]	@ 0x44
    2db2:	9204      	str	r2, [sp, #16]
    2db4:	aa29      	add	r2, sp, #164	@ 0xa4
    2db6:	9203      	str	r2, [sp, #12]
    2db8:	aa28      	add	r2, sp, #160	@ 0xa0
    2dba:	9202      	str	r2, [sp, #8]
    2dbc:	9401      	str	r4, [sp, #4]
    2dbe:	9300      	str	r3, [sp, #0]
    2dc0:	9807      	ldr	r0, [sp, #28]
    2dc2:	9a24      	ldr	r2, [sp, #144]	@ 0x90
    2dc4:	9b25      	ldr	r3, [sp, #148]	@ 0x94
    2dc6:	f001 fc6b 	bl	46a0 <_dtoa_r>
    2dca:	2320      	movs	r3, #32
    2dcc:	464a      	mov	r2, r9
    2dce:	439a      	bics	r2, r3
    2dd0:	0005      	movs	r5, r0
    2dd2:	4690      	mov	r8, r2
    2dd4:	1904      	adds	r4, r0, r4
    2dd6:	2a46      	cmp	r2, #70	@ 0x46
    2dd8:	d100      	bne.n	2ddc <_vfprintf_r+0x19f0>
    2dda:	e167      	b.n	30ac <_vfprintf_r+0x1cc0>
    2ddc:	9824      	ldr	r0, [sp, #144]	@ 0x90
    2dde:	9925      	ldr	r1, [sp, #148]	@ 0x94
    2de0:	2200      	movs	r2, #0
    2de2:	2300      	movs	r3, #0
    2de4:	f7fd fa18 	bl	218 <__aeabi_dcmpeq>
    2de8:	2800      	cmp	r0, #0
    2dea:	d001      	beq.n	2df0 <_vfprintf_r+0x1a04>
    2dec:	f000 fc24 	bl	3638 <_vfprintf_r+0x224c>
    2df0:	2245      	movs	r2, #69	@ 0x45
    2df2:	9b2c      	ldr	r3, [sp, #176]	@ 0xb0
    2df4:	4690      	mov	r8, r2
    2df6:	42a3      	cmp	r3, r4
    2df8:	d301      	bcc.n	2dfe <_vfprintf_r+0x1a12>
    2dfa:	f000 fcb2 	bl	3762 <_vfprintf_r+0x2376>
    2dfe:	2130      	movs	r1, #48	@ 0x30
    2e00:	1c5a      	adds	r2, r3, #1
    2e02:	922c      	str	r2, [sp, #176]	@ 0xb0
    2e04:	7019      	strb	r1, [r3, #0]
    2e06:	9b2c      	ldr	r3, [sp, #176]	@ 0xb0
    2e08:	42a3      	cmp	r3, r4
    2e0a:	d3f9      	bcc.n	2e00 <_vfprintf_r+0x1a14>
    2e0c:	1b5b      	subs	r3, r3, r5
    2e0e:	9311      	str	r3, [sp, #68]	@ 0x44
    2e10:	4643      	mov	r3, r8
    2e12:	9a28      	ldr	r2, [sp, #160]	@ 0xa0
    2e14:	9214      	str	r2, [sp, #80]	@ 0x50
    2e16:	2b47      	cmp	r3, #71	@ 0x47
    2e18:	d100      	bne.n	2e1c <_vfprintf_r+0x1a30>
    2e1a:	e1ae      	b.n	317a <_vfprintf_r+0x1d8e>
    2e1c:	2b46      	cmp	r3, #70	@ 0x46
    2e1e:	d100      	bne.n	2e22 <_vfprintf_r+0x1a36>
    2e20:	e15d      	b.n	30de <_vfprintf_r+0x1cf2>
    2e22:	9b14      	ldr	r3, [sp, #80]	@ 0x50
    2e24:	464a      	mov	r2, r9
    2e26:	3b01      	subs	r3, #1
    2e28:	469a      	mov	sl, r3
    2e2a:	9328      	str	r3, [sp, #160]	@ 0xa0
    2e2c:	ab2a      	add	r3, sp, #168	@ 0xa8
    2e2e:	701a      	strb	r2, [r3, #0]
    2e30:	4652      	mov	r2, sl
    2e32:	2a00      	cmp	r2, #0
    2e34:	da00      	bge.n	2e38 <_vfprintf_r+0x1a4c>
    2e36:	e202      	b.n	323e <_vfprintf_r+0x1e52>
    2e38:	222b      	movs	r2, #43	@ 0x2b
    2e3a:	705a      	strb	r2, [r3, #1]
    2e3c:	4652      	mov	r2, sl
    2e3e:	2a09      	cmp	r2, #9
    2e40:	dd00      	ble.n	2e44 <_vfprintf_r+0x1a58>
    2e42:	e206      	b.n	3252 <_vfprintf_r+0x1e66>
    2e44:	2230      	movs	r2, #48	@ 0x30
    2e46:	a920      	add	r1, sp, #128	@ 0x80
    2e48:	468c      	mov	ip, r1
    2e4a:	709a      	strb	r2, [r3, #2]
    2e4c:	3a05      	subs	r2, #5
    2e4e:	4462      	add	r2, ip
    2e50:	e6f5      	b.n	2c3e <_vfprintf_r+0x1852>
    2e52:	9b0a      	ldr	r3, [sp, #40]	@ 0x28
    2e54:	9311      	str	r3, [sp, #68]	@ 0x44
    2e56:	2303      	movs	r3, #3
    2e58:	e7a9      	b.n	2dae <_vfprintf_r+0x19c2>
    2e5a:	ab20      	add	r3, sp, #128	@ 0x80
    2e5c:	7ed9      	ldrb	r1, [r3, #27]
    2e5e:	2900      	cmp	r1, #0
    2e60:	d000      	beq.n	2e64 <_vfprintf_r+0x1a78>
    2e62:	e773      	b.n	2d4c <_vfprintf_r+0x1960>
    2e64:	2300      	movs	r3, #0
    2e66:	930a      	str	r3, [sp, #40]	@ 0x28
    2e68:	f7ff fbc1 	bl	25ee <_vfprintf_r+0x1202>
    2e6c:	232d      	movs	r3, #45	@ 0x2d
    2e6e:	aa20      	add	r2, sp, #128	@ 0x80
    2e70:	76d3      	strb	r3, [r2, #27]
    2e72:	464b      	mov	r3, r9
    2e74:	2b47      	cmp	r3, #71	@ 0x47
    2e76:	dc00      	bgt.n	2e7a <_vfprintf_r+0x1a8e>
    2e78:	e243      	b.n	3302 <_vfprintf_r+0x1f16>
    2e7a:	2300      	movs	r3, #0
    2e7c:	930f      	str	r3, [sp, #60]	@ 0x3c
    2e7e:	3303      	adds	r3, #3
    2e80:	930c      	str	r3, [sp, #48]	@ 0x30
    2e82:	2300      	movs	r3, #0
    2e84:	930a      	str	r3, [sp, #40]	@ 0x28
    2e86:	931a      	str	r3, [sp, #104]	@ 0x68
    2e88:	9315      	str	r3, [sp, #84]	@ 0x54
    2e8a:	9314      	str	r3, [sp, #80]	@ 0x50
    2e8c:	3304      	adds	r3, #4
    2e8e:	4dd8      	ldr	r5, [pc, #864]	@ (31f0 <_vfprintf_r+0x1e04>)
    2e90:	9309      	str	r3, [sp, #36]	@ 0x24
    2e92:	f7fe fb4a 	bl	152a <_vfprintf_r+0x13e>
    2e96:	9b11      	ldr	r3, [sp, #68]	@ 0x44
    2e98:	465a      	mov	r2, fp
    2e9a:	469c      	mov	ip, r3
    2e9c:	44ac      	add	ip, r5
    2e9e:	4663      	mov	r3, ip
    2ea0:	930a      	str	r3, [sp, #40]	@ 0x28
    2ea2:	4bd4      	ldr	r3, [pc, #848]	@ (31f4 <_vfprintf_r+0x1e08>)
    2ea4:	9212      	str	r2, [sp, #72]	@ 0x48
    2ea6:	4698      	mov	r8, r3
    2ea8:	2310      	movs	r3, #16
    2eaa:	9a21      	ldr	r2, [sp, #132]	@ 0x84
    2eac:	991a      	ldr	r1, [sp, #104]	@ 0x68
    2eae:	4693      	mov	fp, r2
    2eb0:	9a1d      	ldr	r2, [sp, #116]	@ 0x74
    2eb2:	4699      	mov	r9, r3
    2eb4:	0033      	movs	r3, r6
    2eb6:	4656      	mov	r6, sl
    2eb8:	4692      	mov	sl, r2
    2eba:	0022      	movs	r2, r4
    2ebc:	4644      	mov	r4, r8
    2ebe:	4688      	mov	r8, r1
    2ec0:	9915      	ldr	r1, [sp, #84]	@ 0x54
    2ec2:	9514      	str	r5, [sp, #80]	@ 0x50
    2ec4:	2900      	cmp	r1, #0
    2ec6:	dd31      	ble.n	2f2c <_vfprintf_r+0x1b40>
    2ec8:	4641      	mov	r1, r8
    2eca:	2900      	cmp	r1, #0
    2ecc:	dd7e      	ble.n	2fcc <_vfprintf_r+0x1be0>
    2ece:	2101      	movs	r1, #1
    2ed0:	4249      	negs	r1, r1
    2ed2:	468c      	mov	ip, r1
    2ed4:	44e0      	add	r8, ip
    2ed6:	9920      	ldr	r1, [sp, #128]	@ 0x80
    2ed8:	445a      	add	r2, fp
    2eda:	6019      	str	r1, [r3, #0]
    2edc:	4659      	mov	r1, fp
    2ede:	6059      	str	r1, [r3, #4]
    2ee0:	6879      	ldr	r1, [r7, #4]
    2ee2:	60ba      	str	r2, [r7, #8]
    2ee4:	3101      	adds	r1, #1
    2ee6:	6079      	str	r1, [r7, #4]
    2ee8:	2907      	cmp	r1, #7
    2eea:	dc63      	bgt.n	2fb4 <_vfprintf_r+0x1bc8>
    2eec:	3308      	adds	r3, #8
    2eee:	4651      	mov	r1, sl
    2ef0:	980a      	ldr	r0, [sp, #40]	@ 0x28
    2ef2:	7809      	ldrb	r1, [r1, #0]
    2ef4:	1b85      	subs	r5, r0, r6
    2ef6:	428d      	cmp	r5, r1
    2ef8:	dd00      	ble.n	2efc <_vfprintf_r+0x1b10>
    2efa:	000d      	movs	r5, r1
    2efc:	2d00      	cmp	r5, #0
    2efe:	dd0b      	ble.n	2f18 <_vfprintf_r+0x1b2c>
    2f00:	6879      	ldr	r1, [r7, #4]
    2f02:	1952      	adds	r2, r2, r5
    2f04:	3101      	adds	r1, #1
    2f06:	601e      	str	r6, [r3, #0]
    2f08:	605d      	str	r5, [r3, #4]
    2f0a:	60ba      	str	r2, [r7, #8]
    2f0c:	6079      	str	r1, [r7, #4]
    2f0e:	2907      	cmp	r1, #7
    2f10:	dc64      	bgt.n	2fdc <_vfprintf_r+0x1bf0>
    2f12:	4651      	mov	r1, sl
    2f14:	7809      	ldrb	r1, [r1, #0]
    2f16:	3308      	adds	r3, #8
    2f18:	43e8      	mvns	r0, r5
    2f1a:	17c0      	asrs	r0, r0, #31
    2f1c:	4005      	ands	r5, r0
    2f1e:	1b4d      	subs	r5, r1, r5
    2f20:	2d00      	cmp	r5, #0
    2f22:	dc17      	bgt.n	2f54 <_vfprintf_r+0x1b68>
    2f24:	1876      	adds	r6, r6, r1
    2f26:	9915      	ldr	r1, [sp, #84]	@ 0x54
    2f28:	2900      	cmp	r1, #0
    2f2a:	dccd      	bgt.n	2ec8 <_vfprintf_r+0x1adc>
    2f2c:	4641      	mov	r1, r8
    2f2e:	2900      	cmp	r1, #0
    2f30:	dccd      	bgt.n	2ece <_vfprintf_r+0x1ae2>
    2f32:	9912      	ldr	r1, [sp, #72]	@ 0x48
    2f34:	9d14      	ldr	r5, [sp, #80]	@ 0x50
    2f36:	468b      	mov	fp, r1
    2f38:	4651      	mov	r1, sl
    2f3a:	46b2      	mov	sl, r6
    2f3c:	001e      	movs	r6, r3
    2f3e:	9b11      	ldr	r3, [sp, #68]	@ 0x44
    2f40:	0014      	movs	r4, r2
    2f42:	18eb      	adds	r3, r5, r3
    2f44:	911d      	str	r1, [sp, #116]	@ 0x74
    2f46:	459a      	cmp	sl, r3
    2f48:	d801      	bhi.n	2f4e <_vfprintf_r+0x1b62>
    2f4a:	f7ff f949 	bl	21e0 <_vfprintf_r+0xdf4>
    2f4e:	469a      	mov	sl, r3
    2f50:	f7ff f946 	bl	21e0 <_vfprintf_r+0xdf4>
    2f54:	6879      	ldr	r1, [r7, #4]
    2f56:	2d10      	cmp	r5, #16
    2f58:	dc00      	bgt.n	2f5c <_vfprintf_r+0x1b70>
    2f5a:	e324      	b.n	35a6 <_vfprintf_r+0x21ba>
    2f5c:	940c      	str	r4, [sp, #48]	@ 0x30
    2f5e:	e003      	b.n	2f68 <_vfprintf_r+0x1b7c>
    2f60:	3d10      	subs	r5, #16
    2f62:	3308      	adds	r3, #8
    2f64:	2d10      	cmp	r5, #16
    2f66:	dd17      	ble.n	2f98 <_vfprintf_r+0x1bac>
    2f68:	4648      	mov	r0, r9
    2f6a:	3210      	adds	r2, #16
    2f6c:	3101      	adds	r1, #1
    2f6e:	601c      	str	r4, [r3, #0]
    2f70:	6058      	str	r0, [r3, #4]
    2f72:	60ba      	str	r2, [r7, #8]
    2f74:	6079      	str	r1, [r7, #4]
    2f76:	2907      	cmp	r1, #7
    2f78:	ddf2      	ble.n	2f60 <_vfprintf_r+0x1b74>
    2f7a:	003a      	movs	r2, r7
    2f7c:	9908      	ldr	r1, [sp, #32]
    2f7e:	9807      	ldr	r0, [sp, #28]
    2f80:	f000 fc5c 	bl	383c <__sprint_r>
    2f84:	2800      	cmp	r0, #0
    2f86:	d001      	beq.n	2f8c <_vfprintf_r+0x1ba0>
    2f88:	f7fe ff9e 	bl	1ec8 <_vfprintf_r+0xadc>
    2f8c:	3d10      	subs	r5, #16
    2f8e:	68ba      	ldr	r2, [r7, #8]
    2f90:	6879      	ldr	r1, [r7, #4]
    2f92:	ab31      	add	r3, sp, #196	@ 0xc4
    2f94:	2d10      	cmp	r5, #16
    2f96:	dce7      	bgt.n	2f68 <_vfprintf_r+0x1b7c>
    2f98:	980c      	ldr	r0, [sp, #48]	@ 0x30
    2f9a:	1952      	adds	r2, r2, r5
    2f9c:	3101      	adds	r1, #1
    2f9e:	6018      	str	r0, [r3, #0]
    2fa0:	605d      	str	r5, [r3, #4]
    2fa2:	60ba      	str	r2, [r7, #8]
    2fa4:	6079      	str	r1, [r7, #4]
    2fa6:	2907      	cmp	r1, #7
    2fa8:	dc64      	bgt.n	3074 <_vfprintf_r+0x1c88>
    2faa:	4651      	mov	r1, sl
    2fac:	7809      	ldrb	r1, [r1, #0]
    2fae:	3308      	adds	r3, #8
    2fb0:	1876      	adds	r6, r6, r1
    2fb2:	e7b8      	b.n	2f26 <_vfprintf_r+0x1b3a>
    2fb4:	003a      	movs	r2, r7
    2fb6:	9908      	ldr	r1, [sp, #32]
    2fb8:	9807      	ldr	r0, [sp, #28]
    2fba:	f000 fc3f 	bl	383c <__sprint_r>
    2fbe:	2800      	cmp	r0, #0
    2fc0:	d001      	beq.n	2fc6 <_vfprintf_r+0x1bda>
    2fc2:	f7fe ff81 	bl	1ec8 <_vfprintf_r+0xadc>
    2fc6:	68ba      	ldr	r2, [r7, #8]
    2fc8:	ab31      	add	r3, sp, #196	@ 0xc4
    2fca:	e790      	b.n	2eee <_vfprintf_r+0x1b02>
    2fcc:	2101      	movs	r1, #1
    2fce:	4249      	negs	r1, r1
    2fd0:	468c      	mov	ip, r1
    2fd2:	9915      	ldr	r1, [sp, #84]	@ 0x54
    2fd4:	44e2      	add	sl, ip
    2fd6:	4461      	add	r1, ip
    2fd8:	9115      	str	r1, [sp, #84]	@ 0x54
    2fda:	e77c      	b.n	2ed6 <_vfprintf_r+0x1aea>
    2fdc:	003a      	movs	r2, r7
    2fde:	9908      	ldr	r1, [sp, #32]
    2fe0:	9807      	ldr	r0, [sp, #28]
    2fe2:	f000 fc2b 	bl	383c <__sprint_r>
    2fe6:	2800      	cmp	r0, #0
    2fe8:	d001      	beq.n	2fee <_vfprintf_r+0x1c02>
    2fea:	f7fe ff6d 	bl	1ec8 <_vfprintf_r+0xadc>
    2fee:	4653      	mov	r3, sl
    2ff0:	68ba      	ldr	r2, [r7, #8]
    2ff2:	7819      	ldrb	r1, [r3, #0]
    2ff4:	ab31      	add	r3, sp, #196	@ 0xc4
    2ff6:	e78f      	b.n	2f18 <_vfprintf_r+0x1b2c>
    2ff8:	465a      	mov	r2, fp
    2ffa:	4b7f      	ldr	r3, [pc, #508]	@ (31f8 <_vfprintf_r+0x1e0c>)
    2ffc:	2484      	movs	r4, #132	@ 0x84
    2ffe:	401a      	ands	r2, r3
    3000:	4643      	mov	r3, r8
    3002:	4693      	mov	fp, r2
    3004:	781a      	ldrb	r2, [r3, #0]
    3006:	2363      	movs	r3, #99	@ 0x63
    3008:	a820      	add	r0, sp, #128	@ 0x80
    300a:	1900      	adds	r0, r0, r4
    300c:	54c2      	strb	r2, [r0, r3]
    300e:	2300      	movs	r3, #0
    3010:	469c      	mov	ip, r3
    3012:	ab20      	add	r3, sp, #128	@ 0x80
    3014:	25e7      	movs	r5, #231	@ 0xe7
    3016:	4698      	mov	r8, r3
    3018:	9110      	str	r1, [sp, #64]	@ 0x40
    301a:	4445      	add	r5, r8
    301c:	f7ff fad9 	bl	25d2 <_vfprintf_r+0x11e6>
    3020:	4645      	mov	r5, r8
    3022:	46a0      	mov	r8, r4
    3024:	0014      	movs	r4, r2
    3026:	9a12      	ldr	r2, [sp, #72]	@ 0x48
    3028:	4444      	add	r4, r8
    302a:	6032      	str	r2, [r6, #0]
    302c:	4642      	mov	r2, r8
    302e:	3301      	adds	r3, #1
    3030:	6072      	str	r2, [r6, #4]
    3032:	60bc      	str	r4, [r7, #8]
    3034:	607b      	str	r3, [r7, #4]
    3036:	2b07      	cmp	r3, #7
    3038:	dd00      	ble.n	303c <_vfprintf_r+0x1c50>
    303a:	e219      	b.n	3470 <_vfprintf_r+0x2084>
    303c:	3608      	adds	r6, #8
    303e:	f7ff f8c7 	bl	21d0 <_vfprintf_r+0xde4>
    3042:	4683      	mov	fp, r0
    3044:	9110      	str	r1, [sp, #64]	@ 0x40
    3046:	f7fe fcaa 	bl	199e <_vfprintf_r+0x5b2>
    304a:	9b09      	ldr	r3, [sp, #36]	@ 0x24
    304c:	2b09      	cmp	r3, #9
    304e:	d901      	bls.n	3054 <_vfprintf_r+0x1c68>
    3050:	f7fe fe13 	bl	1c7a <_vfprintf_r+0x88e>
    3054:	f7fe fe30 	bl	1cb8 <_vfprintf_r+0x8cc>
    3058:	003a      	movs	r2, r7
    305a:	9908      	ldr	r1, [sp, #32]
    305c:	9807      	ldr	r0, [sp, #28]
    305e:	f000 fbed 	bl	383c <__sprint_r>
    3062:	2800      	cmp	r0, #0
    3064:	d001      	beq.n	306a <_vfprintf_r+0x1c7e>
    3066:	f7fe ff2f 	bl	1ec8 <_vfprintf_r+0xadc>
    306a:	9828      	ldr	r0, [sp, #160]	@ 0xa0
    306c:	68bc      	ldr	r4, [r7, #8]
    306e:	ae31      	add	r6, sp, #196	@ 0xc4
    3070:	f7ff f9c6 	bl	2400 <_vfprintf_r+0x1014>
    3074:	003a      	movs	r2, r7
    3076:	9908      	ldr	r1, [sp, #32]
    3078:	9807      	ldr	r0, [sp, #28]
    307a:	f000 fbdf 	bl	383c <__sprint_r>
    307e:	2800      	cmp	r0, #0
    3080:	d001      	beq.n	3086 <_vfprintf_r+0x1c9a>
    3082:	f7fe ff21 	bl	1ec8 <_vfprintf_r+0xadc>
    3086:	4653      	mov	r3, sl
    3088:	7819      	ldrb	r1, [r3, #0]
    308a:	68ba      	ldr	r2, [r7, #8]
    308c:	ab31      	add	r3, sp, #196	@ 0xc4
    308e:	1876      	adds	r6, r6, r1
    3090:	e749      	b.n	2f26 <_vfprintf_r+0x1b3a>
    3092:	003a      	movs	r2, r7
    3094:	9908      	ldr	r1, [sp, #32]
    3096:	9807      	ldr	r0, [sp, #28]
    3098:	f000 fbd0 	bl	383c <__sprint_r>
    309c:	2800      	cmp	r0, #0
    309e:	d001      	beq.n	30a4 <_vfprintf_r+0x1cb8>
    30a0:	f7fe ff12 	bl	1ec8 <_vfprintf_r+0xadc>
    30a4:	68bc      	ldr	r4, [r7, #8]
    30a6:	ae31      	add	r6, sp, #196	@ 0xc4
    30a8:	f7ff f887 	bl	21ba <_vfprintf_r+0xdce>
    30ac:	782b      	ldrb	r3, [r5, #0]
    30ae:	2b30      	cmp	r3, #48	@ 0x30
    30b0:	d100      	bne.n	30b4 <_vfprintf_r+0x1cc8>
    30b2:	e25e      	b.n	3572 <_vfprintf_r+0x2186>
    30b4:	9b28      	ldr	r3, [sp, #160]	@ 0xa0
    30b6:	18e4      	adds	r4, r4, r3
    30b8:	2200      	movs	r2, #0
    30ba:	9824      	ldr	r0, [sp, #144]	@ 0x90
    30bc:	9925      	ldr	r1, [sp, #148]	@ 0x94
    30be:	2300      	movs	r3, #0
    30c0:	f7fd f8aa 	bl	218 <__aeabi_dcmpeq>
    30c4:	2800      	cmp	r0, #0
    30c6:	d151      	bne.n	316c <_vfprintf_r+0x1d80>
    30c8:	9b2c      	ldr	r3, [sp, #176]	@ 0xb0
    30ca:	42a3      	cmp	r3, r4
    30cc:	d200      	bcs.n	30d0 <_vfprintf_r+0x1ce4>
    30ce:	e696      	b.n	2dfe <_vfprintf_r+0x1a12>
    30d0:	1b5b      	subs	r3, r3, r5
    30d2:	9311      	str	r3, [sp, #68]	@ 0x44
    30d4:	4643      	mov	r3, r8
    30d6:	9a28      	ldr	r2, [sp, #160]	@ 0xa0
    30d8:	9214      	str	r2, [sp, #80]	@ 0x50
    30da:	2b47      	cmp	r3, #71	@ 0x47
    30dc:	d04d      	beq.n	317a <_vfprintf_r+0x1d8e>
    30de:	465a      	mov	r2, fp
    30e0:	2301      	movs	r3, #1
    30e2:	9914      	ldr	r1, [sp, #80]	@ 0x50
    30e4:	4013      	ands	r3, r2
    30e6:	9a0a      	ldr	r2, [sp, #40]	@ 0x28
    30e8:	4313      	orrs	r3, r2
    30ea:	2900      	cmp	r1, #0
    30ec:	dc00      	bgt.n	30f0 <_vfprintf_r+0x1d04>
    30ee:	e2ba      	b.n	3666 <_vfprintf_r+0x227a>
    30f0:	2b00      	cmp	r3, #0
    30f2:	d000      	beq.n	30f6 <_vfprintf_r+0x1d0a>
    30f4:	e296      	b.n	3624 <_vfprintf_r+0x2238>
    30f6:	9b14      	ldr	r3, [sp, #80]	@ 0x50
    30f8:	930c      	str	r3, [sp, #48]	@ 0x30
    30fa:	2366      	movs	r3, #102	@ 0x66
    30fc:	4699      	mov	r9, r3
    30fe:	465b      	mov	r3, fp
    3100:	055b      	lsls	r3, r3, #21
    3102:	d500      	bpl.n	3106 <_vfprintf_r+0x1d1a>
    3104:	e206      	b.n	3514 <_vfprintf_r+0x2128>
    3106:	9a0c      	ldr	r2, [sp, #48]	@ 0x30
    3108:	43d3      	mvns	r3, r2
    310a:	17db      	asrs	r3, r3, #31
    310c:	401a      	ands	r2, r3
    310e:	46d3      	mov	fp, sl
    3110:	9209      	str	r2, [sp, #36]	@ 0x24
    3112:	e60c      	b.n	2d2e <_vfprintf_r+0x1942>
    3114:	4b39      	ldr	r3, [pc, #228]	@ (31fc <_vfprintf_r+0x1e10>)
    3116:	aa20      	add	r2, sp, #128	@ 0x80
    3118:	8393      	strh	r3, [r2, #28]
    311a:	2302      	movs	r3, #2
    311c:	465a      	mov	r2, fp
    311e:	431a      	orrs	r2, r3
    3120:	9b0a      	ldr	r3, [sp, #40]	@ 0x28
    3122:	4693      	mov	fp, r2
    3124:	2b63      	cmp	r3, #99	@ 0x63
    3126:	dd00      	ble.n	312a <_vfprintf_r+0x1d3e>
    3128:	e144      	b.n	33b4 <_vfprintf_r+0x1fc8>
    312a:	9918      	ldr	r1, [sp, #96]	@ 0x60
    312c:	9a19      	ldr	r2, [sp, #100]	@ 0x64
    312e:	2a00      	cmp	r2, #0
    3130:	da00      	bge.n	3134 <_vfprintf_r+0x1d48>
    3132:	e175      	b.n	3420 <_vfprintf_r+0x2034>
    3134:	9818      	ldr	r0, [sp, #96]	@ 0x60
    3136:	9919      	ldr	r1, [sp, #100]	@ 0x64
    3138:	aa28      	add	r2, sp, #160	@ 0xa0
    313a:	f001 f9d5 	bl	44e8 <frexp>
    313e:	23ff      	movs	r3, #255	@ 0xff
    3140:	2200      	movs	r2, #0
    3142:	059b      	lsls	r3, r3, #22
    3144:	f005 fa1a 	bl	857c <__aeabi_dmul>
    3148:	2200      	movs	r2, #0
    314a:	2300      	movs	r3, #0
    314c:	900c      	str	r0, [sp, #48]	@ 0x30
    314e:	910d      	str	r1, [sp, #52]	@ 0x34
    3150:	f7fd f862 	bl	218 <__aeabi_dcmpeq>
    3154:	2800      	cmp	r0, #0
    3156:	d100      	bne.n	315a <_vfprintf_r+0x1d6e>
    3158:	e2a4      	b.n	36a4 <_vfprintf_r+0x22b8>
    315a:	2301      	movs	r3, #1
    315c:	9328      	str	r3, [sp, #160]	@ 0xa0
    315e:	2300      	movs	r3, #0
    3160:	ad41      	add	r5, sp, #260	@ 0x104
    3162:	9312      	str	r3, [sp, #72]	@ 0x48
    3164:	930f      	str	r3, [sp, #60]	@ 0x3c
    3166:	4b26      	ldr	r3, [pc, #152]	@ (3200 <_vfprintf_r+0x1e14>)
    3168:	9309      	str	r3, [sp, #36]	@ 0x24
    316a:	e4e1      	b.n	2b30 <_vfprintf_r+0x1744>
    316c:	9b28      	ldr	r3, [sp, #160]	@ 0xa0
    316e:	9314      	str	r3, [sp, #80]	@ 0x50
    3170:	1b63      	subs	r3, r4, r5
    3172:	9311      	str	r3, [sp, #68]	@ 0x44
    3174:	4643      	mov	r3, r8
    3176:	2b47      	cmp	r3, #71	@ 0x47
    3178:	d1b1      	bne.n	30de <_vfprintf_r+0x1cf2>
    317a:	9b14      	ldr	r3, [sp, #80]	@ 0x50
    317c:	3303      	adds	r3, #3
    317e:	db54      	blt.n	322a <_vfprintf_r+0x1e3e>
    3180:	9b0a      	ldr	r3, [sp, #40]	@ 0x28
    3182:	9a14      	ldr	r2, [sp, #80]	@ 0x50
    3184:	4293      	cmp	r3, r2
    3186:	da15      	bge.n	31b4 <_vfprintf_r+0x1dc8>
    3188:	2302      	movs	r3, #2
    318a:	425b      	negs	r3, r3
    318c:	469c      	mov	ip, r3
    318e:	9b14      	ldr	r3, [sp, #80]	@ 0x50
    3190:	44e1      	add	r9, ip
    3192:	3b01      	subs	r3, #1
    3194:	469a      	mov	sl, r3
    3196:	464a      	mov	r2, r9
    3198:	9328      	str	r3, [sp, #160]	@ 0xa0
    319a:	ab2a      	add	r3, sp, #168	@ 0xa8
    319c:	701a      	strb	r2, [r3, #0]
    319e:	4652      	mov	r2, sl
    31a0:	2a00      	cmp	r2, #0
    31a2:	db00      	blt.n	31a6 <_vfprintf_r+0x1dba>
    31a4:	e648      	b.n	2e38 <_vfprintf_r+0x1a4c>
    31a6:	2201      	movs	r2, #1
    31a8:	9914      	ldr	r1, [sp, #80]	@ 0x50
    31aa:	1a52      	subs	r2, r2, r1
    31ac:	4692      	mov	sl, r2
    31ae:	222d      	movs	r2, #45	@ 0x2d
    31b0:	705a      	strb	r2, [r3, #1]
    31b2:	e647      	b.n	2e44 <_vfprintf_r+0x1a58>
    31b4:	9b11      	ldr	r3, [sp, #68]	@ 0x44
    31b6:	9a14      	ldr	r2, [sp, #80]	@ 0x50
    31b8:	4293      	cmp	r3, r2
    31ba:	dd00      	ble.n	31be <_vfprintf_r+0x1dd2>
    31bc:	e0d9      	b.n	3372 <_vfprintf_r+0x1f86>
    31be:	465b      	mov	r3, fp
    31c0:	9a14      	ldr	r2, [sp, #80]	@ 0x50
    31c2:	920c      	str	r2, [sp, #48]	@ 0x30
    31c4:	07db      	lsls	r3, r3, #31
    31c6:	d400      	bmi.n	31ca <_vfprintf_r+0x1dde>
    31c8:	e5a1      	b.n	2d0e <_vfprintf_r+0x1922>
    31ca:	9b1b      	ldr	r3, [sp, #108]	@ 0x6c
    31cc:	469c      	mov	ip, r3
    31ce:	4462      	add	r2, ip
    31d0:	920c      	str	r2, [sp, #48]	@ 0x30
    31d2:	e59c      	b.n	2d0e <_vfprintf_r+0x1922>
    31d4:	003a      	movs	r2, r7
    31d6:	9908      	ldr	r1, [sp, #32]
    31d8:	9807      	ldr	r0, [sp, #28]
    31da:	f000 fb2f 	bl	383c <__sprint_r>
    31de:	2800      	cmp	r0, #0
    31e0:	d001      	beq.n	31e6 <_vfprintf_r+0x1dfa>
    31e2:	f7fe fe71 	bl	1ec8 <_vfprintf_r+0xadc>
    31e6:	9a28      	ldr	r2, [sp, #160]	@ 0xa0
    31e8:	68bc      	ldr	r4, [r7, #8]
    31ea:	ae31      	add	r6, sp, #196	@ 0xc4
    31ec:	f7ff f810 	bl	2210 <_vfprintf_r+0xe24>
    31f0:	000090f0 	.word	0x000090f0
    31f4:	00009430 	.word	0x00009430
    31f8:	fffffbff 	.word	0xfffffbff
    31fc:	00007830 	.word	0x00007830
    3200:	000090fc 	.word	0x000090fc
    3204:	2a00      	cmp	r2, #0
    3206:	d100      	bne.n	320a <_vfprintf_r+0x1e1e>
    3208:	e13f      	b.n	348a <_vfprintf_r+0x209e>
    320a:	9b0a      	ldr	r3, [sp, #40]	@ 0x28
    320c:	9410      	str	r4, [sp, #64]	@ 0x40
    320e:	1c5a      	adds	r2, r3, #1
    3210:	9209      	str	r2, [sp, #36]	@ 0x24
    3212:	930c      	str	r3, [sp, #48]	@ 0x30
    3214:	2300      	movs	r3, #0
    3216:	930a      	str	r3, [sp, #40]	@ 0x28
    3218:	931a      	str	r3, [sp, #104]	@ 0x68
    321a:	9315      	str	r3, [sp, #84]	@ 0x54
    321c:	9314      	str	r3, [sp, #80]	@ 0x50
    321e:	f7fe f984 	bl	152a <_vfprintf_r+0x13e>
    3222:	49e2      	ldr	r1, [pc, #904]	@ (35ac <_vfprintf_r+0x21c0>)
    3224:	468a      	mov	sl, r1
    3226:	f7fe ff00 	bl	202a <_vfprintf_r+0xc3e>
    322a:	2302      	movs	r3, #2
    322c:	425b      	negs	r3, r3
    322e:	469c      	mov	ip, r3
    3230:	44e1      	add	r9, ip
    3232:	464a      	mov	r2, r9
    3234:	9b14      	ldr	r3, [sp, #80]	@ 0x50
    3236:	3b01      	subs	r3, #1
    3238:	9328      	str	r3, [sp, #160]	@ 0xa0
    323a:	ab2a      	add	r3, sp, #168	@ 0xa8
    323c:	701a      	strb	r2, [r3, #0]
    323e:	2201      	movs	r2, #1
    3240:	9914      	ldr	r1, [sp, #80]	@ 0x50
    3242:	1a52      	subs	r2, r2, r1
    3244:	4692      	mov	sl, r2
    3246:	222d      	movs	r2, #45	@ 0x2d
    3248:	705a      	strb	r2, [r3, #1]
    324a:	4652      	mov	r2, sl
    324c:	2a09      	cmp	r2, #9
    324e:	dc00      	bgt.n	3252 <_vfprintf_r+0x1e66>
    3250:	e5f8      	b.n	2e44 <_vfprintf_r+0x1a58>
    3252:	a920      	add	r1, sp, #128	@ 0x80
    3254:	2237      	movs	r2, #55	@ 0x37
    3256:	468c      	mov	ip, r1
    3258:	4462      	add	r2, ip
    325a:	9609      	str	r6, [sp, #36]	@ 0x24
    325c:	0014      	movs	r4, r2
    325e:	4656      	mov	r6, sl
    3260:	46aa      	mov	sl, r5
    3262:	930a      	str	r3, [sp, #40]	@ 0x28
    3264:	0030      	movs	r0, r6
    3266:	210a      	movs	r1, #10
    3268:	f7fc ff74 	bl	154 <__aeabi_idivmod>
    326c:	46a0      	mov	r8, r4
    326e:	3130      	adds	r1, #48	@ 0x30
    3270:	3c01      	subs	r4, #1
    3272:	0030      	movs	r0, r6
    3274:	7021      	strb	r1, [r4, #0]
    3276:	210a      	movs	r1, #10
    3278:	f7fc ff22 	bl	c0 <__divsi3>
    327c:	0035      	movs	r5, r6
    327e:	0006      	movs	r6, r0
    3280:	2d63      	cmp	r5, #99	@ 0x63
    3282:	dcef      	bgt.n	3264 <_vfprintf_r+0x1e78>
    3284:	0001      	movs	r1, r0
    3286:	4642      	mov	r2, r8
    3288:	3130      	adds	r1, #48	@ 0x30
    328a:	3a02      	subs	r2, #2
    328c:	a820      	add	r0, sp, #128	@ 0x80
    328e:	4684      	mov	ip, r0
    3290:	7011      	strb	r1, [r2, #0]
    3292:	2137      	movs	r1, #55	@ 0x37
    3294:	4461      	add	r1, ip
    3296:	4655      	mov	r5, sl
    3298:	9e09      	ldr	r6, [sp, #36]	@ 0x24
    329a:	9b0a      	ldr	r3, [sp, #40]	@ 0x28
    329c:	428a      	cmp	r2, r1
    329e:	d300      	bcc.n	32a2 <_vfprintf_r+0x1eb6>
    32a0:	e22a      	b.n	36f8 <_vfprintf_r+0x230c>
    32a2:	202a      	movs	r0, #42	@ 0x2a
    32a4:	4460      	add	r0, ip
    32a6:	0001      	movs	r1, r0
    32a8:	469a      	mov	sl, r3
    32aa:	7814      	ldrb	r4, [r2, #0]
    32ac:	ab20      	add	r3, sp, #128	@ 0x80
    32ae:	700c      	strb	r4, [r1, #0]
    32b0:	469c      	mov	ip, r3
    32b2:	2437      	movs	r4, #55	@ 0x37
    32b4:	3201      	adds	r2, #1
    32b6:	4464      	add	r4, ip
    32b8:	3101      	adds	r1, #1
    32ba:	4294      	cmp	r4, r2
    32bc:	d1f5      	bne.n	32aa <_vfprintf_r+0x1ebe>
    32be:	4641      	mov	r1, r8
    32c0:	4653      	mov	r3, sl
    32c2:	1822      	adds	r2, r4, r0
    32c4:	3202      	adds	r2, #2
    32c6:	1a52      	subs	r2, r2, r1
    32c8:	1ad3      	subs	r3, r2, r3
    32ca:	931f      	str	r3, [sp, #124]	@ 0x7c
    32cc:	e4bd      	b.n	2c4a <_vfprintf_r+0x185e>
    32ce:	9b0a      	ldr	r3, [sp, #40]	@ 0x28
    32d0:	18ec      	adds	r4, r5, r3
    32d2:	2347      	movs	r3, #71	@ 0x47
    32d4:	4698      	mov	r8, r3
    32d6:	e6ef      	b.n	30b8 <_vfprintf_r+0x1ccc>
    32d8:	2200      	movs	r2, #0
    32da:	9006      	str	r0, [sp, #24]
