
outputs/output.elf:     file format elf32-littlearm


Disassembly of section .text:

00000000 <interrupt_vectors>:

}


void print_detected_devices(void)
{
       0:	00 80 00 20 81 0b 00 00 7d 0b 00 00 7d 0b 00 00     ... ....}...}...
	...
    if(stored_devices == 0) return;
    for (int index = 0; index < stored_devices; index++)
      2c:	7d 0b 00 00 00 00 00 00 00 00 00 00 7d 0b 00 00     }...........}...
      3c:	7d 0b 00 00 7d 0b 00 00 3d 06 00 00 7d 0b 00 00     }...}...=...}...
    {
        uint8_t  *mac = device_mac[index];
        printf("\n\rMAC: %02x:%02x:%02x:%02x:%02x:%02x", mac[5], mac[4], mac[3], mac[2], mac[1], mac[0]);
      4c:	7d 0b 00 00 7d 0b 00 00 00 00 00 00 7d 0b 00 00     }...}.......}...
      5c:	7d 0b 00 00 7d 0b 00 00 7d 0b 00 00 b9 0c 00 00     }...}...}.......
        printf(" Name: %s", device_name[index]);
        printf(" Rssi: -%ddBm", device_rssi[index]);
      6c:	7d 0b 00 00 7d 0b 00 00 7d 0b 00 00 7d 0b 00 00     }...}...}...}...
        uint32_t last = device_last_reception_time[index];
        uint32_t previous = device_previous_reception_time[index];
        uint32_t time_diff = last - previous;
      7c:	7d 0b 00 00 7d 0b 00 00 7d 0b 00 00 7d 0b 00 00     }...}...}...}...
        printf(" frame diff: %ldms", time_diff);
        uint32_t diff_now = timer_get_time()-last;
      8c:	7d 0b 00 00 7d 0b 00 00 7d 0b 00 00 7d 0b 00 00     }...}...}...}...
        printf(" Not received since: %ldms ", diff_now);
        print_payload(device_last_advdata[index], device_last_advlen[index]);
      9c:	7d 0b 00 00 7d 0b 00 00 7d 0b 00 00 00 00 00 00     }...}...}.......
	...

000000c0 <__gnu_thumb1_case_uhi>:
        print_payload_ascii(device_last_advdata[index], device_last_advlen[index]);
    }
}
      c0:	b403      	push	{r0, r1}
      c2:	4671      	mov	r1, lr
      c4:	0849      	lsrs	r1, r1, #1
      c6:	0040      	lsls	r0, r0, #1
      c8:	0049      	lsls	r1, r1, #1
      ca:	5a09      	ldrh	r1, [r1, r0]
      cc:	0049      	lsls	r1, r1, #1
      ce:	448e      	add	lr, r1
      d0:	bc03      	pop	{r0, r1}
      d2:	4770      	bx	lr

000000d4 <__udivsi3>:
      d4:	2900      	cmp	r1, #0
      d6:	d034      	beq.n	142 <.udivsi3_skip_div0_test+0x6a>

000000d8 <.udivsi3_skip_div0_test>:
      d8:	2301      	movs	r3, #1
      da:	2200      	movs	r2, #0
      dc:	b410      	push	{r4}
      de:	4288      	cmp	r0, r1
      e0:	d32c      	bcc.n	13c <.udivsi3_skip_div0_test+0x64>
      e2:	2401      	movs	r4, #1
      e4:	0724      	lsls	r4, r4, #28
      e6:	42a1      	cmp	r1, r4
      e8:	d204      	bcs.n	f4 <.udivsi3_skip_div0_test+0x1c>
      ea:	4281      	cmp	r1, r0
      ec:	d202      	bcs.n	f4 <.udivsi3_skip_div0_test+0x1c>
      ee:	0109      	lsls	r1, r1, #4
      f0:	011b      	lsls	r3, r3, #4
      f2:	e7f8      	b.n	e6 <.udivsi3_skip_div0_test+0xe>
      f4:	00e4      	lsls	r4, r4, #3
      f6:	42a1      	cmp	r1, r4
      f8:	d204      	bcs.n	104 <.udivsi3_skip_div0_test+0x2c>
      fa:	4281      	cmp	r1, r0
      fc:	d202      	bcs.n	104 <.udivsi3_skip_div0_test+0x2c>
      fe:	0049      	lsls	r1, r1, #1
     100:	005b      	lsls	r3, r3, #1
     102:	e7f8      	b.n	f6 <.udivsi3_skip_div0_test+0x1e>
     104:	4288      	cmp	r0, r1
     106:	d301      	bcc.n	10c <.udivsi3_skip_div0_test+0x34>
     108:	1a40      	subs	r0, r0, r1
     10a:	431a      	orrs	r2, r3
     10c:	084c      	lsrs	r4, r1, #1
     10e:	42a0      	cmp	r0, r4
     110:	d302      	bcc.n	118 <.udivsi3_skip_div0_test+0x40>
     112:	1b00      	subs	r0, r0, r4
     114:	085c      	lsrs	r4, r3, #1
     116:	4322      	orrs	r2, r4
     118:	088c      	lsrs	r4, r1, #2
     11a:	42a0      	cmp	r0, r4
     11c:	d302      	bcc.n	124 <.udivsi3_skip_div0_test+0x4c>
     11e:	1b00      	subs	r0, r0, r4
     120:	089c      	lsrs	r4, r3, #2
     122:	4322      	orrs	r2, r4
     124:	08cc      	lsrs	r4, r1, #3
     126:	42a0      	cmp	r0, r4
     128:	d302      	bcc.n	130 <.udivsi3_skip_div0_test+0x58>
     12a:	1b00      	subs	r0, r0, r4
     12c:	08dc      	lsrs	r4, r3, #3
     12e:	4322      	orrs	r2, r4
     130:	2800      	cmp	r0, #0
     132:	d003      	beq.n	13c <.udivsi3_skip_div0_test+0x64>
     134:	091b      	lsrs	r3, r3, #4
     136:	d001      	beq.n	13c <.udivsi3_skip_div0_test+0x64>
     138:	0909      	lsrs	r1, r1, #4
     13a:	e7e3      	b.n	104 <.udivsi3_skip_div0_test+0x2c>
     13c:	0010      	movs	r0, r2
     13e:	bc10      	pop	{r4}
     140:	4770      	bx	lr
     142:	b501      	push	{r0, lr}
     144:	2000      	movs	r0, #0
     146:	f000 f80b 	bl	160 <__aeabi_idiv0>
     14a:	bd02      	pop	{r1, pc}

0000014c <__aeabi_uidivmod>:
     14c:	2900      	cmp	r1, #0
     14e:	d0f8      	beq.n	142 <.udivsi3_skip_div0_test+0x6a>
     150:	b503      	push	{r0, r1, lr}
     152:	f7ff ffc1 	bl	d8 <.udivsi3_skip_div0_test>
     156:	bc0e      	pop	{r1, r2, r3}
     158:	4342      	muls	r2, r0
     15a:	1a89      	subs	r1, r1, r2
     15c:	4718      	bx	r3
     15e:	46c0      	nop			@ (mov r8, r8)

00000160 <__aeabi_idiv0>:
     160:	4770      	bx	lr
     162:	46c0      	nop			@ (mov r8, r8)

00000164 <__clzsi2>:
     164:	211c      	movs	r1, #28
     166:	2301      	movs	r3, #1
     168:	041b      	lsls	r3, r3, #16
     16a:	4298      	cmp	r0, r3
     16c:	d301      	bcc.n	172 <__clzsi2+0xe>
     16e:	0c00      	lsrs	r0, r0, #16
     170:	3910      	subs	r1, #16
     172:	0a1b      	lsrs	r3, r3, #8
     174:	4298      	cmp	r0, r3
     176:	d301      	bcc.n	17c <__clzsi2+0x18>
     178:	0a00      	lsrs	r0, r0, #8
     17a:	3908      	subs	r1, #8
     17c:	091b      	lsrs	r3, r3, #4
     17e:	4298      	cmp	r0, r3
     180:	d301      	bcc.n	186 <__clzsi2+0x22>
     182:	0900      	lsrs	r0, r0, #4
     184:	3904      	subs	r1, #4
     186:	a202      	add	r2, pc, #8	@ (adr r2, 190 <__clzsi2+0x2c>)
     188:	5c10      	ldrb	r0, [r2, r0]
     18a:	1840      	adds	r0, r0, r1
     18c:	4770      	bx	lr
     18e:	46c0      	nop			@ (mov r8, r8)
     190:	02020304 	.word	0x02020304
     194:	01010101 	.word	0x01010101
	...

000001a0 <__divsi3>:
     1a0:	2900      	cmp	r1, #0
     1a2:	d041      	beq.n	228 <.divsi3_skip_div0_test+0x84>

000001a4 <.divsi3_skip_div0_test>:
     1a4:	b410      	push	{r4}
     1a6:	0004      	movs	r4, r0
     1a8:	404c      	eors	r4, r1
     1aa:	46a4      	mov	ip, r4
     1ac:	2301      	movs	r3, #1
     1ae:	2200      	movs	r2, #0
     1b0:	2900      	cmp	r1, #0
     1b2:	d500      	bpl.n	1b6 <.divsi3_skip_div0_test+0x12>
     1b4:	4249      	negs	r1, r1
     1b6:	2800      	cmp	r0, #0
     1b8:	d500      	bpl.n	1bc <.divsi3_skip_div0_test+0x18>
     1ba:	4240      	negs	r0, r0
     1bc:	4288      	cmp	r0, r1
     1be:	d32c      	bcc.n	21a <.divsi3_skip_div0_test+0x76>
     1c0:	2401      	movs	r4, #1
     1c2:	0724      	lsls	r4, r4, #28
     1c4:	42a1      	cmp	r1, r4
     1c6:	d204      	bcs.n	1d2 <.divsi3_skip_div0_test+0x2e>
     1c8:	4281      	cmp	r1, r0
     1ca:	d202      	bcs.n	1d2 <.divsi3_skip_div0_test+0x2e>
     1cc:	0109      	lsls	r1, r1, #4
     1ce:	011b      	lsls	r3, r3, #4
     1d0:	e7f8      	b.n	1c4 <.divsi3_skip_div0_test+0x20>
     1d2:	00e4      	lsls	r4, r4, #3
     1d4:	42a1      	cmp	r1, r4
     1d6:	d204      	bcs.n	1e2 <.divsi3_skip_div0_test+0x3e>
     1d8:	4281      	cmp	r1, r0
     1da:	d202      	bcs.n	1e2 <.divsi3_skip_div0_test+0x3e>
     1dc:	0049      	lsls	r1, r1, #1
     1de:	005b      	lsls	r3, r3, #1
     1e0:	e7f8      	b.n	1d4 <.divsi3_skip_div0_test+0x30>
     1e2:	4288      	cmp	r0, r1
     1e4:	d301      	bcc.n	1ea <.divsi3_skip_div0_test+0x46>
     1e6:	1a40      	subs	r0, r0, r1
     1e8:	431a      	orrs	r2, r3
     1ea:	084c      	lsrs	r4, r1, #1
     1ec:	42a0      	cmp	r0, r4
     1ee:	d302      	bcc.n	1f6 <.divsi3_skip_div0_test+0x52>
     1f0:	1b00      	subs	r0, r0, r4
     1f2:	085c      	lsrs	r4, r3, #1
     1f4:	4322      	orrs	r2, r4
     1f6:	088c      	lsrs	r4, r1, #2
     1f8:	42a0      	cmp	r0, r4
     1fa:	d302      	bcc.n	202 <.divsi3_skip_div0_test+0x5e>
     1fc:	1b00      	subs	r0, r0, r4
     1fe:	089c      	lsrs	r4, r3, #2
     200:	4322      	orrs	r2, r4
     202:	08cc      	lsrs	r4, r1, #3
     204:	42a0      	cmp	r0, r4
     206:	d302      	bcc.n	20e <.divsi3_skip_div0_test+0x6a>
     208:	1b00      	subs	r0, r0, r4
     20a:	08dc      	lsrs	r4, r3, #3
     20c:	4322      	orrs	r2, r4
     20e:	2800      	cmp	r0, #0
     210:	d003      	beq.n	21a <.divsi3_skip_div0_test+0x76>
     212:	091b      	lsrs	r3, r3, #4
     214:	d001      	beq.n	21a <.divsi3_skip_div0_test+0x76>
     216:	0909      	lsrs	r1, r1, #4
     218:	e7e3      	b.n	1e2 <.divsi3_skip_div0_test+0x3e>
     21a:	0010      	movs	r0, r2
     21c:	4664      	mov	r4, ip
     21e:	2c00      	cmp	r4, #0
     220:	d500      	bpl.n	224 <.divsi3_skip_div0_test+0x80>
     222:	4240      	negs	r0, r0
     224:	bc10      	pop	{r4}
     226:	4770      	bx	lr
     228:	b501      	push	{r0, lr}
     22a:	2000      	movs	r0, #0
     22c:	f7ff ff98 	bl	160 <__aeabi_idiv0>
     230:	bd02      	pop	{r1, pc}
     232:	46c0      	nop			@ (mov r8, r8)

00000234 <__aeabi_idivmod>:
     234:	2900      	cmp	r1, #0
     236:	d0f7      	beq.n	228 <.divsi3_skip_div0_test+0x84>
     238:	b503      	push	{r0, r1, lr}
     23a:	f7ff ffb3 	bl	1a4 <.divsi3_skip_div0_test>
     23e:	bc0e      	pop	{r1, r2, r3}
     240:	4342      	muls	r2, r0
     242:	1a89      	subs	r1, r1, r2
     244:	4718      	bx	r3
     246:	46c0      	nop			@ (mov r8, r8)

00000248 <__aeabi_cdrcmple>:
     248:	4684      	mov	ip, r0
     24a:	0010      	movs	r0, r2
     24c:	4662      	mov	r2, ip
     24e:	468c      	mov	ip, r1
     250:	0019      	movs	r1, r3
     252:	4663      	mov	r3, ip
     254:	e000      	b.n	258 <__aeabi_cdcmpeq>
     256:	46c0      	nop			@ (mov r8, r8)

00000258 <__aeabi_cdcmpeq>:
     258:	b51f      	push	{r0, r1, r2, r3, r4, lr}
     25a:	f008 fc47 	bl	8aec <__ledf2>
     25e:	2800      	cmp	r0, #0
     260:	d401      	bmi.n	266 <__aeabi_cdcmpeq+0xe>
     262:	2100      	movs	r1, #0
     264:	42c8      	cmn	r0, r1
     266:	bd1f      	pop	{r0, r1, r2, r3, r4, pc}

00000268 <__aeabi_dcmpeq>:
     268:	b510      	push	{r4, lr}
     26a:	f008 fb99 	bl	89a0 <__eqdf2>
     26e:	4240      	negs	r0, r0
     270:	3001      	adds	r0, #1
     272:	bd10      	pop	{r4, pc}

00000274 <__aeabi_dcmplt>:
     274:	b510      	push	{r4, lr}
     276:	f008 fc39 	bl	8aec <__ledf2>
     27a:	2800      	cmp	r0, #0
     27c:	db01      	blt.n	282 <__aeabi_dcmplt+0xe>
     27e:	2000      	movs	r0, #0
     280:	bd10      	pop	{r4, pc}
     282:	2001      	movs	r0, #1
     284:	bd10      	pop	{r4, pc}
     286:	46c0      	nop			@ (mov r8, r8)

00000288 <__aeabi_dcmple>:
     288:	b510      	push	{r4, lr}
     28a:	f008 fc2f 	bl	8aec <__ledf2>
     28e:	2800      	cmp	r0, #0
     290:	dd01      	ble.n	296 <__aeabi_dcmple+0xe>
     292:	2000      	movs	r0, #0
     294:	bd10      	pop	{r4, pc}
     296:	2001      	movs	r0, #1
     298:	bd10      	pop	{r4, pc}
     29a:	46c0      	nop			@ (mov r8, r8)

0000029c <__aeabi_dcmpgt>:
     29c:	b510      	push	{r4, lr}
     29e:	f008 fbc1 	bl	8a24 <__gedf2>
     2a2:	2800      	cmp	r0, #0
     2a4:	dc01      	bgt.n	2aa <__aeabi_dcmpgt+0xe>
     2a6:	2000      	movs	r0, #0
     2a8:	bd10      	pop	{r4, pc}
     2aa:	2001      	movs	r0, #1
     2ac:	bd10      	pop	{r4, pc}
     2ae:	46c0      	nop			@ (mov r8, r8)

000002b0 <__aeabi_dcmpge>:
     2b0:	b510      	push	{r4, lr}
     2b2:	f008 fbb7 	bl	8a24 <__gedf2>
     2b6:	2800      	cmp	r0, #0
     2b8:	da01      	bge.n	2be <__aeabi_dcmpge+0xe>
     2ba:	2000      	movs	r0, #0
     2bc:	bd10      	pop	{r4, pc}
     2be:	2001      	movs	r0, #1
     2c0:	bd10      	pop	{r4, pc}
     2c2:	46c0      	nop			@ (mov r8, r8)

000002c4 <__aeabi_uldivmod>:
     2c4:	2b00      	cmp	r3, #0
     2c6:	d111      	bne.n	2ec <__aeabi_uldivmod+0x28>
     2c8:	2a00      	cmp	r2, #0
     2ca:	d10f      	bne.n	2ec <__aeabi_uldivmod+0x28>
     2cc:	2900      	cmp	r1, #0
     2ce:	d100      	bne.n	2d2 <__aeabi_uldivmod+0xe>
     2d0:	2800      	cmp	r0, #0
     2d2:	d002      	beq.n	2da <__aeabi_uldivmod+0x16>
     2d4:	2100      	movs	r1, #0
     2d6:	43c9      	mvns	r1, r1
     2d8:	0008      	movs	r0, r1
     2da:	b407      	push	{r0, r1, r2}
     2dc:	4802      	ldr	r0, [pc, #8]	@ (2e8 <__aeabi_uldivmod+0x24>)
     2de:	a102      	add	r1, pc, #8	@ (adr r1, 2e8 <__aeabi_uldivmod+0x24>)
     2e0:	1840      	adds	r0, r0, r1
     2e2:	9002      	str	r0, [sp, #8]
     2e4:	bd03      	pop	{r0, r1, pc}
     2e6:	46c0      	nop			@ (mov r8, r8)
     2e8:	fffffe79 	.word	0xfffffe79
     2ec:	b403      	push	{r0, r1}
     2ee:	4668      	mov	r0, sp
     2f0:	b501      	push	{r0, lr}
     2f2:	9802      	ldr	r0, [sp, #8]
     2f4:	f008 f816 	bl	8324 <__udivmoddi4>
     2f8:	9b01      	ldr	r3, [sp, #4]
     2fa:	469e      	mov	lr, r3
     2fc:	b002      	add	sp, #8
     2fe:	bc0c      	pop	{r2, r3}
     300:	4770      	bx	lr
     302:	46c0      	nop			@ (mov r8, r8)

00000304 <__aeabi_llsr>:
     304:	40d0      	lsrs	r0, r2
     306:	000b      	movs	r3, r1
     308:	40d1      	lsrs	r1, r2
     30a:	469c      	mov	ip, r3
     30c:	3a20      	subs	r2, #32
     30e:	40d3      	lsrs	r3, r2
     310:	4318      	orrs	r0, r3
     312:	4252      	negs	r2, r2
     314:	4663      	mov	r3, ip
     316:	4093      	lsls	r3, r2
     318:	4318      	orrs	r0, r3
     31a:	4770      	bx	lr

0000031c <__aeabi_llsl>:
     31c:	4091      	lsls	r1, r2
     31e:	0003      	movs	r3, r0
     320:	4090      	lsls	r0, r2
     322:	469c      	mov	ip, r3
     324:	3a20      	subs	r2, #32
     326:	4093      	lsls	r3, r2
     328:	4319      	orrs	r1, r3
     32a:	4252      	negs	r2, r2
     32c:	4663      	mov	r3, ip
     32e:	40d3      	lsrs	r3, r2
     330:	4319      	orrs	r1, r3
     332:	4770      	bx	lr

00000334 <__clzdi2>:
     334:	b510      	push	{r4, lr}
     336:	2900      	cmp	r1, #0
     338:	d103      	bne.n	342 <__clzdi2+0xe>
     33a:	f7ff ff13 	bl	164 <__clzsi2>
     33e:	3020      	adds	r0, #32
     340:	e002      	b.n	348 <__clzdi2+0x14>
     342:	0008      	movs	r0, r1
     344:	f7ff ff0e 	bl	164 <__clzsi2>
     348:	bd10      	pop	{r4, pc}
     34a:	46c0      	nop			@ (mov r8, r8)

0000034c <init_pdu_buffer_pointer>:
static  uint8_t *rx_pdu_buffer;


void init_pdu_buffer_pointer(uint8_t *pointer)
{
    rx_pdu_buffer = pointer;
     34c:	4b01      	ldr	r3, [pc, #4]	@ (354 <init_pdu_buffer_pointer+0x8>)
     34e:	6018      	str	r0, [r3, #0]
}
     350:	4770      	bx	lr
     352:	46c0      	nop			@ (mov r8, r8)
     354:	200006d0 	.word	0x200006d0

00000358 <analyse_adv_pdu>:
    }

}

void analyse_adv_pdu( uint8_t *pdu , uint8_t pdu_len, uint8_t *mac, advdata_callback cb)
{
     358:	b5f8      	push	{r3, r4, r5, r6, r7, lr}
     35a:	4647      	mov	r7, r8
     35c:	46ce      	mov	lr, r9
     35e:	0006      	movs	r6, r0
     360:	b580      	push	{r7, lr}
     362:	4690      	mov	r8, r2
     364:	000f      	movs	r7, r1
     366:	4699      	mov	r9, r3
    if(pdu_len <= 3) return;
     368:	2903      	cmp	r1, #3
     36a:	d90d      	bls.n	388 <analyse_adv_pdu+0x30>
    
    //Types are defined in Assigned Numbers https://www.bluetooth.com/specifications/assigned-numbers/
    //2.3 Common Data Types1
    for(int index = 0; index < pdu_len;)
     36c:	2400      	movs	r4, #0
    {
        uint8_t header[2];
        memcpy(&header, pdu+index, 2);
     36e:	5d35      	ldrb	r5, [r6, r4]
     370:	1933      	adds	r3, r6, r4
        uint8_t length = header[0];
        uint8_t *data = pdu + 2+index;
        uint8_t type = header[1];
        //Length contains type but we do not pass type in data pointer, only data content
        cb(type, data, length-1, mac);
     372:	1e6a      	subs	r2, r5, #1
        uint8_t *data = pdu + 2+index;
     374:	1ca1      	adds	r1, r4, #2
        index += length+1;
     376:	3501      	adds	r5, #1
        cb(type, data, length-1, mac);
     378:	7858      	ldrb	r0, [r3, #1]
     37a:	b2d2      	uxtb	r2, r2
     37c:	4643      	mov	r3, r8
        uint8_t *data = pdu + 2+index;
     37e:	1871      	adds	r1, r6, r1
        index += length+1;
     380:	1964      	adds	r4, r4, r5
        cb(type, data, length-1, mac);
     382:	47c8      	blx	r9
    for(int index = 0; index < pdu_len;)
     384:	42a7      	cmp	r7, r4
     386:	dcf2      	bgt.n	36e <analyse_adv_pdu+0x16>
    }

}
     388:	bcc0      	pop	{r6, r7}
     38a:	46b9      	mov	r9, r7
     38c:	46b0      	mov	r8, r6
     38e:	bdf8      	pop	{r3, r4, r5, r6, r7, pc}

00000390 <analyse_packet_data>:
    update_existing_device(AdvA, rssi, AdvData, advData_length);
    analyse_adv_pdu(AdvData, advData_length, AdvA, analyse_adv_data);
}

void analyse_packet_data(int8_t rssi)
{
     390:	b5f0      	push	{r4, r5, r6, r7, lr}
     392:	46c6      	mov	lr, r8
    uint8_t *header = &rx_pdu_buffer[0];
     394:	4b39      	ldr	r3, [pc, #228]	@ (47c <analyse_packet_data+0xec>)
{
     396:	b500      	push	{lr}
    uint8_t *header = &rx_pdu_buffer[0];
     398:	681a      	ldr	r2, [r3, #0]
    uint8_t header0 =  header[0];
    uint8_t pdu_type = header0&0x0f;
     39a:	230f      	movs	r3, #15
     39c:	7811      	ldrb	r1, [r2, #0]
     39e:	400b      	ands	r3, r1

    switch(pdu_type)
     3a0:	2b02      	cmp	r3, #2
     3a2:	d049      	beq.n	438 <analyse_packet_data+0xa8>
     3a4:	2b04      	cmp	r3, #4
     3a6:	d025      	beq.n	3f4 <analyse_packet_data+0x64>
     3a8:	2b00      	cmp	r3, #0
     3aa:	d10f      	bne.n	3cc <analyse_packet_data+0x3c>
    uint8_t *payload = &rx_pdu_buffer[2];
     3ac:	1c93      	adds	r3, r2, #2
    uint8_t *AdvData = payload+6;
     3ae:	0016      	movs	r6, r2
    uint8_t *payload = &rx_pdu_buffer[2];
     3b0:	4698      	mov	r8, r3
    uint8_t advData_length = length - 6;
     3b2:	7857      	ldrb	r7, [r2, #1]
    uint8_t *AdvData = payload+6;
     3b4:	3608      	adds	r6, #8
    uint8_t advData_length = length - 6;
     3b6:	3f06      	subs	r7, #6
     3b8:	b2ff      	uxtb	r7, r7
    update_existing_device(AdvA, rssi, AdvData, advData_length);
     3ba:	b2c1      	uxtb	r1, r0
     3bc:	003b      	movs	r3, r7
     3be:	0032      	movs	r2, r6
     3c0:	4640      	mov	r0, r8
     3c2:	f000 fa6f 	bl	8a4 <update_existing_device>
    for(int index = 0; index < pdu_len;)
     3c6:	2400      	movs	r4, #0
    if(pdu_len <= 3) return;
     3c8:	2f03      	cmp	r7, #3
     3ca:	d80d      	bhi.n	3e8 <analyse_packet_data+0x58>
        case 0 : analyse_payload(rssi); break; //ADV_IND
        case 0x2: analyse_payload(rssi); break; //ADV_NONCONN_IND
        case 0x3: break; //SCAN_REQ
        case 0x4: analyse_payload(rssi); break; //SCAN_RSP
    }
}
     3cc:	bc80      	pop	{r7}
     3ce:	46b8      	mov	r8, r7
     3d0:	bdf0      	pop	{r4, r5, r6, r7, pc}
        cb(type, data, length-1, mac);
     3d2:	1e6a      	subs	r2, r5, #1
        uint8_t *data = pdu + 2+index;
     3d4:	1ca1      	adds	r1, r4, #2
        case 0x09: add_device_with_matched_name(mac,data,len); break;
     3d6:	4640      	mov	r0, r8
     3d8:	b2d2      	uxtb	r2, r2
        uint8_t *data = pdu + 2+index;
     3da:	1871      	adds	r1, r6, r1
        case 0x09: add_device_with_matched_name(mac,data,len); break;
     3dc:	f000 f9f6 	bl	7cc <add_device_with_matched_name>
        index += length+1;
     3e0:	3501      	adds	r5, #1
     3e2:	1964      	adds	r4, r4, r5
    for(int index = 0; index < pdu_len;)
     3e4:	42bc      	cmp	r4, r7
     3e6:	daf1      	bge.n	3cc <analyse_packet_data+0x3c>
        memcpy(&header, pdu+index, 2);
     3e8:	1933      	adds	r3, r6, r4
    switch(type)
     3ea:	785b      	ldrb	r3, [r3, #1]
        memcpy(&header, pdu+index, 2);
     3ec:	5d35      	ldrb	r5, [r6, r4]
    switch(type)
     3ee:	2b09      	cmp	r3, #9
     3f0:	d1f6      	bne.n	3e0 <analyse_packet_data+0x50>
     3f2:	e7ee      	b.n	3d2 <analyse_packet_data+0x42>
    uint8_t *payload = &rx_pdu_buffer[2];
     3f4:	1c93      	adds	r3, r2, #2
    uint8_t *AdvData = payload+6;
     3f6:	0016      	movs	r6, r2
    uint8_t *payload = &rx_pdu_buffer[2];
     3f8:	4698      	mov	r8, r3
    uint8_t advData_length = length - 6;
     3fa:	7857      	ldrb	r7, [r2, #1]
    uint8_t *AdvData = payload+6;
     3fc:	3608      	adds	r6, #8
    uint8_t advData_length = length - 6;
     3fe:	3f06      	subs	r7, #6
     400:	b2ff      	uxtb	r7, r7
    update_existing_device(AdvA, rssi, AdvData, advData_length);
     402:	b2c1      	uxtb	r1, r0
     404:	003b      	movs	r3, r7
     406:	0032      	movs	r2, r6
     408:	4640      	mov	r0, r8
     40a:	f000 fa4b 	bl	8a4 <update_existing_device>
    if(pdu_len <= 3) return;
     40e:	2f03      	cmp	r7, #3
     410:	d9dc      	bls.n	3cc <analyse_packet_data+0x3c>
    for(int index = 0; index < pdu_len;)
     412:	2400      	movs	r4, #0
     414:	e003      	b.n	41e <analyse_packet_data+0x8e>
        index += length+1;
     416:	3501      	adds	r5, #1
     418:	1964      	adds	r4, r4, r5
    for(int index = 0; index < pdu_len;)
     41a:	42a7      	cmp	r7, r4
     41c:	ddd6      	ble.n	3cc <analyse_packet_data+0x3c>
        memcpy(&header, pdu+index, 2);
     41e:	1933      	adds	r3, r6, r4
    switch(type)
     420:	785b      	ldrb	r3, [r3, #1]
        memcpy(&header, pdu+index, 2);
     422:	5d35      	ldrb	r5, [r6, r4]
    switch(type)
     424:	2b09      	cmp	r3, #9
     426:	d1f6      	bne.n	416 <analyse_packet_data+0x86>
        cb(type, data, length-1, mac);
     428:	1e6a      	subs	r2, r5, #1
        uint8_t *data = pdu + 2+index;
     42a:	1ca1      	adds	r1, r4, #2
        case 0x09: add_device_with_matched_name(mac,data,len); break;
     42c:	4640      	mov	r0, r8
     42e:	b2d2      	uxtb	r2, r2
        uint8_t *data = pdu + 2+index;
     430:	1871      	adds	r1, r6, r1
        case 0x09: add_device_with_matched_name(mac,data,len); break;
     432:	f000 f9cb 	bl	7cc <add_device_with_matched_name>
     436:	e7ee      	b.n	416 <analyse_packet_data+0x86>
    uint8_t *payload = &rx_pdu_buffer[2];
     438:	1c93      	adds	r3, r2, #2
    uint8_t *AdvData = payload+6;
     43a:	0016      	movs	r6, r2
    uint8_t *payload = &rx_pdu_buffer[2];
     43c:	4698      	mov	r8, r3
    uint8_t advData_length = length - 6;
     43e:	7857      	ldrb	r7, [r2, #1]
    uint8_t *AdvData = payload+6;
     440:	3608      	adds	r6, #8
    uint8_t advData_length = length - 6;
     442:	3f06      	subs	r7, #6
     444:	b2ff      	uxtb	r7, r7
    update_existing_device(AdvA, rssi, AdvData, advData_length);
     446:	b2c1      	uxtb	r1, r0
     448:	003b      	movs	r3, r7
     44a:	0032      	movs	r2, r6
     44c:	4640      	mov	r0, r8
     44e:	f000 fa29 	bl	8a4 <update_existing_device>
    if(pdu_len <= 3) return;
     452:	2f03      	cmp	r7, #3
     454:	d9ba      	bls.n	3cc <analyse_packet_data+0x3c>
    for(int index = 0; index < pdu_len;)
     456:	2400      	movs	r4, #0
     458:	e003      	b.n	462 <analyse_packet_data+0xd2>
        index += length+1;
     45a:	3501      	adds	r5, #1
     45c:	1964      	adds	r4, r4, r5
    for(int index = 0; index < pdu_len;)
     45e:	42a7      	cmp	r7, r4
     460:	ddb4      	ble.n	3cc <analyse_packet_data+0x3c>
        memcpy(&header, pdu+index, 2);
     462:	1933      	adds	r3, r6, r4
    switch(type)
     464:	785b      	ldrb	r3, [r3, #1]
        memcpy(&header, pdu+index, 2);
     466:	5d35      	ldrb	r5, [r6, r4]
    switch(type)
     468:	2b09      	cmp	r3, #9
     46a:	d1f6      	bne.n	45a <analyse_packet_data+0xca>
        cb(type, data, length-1, mac);
     46c:	1e6a      	subs	r2, r5, #1
        uint8_t *data = pdu + 2+index;
     46e:	1ca1      	adds	r1, r4, #2
        case 0x09: add_device_with_matched_name(mac,data,len); break;
     470:	4640      	mov	r0, r8
     472:	b2d2      	uxtb	r2, r2
        uint8_t *data = pdu + 2+index;
     474:	1871      	adds	r1, r6, r1
        case 0x09: add_device_with_matched_name(mac,data,len); break;
     476:	f000 f9a9 	bl	7cc <add_device_with_matched_name>
     47a:	e7ee      	b.n	45a <analyse_packet_data+0xca>
     47c:	200006d0 	.word	0x200006d0

00000480 <ble_init>:
}

void ble_init( uint8_t channel_number )
{

    if ( ((NRF_FICR->OVERRIDEEN) & FICR_OVERRIDEEN_BLE_1MBIT_Msk) == FICR_OVERRIDEEN_BLE_1MBIT_Override)
     480:	2380      	movs	r3, #128	@ 0x80
     482:	22ac      	movs	r2, #172	@ 0xac
     484:	055b      	lsls	r3, r3, #21
     486:	589a      	ldr	r2, [r3, r2]
{
     488:	b510      	push	{r4, lr}
    if ( ((NRF_FICR->OVERRIDEEN) & FICR_OVERRIDEEN_BLE_1MBIT_Msk) == FICR_OVERRIDEEN_BLE_1MBIT_Override)
     48a:	0712      	lsls	r2, r2, #28
     48c:	d416      	bmi.n	4bc <ble_init+0x3c>
    {
        NRF_RADIO->OVERRIDE0 = NRF_FICR->BLE_1MBIT[0];
     48e:	22ec      	movs	r2, #236	@ 0xec
     490:	4923      	ldr	r1, [pc, #140]	@ (520 <ble_init+0xa0>)
     492:	589c      	ldr	r4, [r3, r2]
     494:	4a23      	ldr	r2, [pc, #140]	@ (524 <ble_init+0xa4>)
     496:	5054      	str	r4, [r2, r1]
        NRF_RADIO->OVERRIDE1 = NRF_FICR->BLE_1MBIT[1];
     498:	21f0      	movs	r1, #240	@ 0xf0
     49a:	585c      	ldr	r4, [r3, r1]
     49c:	21e5      	movs	r1, #229	@ 0xe5
     49e:	00c9      	lsls	r1, r1, #3
     4a0:	5054      	str	r4, [r2, r1]
        NRF_RADIO->OVERRIDE2 = NRF_FICR->BLE_1MBIT[2];
     4a2:	21f4      	movs	r1, #244	@ 0xf4
     4a4:	585c      	ldr	r4, [r3, r1]
     4a6:	4920      	ldr	r1, [pc, #128]	@ (528 <ble_init+0xa8>)
     4a8:	5054      	str	r4, [r2, r1]
        NRF_RADIO->OVERRIDE3 = NRF_FICR->BLE_1MBIT[3];
     4aa:	21f8      	movs	r1, #248	@ 0xf8
     4ac:	585c      	ldr	r4, [r3, r1]
     4ae:	21e6      	movs	r1, #230	@ 0xe6
     4b0:	00c9      	lsls	r1, r1, #3
     4b2:	5054      	str	r4, [r2, r1]
        NRF_RADIO->OVERRIDE4 = NRF_FICR->BLE_1MBIT[4];
     4b4:	21fc      	movs	r1, #252	@ 0xfc
     4b6:	5859      	ldr	r1, [r3, r1]
     4b8:	4b1c      	ldr	r3, [pc, #112]	@ (52c <ble_init+0xac>)
     4ba:	50d1      	str	r1, [r2, r3]
    }

    NRF_RADIO->TXPOWER = RADIO_TXPOWER_TXPOWER_0dBm << RADIO_TXPOWER_TXPOWER_Pos;
     4bc:	2200      	movs	r2, #0
     4be:	4c19      	ldr	r4, [pc, #100]	@ (524 <ble_init+0xa4>)
     4c0:	4b1b      	ldr	r3, [pc, #108]	@ (530 <ble_init+0xb0>)
     4c2:	50e2      	str	r2, [r4, r3]

    //nrf radio also have proprietary 1mbit mode
    NRF_RADIO->MODE = RADIO_MODE_MODE_Ble_1Mbit << RADIO_MODE_MODE_Pos;
     4c4:	3304      	adds	r3, #4
     4c6:	3203      	adds	r2, #3
     4c8:	50e2      	str	r2, [r4, r3]
    NRF_RADIO->CRCCNF = RADIO_CRCCNF_LEN_Three << RADIO_CRCCNF_LEN_Pos | RADIO_CRCCNF_SKIPADDR_Skip<<RADIO_CRCCNF_SKIPADDR_Pos;
     4ca:	2204      	movs	r2, #4
     4cc:	4b19      	ldr	r3, [pc, #100]	@ (534 <ble_init+0xb4>)
     4ce:	32ff      	adds	r2, #255	@ 0xff
     4d0:	50e2      	str	r2, [r4, r3]
    NRF_RADIO->CRCINIT = 0x555555;      // Initial value
     4d2:	4b19      	ldr	r3, [pc, #100]	@ (538 <ble_init+0xb8>)
     4d4:	4a19      	ldr	r2, [pc, #100]	@ (53c <ble_init+0xbc>)
     4d6:	50e2      	str	r2, [r4, r3]
    NRF_RADIO->CRCPOLY = 0x00065B;     // CRC poly:  x24 + x 10 + x 9 + x6 + x 4 + x 3 + x + 1=0b0000 0000 0000 0110 0101 1011=0x00065B
     4d8:	4a19      	ldr	r2, [pc, #100]	@ (540 <ble_init+0xc0>)
     4da:	3b04      	subs	r3, #4
     4dc:	50e2      	str	r2, [r4, r3]
    NRF_RADIO->PCNF0 = (1 << RADIO_PCNF0_S0LEN_Pos) | //This field is in bytes
     4de:	2284      	movs	r2, #132	@ 0x84
     4e0:	4b18      	ldr	r3, [pc, #96]	@ (544 <ble_init+0xc4>)
     4e2:	0052      	lsls	r2, r2, #1
     4e4:	50e2      	str	r2, [r4, r3]
    NRF_RADIO->PCNF1 = (RADIO_PCNF1_WHITEEN_Enabled    << RADIO_PCNF1_WHITEEN_Pos) |
     4e6:	4a18      	ldr	r2, [pc, #96]	@ (548 <ble_init+0xc8>)
     4e8:	3304      	adds	r3, #4
     4ea:	50e2      	str	r2, [r4, r3]
    NRF_RADIO->DATAWHITEIV = channel_number | (1 << 6);
     4ec:	2340      	movs	r3, #64	@ 0x40
     4ee:	4318      	orrs	r0, r3
     4f0:	4b16      	ldr	r3, [pc, #88]	@ (54c <ble_init+0xcc>)
     4f2:	50e0      	str	r0, [r4, r3]
    printf("\n\rData whitening init val:0x%02lx", NRF_RADIO->DATAWHITEIV);
     4f4:	58e1      	ldr	r1, [r4, r3]
     4f6:	4816      	ldr	r0, [pc, #88]	@ (550 <ble_init+0xd0>)
     4f8:	f000 fed6 	bl	12a8 <printf>
    SCB->SHP[_SHP_IDX(IRQn)] = ((uint32_t)(SCB->SHP[_SHP_IDX(IRQn)] & ~(0xFFUL << _BIT_SHIFT(IRQn))) |
       (((priority << (8U - __NVIC_PRIO_BITS)) & (uint32_t)0xFFUL) << _BIT_SHIFT(IRQn)));
  }
  else
  {
    NVIC->IP[_IP_IDX(IRQn)]  = ((uint32_t)(NVIC->IP[_IP_IDX(IRQn)]  & ~(0xFFUL << _BIT_SHIFT(IRQn))) |
     4fc:	21c0      	movs	r1, #192	@ 0xc0
     4fe:	4815      	ldr	r0, [pc, #84]	@ (554 <ble_init+0xd4>)
     500:	0089      	lsls	r1, r1, #2
     502:	5842      	ldr	r2, [r0, r1]
     504:	4b14      	ldr	r3, [pc, #80]	@ (558 <ble_init+0xd8>)
     506:	401a      	ands	r2, r3
     508:	2380      	movs	r3, #128	@ 0x80
     50a:	01db      	lsls	r3, r3, #7
     50c:	4313      	orrs	r3, r2
     50e:	5043      	str	r3, [r0, r1]

    //Advertisement base address
    //Tutaj wpisałem że base jest 3 bitowy wiec musze wyrzucić cześć do prefixu
    //Bluetooth chce LSB FIRST wiec zacznie wysyłać od prawej stąd z adresu 0x8E89BED6
    //0x8E jako ostatnie wyląduje w prefixie bo on jest wysyłany po base i też od LSB
    NRF_RADIO->BASE0 = 0x89BED611;
     510:	4a12      	ldr	r2, [pc, #72]	@ (55c <ble_init+0xdc>)
     512:	4b13      	ldr	r3, [pc, #76]	@ (560 <ble_init+0xe0>)
     514:	50e2      	str	r2, [r4, r3]
    NRF_RADIO->PREFIX0 = 0x8E;
     516:	228e      	movs	r2, #142	@ 0x8e
     518:	4b12      	ldr	r3, [pc, #72]	@ (564 <ble_init+0xe4>)
     51a:	50e2      	str	r2, [r4, r3]
}
     51c:	bd10      	pop	{r4, pc}
     51e:	46c0      	nop			@ (mov r8, r8)
     520:	00000724 	.word	0x00000724
     524:	40001000 	.word	0x40001000
     528:	0000072c 	.word	0x0000072c
     52c:	00000734 	.word	0x00000734
     530:	0000050c 	.word	0x0000050c
     534:	00000534 	.word	0x00000534
     538:	0000053c 	.word	0x0000053c
     53c:	00555555 	.word	0x00555555
     540:	0000065b 	.word	0x0000065b
     544:	00000514 	.word	0x00000514
     548:	020300ff 	.word	0x020300ff
     54c:	00000554 	.word	0x00000554
     550:	00009684 	.word	0x00009684
     554:	e000e100 	.word	0xe000e100
     558:	ffff00ff 	.word	0xffff00ff
     55c:	89bed611 	.word	0x89bed611
     560:	0000051c 	.word	0x0000051c
     564:	00000524 	.word	0x00000524

00000568 <ble_start_rx>:


void ble_start_rx(uint8_t channel_number)
{
     568:	0001      	movs	r1, r0
    //Clear all radio interrupt flags
    NRF_RADIO->INTENCLR = 0xFFFFFFFF;
     56a:	22c2      	movs	r2, #194	@ 0xc2
     56c:	2001      	movs	r0, #1
     56e:	4b29      	ldr	r3, [pc, #164]	@ (614 <ble_start_rx+0xac>)
     570:	0092      	lsls	r2, r2, #2
     572:	4240      	negs	r0, r0
{
     574:	b510      	push	{r4, lr}
    NRF_RADIO->INTENCLR = 0xFFFFFFFF;
     576:	5098      	str	r0, [r3, r2]

    //Clear Disable radio events
    NRF_RADIO->EVENTS_DISABLED = 0;
     578:	2200      	movs	r2, #0
     57a:	3012      	adds	r0, #18
     57c:	30ff      	adds	r0, #255	@ 0xff
     57e:	501a      	str	r2, [r3, r0]
    NRF_RADIO->EVENTS_END = 0;
     580:	3804      	subs	r0, #4
     582:	501a      	str	r2, [r3, r0]

    NRF_RADIO->SHORTS      = RADIO_SHORTS_COMMON ;
     584:	2280      	movs	r2, #128	@ 0x80
     586:	38fb      	subs	r0, #251	@ 0xfb
     588:	0092      	lsls	r2, r2, #2
     58a:	5098      	str	r0, [r3, r2]
    // NRF_RADIO->INTENSET    = RADIO_INTENSET_DISABLED_Msk | RADIO_INTENSET_READY_Msk| RADIO_INTENSET_END_Msk|RADIO_INTENSET_ADDRESS_Msk;

     //Enable interrupt when radio reached end state, it means that data is received
    NRF_RADIO->INTENSET    = RADIO_INTENSET_END_Msk;
     58c:	3205      	adds	r2, #5
     58e:	32ff      	adds	r2, #255	@ 0xff
     590:	3809      	subs	r0, #9
     592:	5098      	str	r0, [r3, r2]


    //Reception on ADDR0
    NRF_RADIO->RXADDRESSES  = 1;
     594:	22a6      	movs	r2, #166	@ 0xa6
     596:	3807      	subs	r0, #7
     598:	00d2      	lsls	r2, r2, #3
     59a:	5098      	str	r0, [r3, r2]

    if(channel_number > 39) channel_number = 0;
     59c:	2927      	cmp	r1, #39	@ 0x27
     59e:	d82d      	bhi.n	5fc <ble_start_rx+0x94>
    uint8_t freq_reg = 4+channel_number*2;
    switch(channel_number)
     5a0:	000b      	movs	r3, r1
     5a2:	3b25      	subs	r3, #37	@ 0x25
     5a4:	b2db      	uxtb	r3, r3
     5a6:	2b02      	cmp	r3, #2
     5a8:	d82c      	bhi.n	604 <ble_start_rx+0x9c>
     5aa:	4a1b      	ldr	r2, [pc, #108]	@ (618 <ble_start_rx+0xb0>)
     5ac:	5cd4      	ldrb	r4, [r2, r3]
    {
        case 37: freq_reg = 2; break; //2402MHz
        case 38: freq_reg = 26; break; //2426MHz
        case 39: freq_reg = 80; break; //2480MHz
    }
    printf("\n\rScanning channel: %d(%dMHz)", channel_number, 2400+freq_reg);
     5ae:	2396      	movs	r3, #150	@ 0x96
     5b0:	011b      	lsls	r3, r3, #4
     5b2:	18e2      	adds	r2, r4, r3
     5b4:	4819      	ldr	r0, [pc, #100]	@ (61c <ble_start_rx+0xb4>)
     5b6:	f000 fe77 	bl	12a8 <printf>
    NRF_RADIO->FREQUENCY    = freq_reg;
     5ba:	22a1      	movs	r2, #161	@ 0xa1
     5bc:	4b15      	ldr	r3, [pc, #84]	@ (614 <ble_start_rx+0xac>)
     5be:	00d2      	lsls	r2, r2, #3
     5c0:	509c      	str	r4, [r3, r2]

    NRF_RADIO->PACKETPTR    = (uint32_t)rx_pdu_buffer;
     5c2:	4917      	ldr	r1, [pc, #92]	@ (620 <ble_start_rx+0xb8>)
     5c4:	4a17      	ldr	r2, [pc, #92]	@ (624 <ble_start_rx+0xbc>)
  NVIC->ICPR[0U] = (uint32_t)(1UL << (((uint32_t)(int32_t)IRQn) & 0x1FUL));
     5c6:	20c0      	movs	r0, #192	@ 0xc0
     5c8:	505a      	str	r2, [r3, r1]
     5ca:	2102      	movs	r1, #2
     5cc:	4a16      	ldr	r2, [pc, #88]	@ (628 <ble_start_rx+0xc0>)
     5ce:	0040      	lsls	r0, r0, #1
     5d0:	5011      	str	r1, [r2, r0]
  NVIC->ISER[0U] = (uint32_t)(1UL << (((uint32_t)(int32_t)IRQn) & 0x1FUL));
     5d2:	6011      	str	r1, [r2, #0]

    NVIC_ClearPendingIRQ(RADIO_IRQn);
    NVIC_EnableIRQ(RADIO_IRQn);

    NRF_RADIO->EVENTS_ADDRESS = 0;
     5d4:	2200      	movs	r2, #0
     5d6:	3103      	adds	r1, #3
     5d8:	31ff      	adds	r1, #255	@ 0xff
     5da:	505a      	str	r2, [r3, r1]
    NRF_RADIO->EVENTS_PAYLOAD = 0;
     5dc:	3104      	adds	r1, #4
     5de:	505a      	str	r2, [r3, r1]
    NRF_RADIO->EVENTS_DISABLED = 0;
     5e0:	3108      	adds	r1, #8
     5e2:	505a      	str	r2, [r3, r1]
    NRF_RADIO->EVENTS_END = 0;
     5e4:	3904      	subs	r1, #4
     5e6:	505a      	str	r2, [r3, r1]

    rx_fifo.write_index=0;
     5e8:	4810      	ldr	r0, [pc, #64]	@ (62c <ble_start_rx+0xc4>)
     5ea:	4911      	ldr	r1, [pc, #68]	@ (630 <ble_start_rx+0xc8>)
     5ec:	500a      	str	r2, [r1, r0]
    rx_fifo.read_index=0;
     5ee:	3004      	adds	r0, #4
     5f0:	500a      	str	r2, [r1, r0]
    rx_fifo.count=0;
     5f2:	4810      	ldr	r0, [pc, #64]	@ (634 <ble_start_rx+0xcc>)
     5f4:	500a      	str	r2, [r1, r0]

    NRF_RADIO->TASKS_RXEN  = 1;
     5f6:	3201      	adds	r2, #1
     5f8:	605a      	str	r2, [r3, #4]
}
     5fa:	bd10      	pop	{r4, pc}
     5fc:	2404      	movs	r4, #4
     5fe:	2100      	movs	r1, #0
     600:	4a0d      	ldr	r2, [pc, #52]	@ (638 <ble_start_rx+0xd0>)
     602:	e7d7      	b.n	5b4 <ble_start_rx+0x4c>
    uint8_t freq_reg = 4+channel_number*2;
     604:	1c8c      	adds	r4, r1, #2
     606:	4084      	lsls	r4, r0
    printf("\n\rScanning channel: %d(%dMHz)", channel_number, 2400+freq_reg);
     608:	2396      	movs	r3, #150	@ 0x96
    uint8_t freq_reg = 4+channel_number*2;
     60a:	b2e4      	uxtb	r4, r4
    printf("\n\rScanning channel: %d(%dMHz)", channel_number, 2400+freq_reg);
     60c:	011b      	lsls	r3, r3, #4
     60e:	18e2      	adds	r2, r4, r3
     610:	e7d0      	b.n	5b4 <ble_start_rx+0x4c>
     612:	46c0      	nop			@ (mov r8, r8)
     614:	40001000 	.word	0x40001000
     618:	000098f4 	.word	0x000098f4
     61c:	000096a8 	.word	0x000096a8
     620:	00000504 	.word	0x00000504
     624:	200010ec 	.word	0x200010ec
     628:	e000e100 	.word	0xe000e100
     62c:	00000a0c 	.word	0x00000a0c
     630:	200006d4 	.word	0x200006d4
     634:	00000a14 	.word	0x00000a14
     638:	00000964 	.word	0x00000964

0000063c <RADIO_IRQHandler>:
    }
}

void RADIO_IRQHandler()
{
    NRF_RADIO->TASKS_RSSISTOP = 1;
     63c:	2201      	movs	r2, #1
    //Ready state/event means that radio is ready to reception and is waiting for start 
    if (NRF_RADIO->EVENTS_READY && (NRF_RADIO->INTENSET & RADIO_INTENSET_READY_Msk))
     63e:	2180      	movs	r1, #128	@ 0x80
{
     640:	b5f8      	push	{r3, r4, r5, r6, r7, lr}
    NRF_RADIO->TASKS_RSSISTOP = 1;
     642:	4b3f      	ldr	r3, [pc, #252]	@ (740 <RADIO_IRQHandler+0x104>)
    if (NRF_RADIO->EVENTS_READY && (NRF_RADIO->INTENSET & RADIO_INTENSET_READY_Msk))
     644:	0049      	lsls	r1, r1, #1
    NRF_RADIO->TASKS_RSSISTOP = 1;
     646:	619a      	str	r2, [r3, #24]
    if (NRF_RADIO->EVENTS_READY && (NRF_RADIO->INTENSET & RADIO_INTENSET_READY_Msk))
     648:	5858      	ldr	r0, [r3, r1]
     64a:	2800      	cmp	r0, #0
     64c:	d004      	beq.n	658 <RADIO_IRQHandler+0x1c>
     64e:	20c1      	movs	r0, #193	@ 0xc1
     650:	0080      	lsls	r0, r0, #2
     652:	5818      	ldr	r0, [r3, r0]
     654:	4202      	tst	r2, r0
     656:	d126      	bne.n	6a6 <RADIO_IRQHandler+0x6a>
    {
        NRF_RADIO->EVENTS_READY = 0;
    }

    //End event explains that packet with crc is received 
    if (NRF_RADIO->EVENTS_END && (NRF_RADIO->INTENSET & RADIO_INTENSET_END_Msk))
     658:	2386      	movs	r3, #134	@ 0x86
     65a:	4c39      	ldr	r4, [pc, #228]	@ (740 <RADIO_IRQHandler+0x104>)
     65c:	005b      	lsls	r3, r3, #1
     65e:	58e2      	ldr	r2, [r4, r3]
     660:	2a00      	cmp	r2, #0
     662:	d004      	beq.n	66e <RADIO_IRQHandler+0x32>
     664:	22c1      	movs	r2, #193	@ 0xc1
     666:	0092      	lsls	r2, r2, #2
     668:	58a2      	ldr	r2, [r4, r2]
     66a:	0712      	lsls	r2, r2, #28
     66c:	d41e      	bmi.n	6ac <RADIO_IRQHandler+0x70>
        led_toogle(LED1);
        radio_copy_received();
        NRF_RADIO->TASKS_START  = 1;
    }

    if (NRF_RADIO->EVENTS_ADDRESS && (NRF_RADIO->INTENSET & RADIO_INTENSET_ADDRESS_Msk))
     66e:	2282      	movs	r2, #130	@ 0x82
     670:	4b33      	ldr	r3, [pc, #204]	@ (740 <RADIO_IRQHandler+0x104>)
     672:	0052      	lsls	r2, r2, #1
     674:	5899      	ldr	r1, [r3, r2]
     676:	2900      	cmp	r1, #0
     678:	d004      	beq.n	684 <RADIO_IRQHandler+0x48>
     67a:	21c1      	movs	r1, #193	@ 0xc1
     67c:	0089      	lsls	r1, r1, #2
     67e:	5859      	ldr	r1, [r3, r1]
     680:	0789      	lsls	r1, r1, #30
     682:	d40d      	bmi.n	6a0 <RADIO_IRQHandler+0x64>
    {
        NRF_RADIO->EVENTS_ADDRESS = 0;
    }

    if (NRF_RADIO->EVENTS_DISABLED && (NRF_RADIO->INTENSET & RADIO_INTENSET_DISABLED_Msk))
     684:	2288      	movs	r2, #136	@ 0x88
     686:	4b2e      	ldr	r3, [pc, #184]	@ (740 <RADIO_IRQHandler+0x104>)
     688:	0052      	lsls	r2, r2, #1
     68a:	5899      	ldr	r1, [r3, r2]
     68c:	2900      	cmp	r1, #0
     68e:	d006      	beq.n	69e <RADIO_IRQHandler+0x62>
     690:	21c1      	movs	r1, #193	@ 0xc1
     692:	0089      	lsls	r1, r1, #2
     694:	5859      	ldr	r1, [r3, r1]
     696:	06c9      	lsls	r1, r1, #27
     698:	d501      	bpl.n	69e <RADIO_IRQHandler+0x62>
    {
        NRF_RADIO->EVENTS_DISABLED = 0;
     69a:	2100      	movs	r1, #0
     69c:	5099      	str	r1, [r3, r2]
    }
     69e:	bdf8      	pop	{r3, r4, r5, r6, r7, pc}
        NRF_RADIO->EVENTS_ADDRESS = 0;
     6a0:	2100      	movs	r1, #0
     6a2:	5099      	str	r1, [r3, r2]
     6a4:	e7ee      	b.n	684 <RADIO_IRQHandler+0x48>
        NRF_RADIO->EVENTS_READY = 0;
     6a6:	2200      	movs	r2, #0
     6a8:	505a      	str	r2, [r3, r1]
     6aa:	e7d5      	b.n	658 <RADIO_IRQHandler+0x1c>
        NRF_RADIO->EVENTS_END = 0;
     6ac:	2200      	movs	r2, #0
     6ae:	50e2      	str	r2, [r4, r3]
        led_toogle(LED1);
     6b0:	4b24      	ldr	r3, [pc, #144]	@ (744 <RADIO_IRQHandler+0x108>)
     6b2:	6818      	ldr	r0, [r3, #0]
     6b4:	f000 f96a 	bl	98c <led_toogle>
    led_toogle(LED3);
     6b8:	4b23      	ldr	r3, [pc, #140]	@ (748 <RADIO_IRQHandler+0x10c>)
     6ba:	6818      	ldr	r0, [r3, #0]
     6bc:	f000 f966 	bl	98c <led_toogle>
    if (NRF_RADIO->CRCSTATUS == 0)
     6c0:	2380      	movs	r3, #128	@ 0x80
     6c2:	00db      	lsls	r3, r3, #3
     6c4:	58e3      	ldr	r3, [r4, r3]
     6c6:	2b00      	cmp	r3, #0
     6c8:	d035      	beq.n	736 <RADIO_IRQHandler+0xfa>
    led_toogle(LED4);
     6ca:	4b20      	ldr	r3, [pc, #128]	@ (74c <RADIO_IRQHandler+0x110>)
     6cc:	6818      	ldr	r0, [r3, #0]
     6ce:	f000 f95d 	bl	98c <led_toogle>
    if (rx_fifo.count < 10) //Ignore write if buffer is full
     6d2:	481f      	ldr	r0, [pc, #124]	@ (750 <RADIO_IRQHandler+0x114>)
     6d4:	4b1f      	ldr	r3, [pc, #124]	@ (754 <RADIO_IRQHandler+0x118>)
     6d6:	58c3      	ldr	r3, [r0, r3]
     6d8:	2b09      	cmp	r3, #9
     6da:	d82c      	bhi.n	736 <RADIO_IRQHandler+0xfa>
        rx_fifo.packet[rx_fifo.write_index].rssi = NRF_RADIO->RSSISAMPLE;
     6dc:	23a9      	movs	r3, #169	@ 0xa9
     6de:	4e1e      	ldr	r6, [pc, #120]	@ (758 <RADIO_IRQHandler+0x11c>)
        uint8_t length = header[1];
     6e0:	4f1e      	ldr	r7, [pc, #120]	@ (75c <RADIO_IRQHandler+0x120>)
        rx_fifo.packet[rx_fifo.write_index].rssi = NRF_RADIO->RSSISAMPLE;
     6e2:	00db      	lsls	r3, r3, #3
        uint8_t length = header[1];
     6e4:	787d      	ldrb	r5, [r7, #1]
        rx_fifo.packet[rx_fifo.write_index].rssi = NRF_RADIO->RSSISAMPLE;
     6e6:	58e2      	ldr	r2, [r4, r3]
     6e8:	5981      	ldr	r1, [r0, r6]
     6ea:	b252      	sxtb	r2, r2
     6ec:	020b      	lsls	r3, r1, #8
     6ee:	185b      	adds	r3, r3, r1
     6f0:	18c3      	adds	r3, r0, r3
     6f2:	705a      	strb	r2, [r3, #1]
        rx_fifo.packet[rx_fifo.write_index].length = copy_lenght;
     6f4:	5982      	ldr	r2, [r0, r6]
        uint8_t copy_lenght = length+2; //+2 because we copy it with header
     6f6:	3502      	adds	r5, #2
        rx_fifo.packet[rx_fifo.write_index].length = copy_lenght;
     6f8:	0213      	lsls	r3, r2, #8
        uint8_t copy_lenght = length+2; //+2 because we copy it with header
     6fa:	b2ed      	uxtb	r5, r5
        rx_fifo.packet[rx_fifo.write_index].length = copy_lenght;
     6fc:	189b      	adds	r3, r3, r2
     6fe:	54c5      	strb	r5, [r0, r3]
        for(int index=0; index < copy_lenght; index++)
     700:	2d00      	cmp	r5, #0
     702:	d00b      	beq.n	71c <RADIO_IRQHandler+0xe0>
     704:	2200      	movs	r2, #0
            rx_fifo.packet[rx_fifo.write_index].data[index] = rx_pdu_buffer[index];
     706:	5984      	ldr	r4, [r0, r6]
     708:	5cb9      	ldrb	r1, [r7, r2]
     70a:	0223      	lsls	r3, r4, #8
     70c:	191b      	adds	r3, r3, r4
     70e:	18c3      	adds	r3, r0, r3
     710:	189b      	adds	r3, r3, r2
     712:	b2c9      	uxtb	r1, r1
        for(int index=0; index < copy_lenght; index++)
     714:	3201      	adds	r2, #1
            rx_fifo.packet[rx_fifo.write_index].data[index] = rx_pdu_buffer[index];
     716:	7099      	strb	r1, [r3, #2]
        for(int index=0; index < copy_lenght; index++)
     718:	42aa      	cmp	r2, r5
     71a:	dbf4      	blt.n	706 <RADIO_IRQHandler+0xca>
        rx_fifo.write_index++;
     71c:	4b0e      	ldr	r3, [pc, #56]	@ (758 <RADIO_IRQHandler+0x11c>)
     71e:	58c2      	ldr	r2, [r0, r3]
     720:	3201      	adds	r2, #1
     722:	50c2      	str	r2, [r0, r3]
        if(rx_fifo.write_index >= 10)
     724:	58c2      	ldr	r2, [r0, r3]
     726:	2a09      	cmp	r2, #9
     728:	d901      	bls.n	72e <RADIO_IRQHandler+0xf2>
           rx_fifo.write_index = 0; 
     72a:	2200      	movs	r2, #0
     72c:	50c2      	str	r2, [r0, r3]
        rx_fifo.count++;
     72e:	4a09      	ldr	r2, [pc, #36]	@ (754 <RADIO_IRQHandler+0x118>)
     730:	5883      	ldr	r3, [r0, r2]
     732:	3301      	adds	r3, #1
     734:	5083      	str	r3, [r0, r2]
        NRF_RADIO->TASKS_START  = 1;
     736:	2201      	movs	r2, #1
     738:	4b01      	ldr	r3, [pc, #4]	@ (740 <RADIO_IRQHandler+0x104>)
     73a:	609a      	str	r2, [r3, #8]
     73c:	e797      	b.n	66e <RADIO_IRQHandler+0x32>
     73e:	46c0      	nop			@ (mov r8, r8)
     740:	40001000 	.word	0x40001000
     744:	00009900 	.word	0x00009900
     748:	000098fc 	.word	0x000098fc
     74c:	000098f8 	.word	0x000098f8
     750:	200006d4 	.word	0x200006d4
     754:	00000a14 	.word	0x00000a14
     758:	00000a0c 	.word	0x00000a0c
     75c:	200010ec 	.word	0x200010ec

00000760 <set_device_name_prefix_filter>:
{
     760:	b510      	push	{r4, lr}
     762:	0004      	movs	r4, r0
    size_t len = strlen(prefix);
     764:	f000 ff92 	bl	168c <strlen>
     768:	0002      	movs	r2, r0
    if(len > 255) { name_prefix[0] = 0; return;}
     76a:	28ff      	cmp	r0, #255	@ 0xff
     76c:	d903      	bls.n	776 <set_device_name_prefix_filter+0x16>
     76e:	2200      	movs	r2, #0
     770:	4b04      	ldr	r3, [pc, #16]	@ (784 <set_device_name_prefix_filter+0x24>)
     772:	701a      	strb	r2, [r3, #0]
}
     774:	bd10      	pop	{r4, pc}
    strcpy(name_prefix, prefix);
     776:	0021      	movs	r1, r4
     778:	3201      	adds	r2, #1
     77a:	4802      	ldr	r0, [pc, #8]	@ (784 <set_device_name_prefix_filter+0x24>)
     77c:	f000 ff30 	bl	15e0 <memcpy>
     780:	e7f8      	b.n	774 <set_device_name_prefix_filter+0x14>
     782:	46c0      	nop			@ (mov r8, r8)
     784:	200011ec 	.word	0x200011ec

00000788 <get_device_name>:
{
     788:	b5f8      	push	{r3, r4, r5, r6, r7, lr}
    if(stored_devices == 0) return -1;
     78a:	4b0d      	ldr	r3, [pc, #52]	@ (7c0 <get_device_name+0x38>)
{
     78c:	0006      	movs	r6, r0
    if(stored_devices == 0) return -1;
     78e:	781f      	ldrb	r7, [r3, #0]
     790:	2f00      	cmp	r7, #0
     792:	d00c      	beq.n	7ae <get_device_name+0x26>
    for(int index = 0 ; index < stored_devices; index++)
     794:	2400      	movs	r4, #0
     796:	4d0b      	ldr	r5, [pc, #44]	@ (7c4 <get_device_name+0x3c>)
        if(memcmp(device_mac[index], mac, 6) == 0)
     798:	2206      	movs	r2, #6
     79a:	0031      	movs	r1, r6
     79c:	0028      	movs	r0, r5
     79e:	f000 fe75 	bl	148c <memcmp>
     7a2:	2800      	cmp	r0, #0
     7a4:	d005      	beq.n	7b2 <get_device_name+0x2a>
    for(int index = 0 ; index < stored_devices; index++)
     7a6:	3401      	adds	r4, #1
     7a8:	3506      	adds	r5, #6
     7aa:	42bc      	cmp	r4, r7
     7ac:	dbf4      	blt.n	798 <get_device_name+0x10>
    if(index<0) return 0;
     7ae:	2000      	movs	r0, #0
}
     7b0:	bdf8      	pop	{r3, r4, r5, r6, r7, pc}
    if(index<0) return 0;
     7b2:	0623      	lsls	r3, r4, #24
     7b4:	d4fb      	bmi.n	7ae <get_device_name+0x26>
    return device_name[index];
     7b6:	2064      	movs	r0, #100	@ 0x64
     7b8:	4360      	muls	r0, r4
     7ba:	4b03      	ldr	r3, [pc, #12]	@ (7c8 <get_device_name+0x40>)
     7bc:	18c0      	adds	r0, r0, r3
     7be:	e7f7      	b.n	7b0 <get_device_name+0x28>
     7c0:	20002fe8 	.word	0x20002fe8
     7c4:	20002f70 	.word	0x20002f70
     7c8:	200027a0 	.word	0x200027a0

000007cc <add_device_with_matched_name>:
{
     7cc:	b5f8      	push	{r3, r4, r5, r6, r7, lr}
     7ce:	46de      	mov	lr, fp
     7d0:	464e      	mov	r6, r9
     7d2:	4645      	mov	r5, r8
     7d4:	4657      	mov	r7, sl
    if(strncmp(name_prefix, (char*)name_ptr, strlen(name_prefix)) != 0)
     7d6:	4c2d      	ldr	r4, [pc, #180]	@ (88c <_minimum_stack_size+0x8c>)
{
     7d8:	b5e0      	push	{r5, r6, r7, lr}
     7da:	0006      	movs	r6, r0
    if(strncmp(name_prefix, (char*)name_ptr, strlen(name_prefix)) != 0)
     7dc:	0020      	movs	r0, r4
{
     7de:	4688      	mov	r8, r1
     7e0:	4691      	mov	r9, r2
    if(strncmp(name_prefix, (char*)name_ptr, strlen(name_prefix)) != 0)
     7e2:	f000 ff53 	bl	168c <strlen>
     7e6:	4641      	mov	r1, r8
     7e8:	0002      	movs	r2, r0
     7ea:	0020      	movs	r0, r4
     7ec:	f000 febc 	bl	1568 <strncmp>
     7f0:	1e04      	subs	r4, r0, #0
     7f2:	d13a      	bne.n	86a <_minimum_stack_size+0x6a>
    if(stored_devices == 0) return -1;
     7f4:	4b26      	ldr	r3, [pc, #152]	@ (890 <_minimum_stack_size+0x90>)
     7f6:	469b      	mov	fp, r3
     7f8:	781f      	ldrb	r7, [r3, #0]
     7fa:	4b26      	ldr	r3, [pc, #152]	@ (894 <_minimum_stack_size+0x94>)
     7fc:	469a      	mov	sl, r3
     7fe:	001d      	movs	r5, r3
     800:	2f00      	cmp	r7, #0
     802:	d00c      	beq.n	81e <_minimum_stack_size+0x1e>
        if(memcmp(device_mac[index], mac, 6) == 0)
     804:	2206      	movs	r2, #6
     806:	0031      	movs	r1, r6
     808:	0028      	movs	r0, r5
     80a:	f000 fe3f 	bl	148c <memcmp>
     80e:	2800      	cmp	r0, #0
     810:	d031      	beq.n	876 <_minimum_stack_size+0x76>
    for(int index = 0 ; index < stored_devices; index++)
     812:	3401      	adds	r4, #1
     814:	3506      	adds	r5, #6
     816:	42bc      	cmp	r4, r7
     818:	dbf4      	blt.n	804 <_minimum_stack_size+0x4>
        if(stored_devices >= DEVICE_BUFFER_LEN) 
     81a:	2f13      	cmp	r7, #19
     81c:	d830      	bhi.n	880 <_minimum_stack_size+0x80>
        memcpy(device_mac[device_index], mac, 6);
     81e:	007b      	lsls	r3, r7, #1
     820:	19db      	adds	r3, r3, r7
     822:	005b      	lsls	r3, r3, #1
     824:	4453      	add	r3, sl
     826:	0018      	movs	r0, r3
     828:	2206      	movs	r2, #6
     82a:	0031      	movs	r1, r6
     82c:	f000 fed8 	bl	15e0 <memcpy>
        memcpy(device_name[stored_devices], "NA", 3);
     830:	2264      	movs	r2, #100	@ 0x64
     832:	437a      	muls	r2, r7
     834:	4918      	ldr	r1, [pc, #96]	@ (898 <_minimum_stack_size+0x98>)
     836:	4b19      	ldr	r3, [pc, #100]	@ (89c <_minimum_stack_size+0x9c>)
     838:	8808      	ldrh	r0, [r1, #0]
     83a:	189a      	adds	r2, r3, r2
     83c:	8010      	strh	r0, [r2, #0]
     83e:	7889      	ldrb	r1, [r1, #2]
        device_index = stored_devices;
     840:	b27d      	sxtb	r5, r7
        memcpy(device_name[stored_devices], "NA", 3);
     842:	7091      	strb	r1, [r2, #2]
        stored_devices++;
     844:	465a      	mov	r2, fp
     846:	3701      	adds	r7, #1
     848:	7017      	strb	r7, [r2, #0]
    if((str_len+1)>NAME_BUFFFER_LEN)
     84a:	464a      	mov	r2, r9
     84c:	464c      	mov	r4, r9
     84e:	2a64      	cmp	r2, #100	@ 0x64
     850:	d900      	bls.n	854 <_minimum_stack_size+0x54>
     852:	2464      	movs	r4, #100	@ 0x64
    memcpy(device_name[device_index], name_ptr, str_len);
     854:	2264      	movs	r2, #100	@ 0x64
     856:	4355      	muls	r5, r2
    if((str_len+1)>NAME_BUFFFER_LEN)
     858:	b2e4      	uxtb	r4, r4
    memcpy(device_name[device_index], name_ptr, str_len);
     85a:	195d      	adds	r5, r3, r5
     85c:	0022      	movs	r2, r4
     85e:	4641      	mov	r1, r8
     860:	0028      	movs	r0, r5
     862:	f000 febd 	bl	15e0 <memcpy>
    device_name[device_index][str_len] = 0; //Add string end
     866:	2300      	movs	r3, #0
     868:	552b      	strb	r3, [r5, r4]
}
     86a:	bcf0      	pop	{r4, r5, r6, r7}
     86c:	46bb      	mov	fp, r7
     86e:	46b2      	mov	sl, r6
     870:	46a9      	mov	r9, r5
     872:	46a0      	mov	r8, r4
     874:	bdf8      	pop	{r3, r4, r5, r6, r7, pc}
            return index;
     876:	b265      	sxtb	r5, r4
    if(device_index < 0)
     878:	0624      	lsls	r4, r4, #24
     87a:	d4ce      	bmi.n	81a <_minimum_stack_size+0x1a>
     87c:	4b07      	ldr	r3, [pc, #28]	@ (89c <_minimum_stack_size+0x9c>)
     87e:	e7e4      	b.n	84a <_minimum_stack_size+0x4a>
            printf("\n\rbuffer full%d), new device not added", DEVICE_BUFFER_LEN);
     880:	2114      	movs	r1, #20
     882:	4807      	ldr	r0, [pc, #28]	@ (8a0 <_minimum_stack_size+0xa0>)
     884:	f000 fd10 	bl	12a8 <printf>
            return;
     888:	e7ef      	b.n	86a <_minimum_stack_size+0x6a>
     88a:	46c0      	nop			@ (mov r8, r8)
     88c:	200011ec 	.word	0x200011ec
     890:	20002fe8 	.word	0x20002fe8
     894:	20002f70 	.word	0x20002f70
     898:	000096f0 	.word	0x000096f0
     89c:	200027a0 	.word	0x200027a0
     8a0:	000096c8 	.word	0x000096c8

000008a4 <update_existing_device>:
{
     8a4:	b5f8      	push	{r3, r4, r5, r6, r7, lr}
     8a6:	46de      	mov	lr, fp
     8a8:	4657      	mov	r7, sl
     8aa:	464e      	mov	r6, r9
     8ac:	4645      	mov	r5, r8
     8ae:	b5e0      	push	{r5, r6, r7, lr}
     8b0:	4698      	mov	r8, r3
     8b2:	0006      	movs	r6, r0
     8b4:	468b      	mov	fp, r1
     8b6:	4691      	mov	r9, r2
    uint32_t reception_time = timer_get_time();
     8b8:	f000 f9ca 	bl	c50 <timer_get_time>
    if(stored_devices == 0) return -1;
     8bc:	4b17      	ldr	r3, [pc, #92]	@ (91c <update_existing_device+0x78>)
    uint32_t reception_time = timer_get_time();
     8be:	4682      	mov	sl, r0
    if(stored_devices == 0) return -1;
     8c0:	781f      	ldrb	r7, [r3, #0]
     8c2:	2f00      	cmp	r7, #0
     8c4:	d00c      	beq.n	8e0 <update_existing_device+0x3c>
    for(int index = 0 ; index < stored_devices; index++)
     8c6:	2400      	movs	r4, #0
     8c8:	4d15      	ldr	r5, [pc, #84]	@ (920 <update_existing_device+0x7c>)
        if(memcmp(device_mac[index], mac, 6) == 0)
     8ca:	2206      	movs	r2, #6
     8cc:	0031      	movs	r1, r6
     8ce:	0028      	movs	r0, r5
     8d0:	f000 fddc 	bl	148c <memcmp>
     8d4:	2800      	cmp	r0, #0
     8d6:	d009      	beq.n	8ec <update_existing_device+0x48>
    for(int index = 0 ; index < stored_devices; index++)
     8d8:	3401      	adds	r4, #1
     8da:	3506      	adds	r5, #6
     8dc:	42bc      	cmp	r4, r7
     8de:	dbf4      	blt.n	8ca <update_existing_device+0x26>
}
     8e0:	bcf0      	pop	{r4, r5, r6, r7}
     8e2:	46bb      	mov	fp, r7
     8e4:	46b2      	mov	sl, r6
     8e6:	46a9      	mov	r9, r5
     8e8:	46a0      	mov	r8, r4
     8ea:	bdf8      	pop	{r3, r4, r5, r6, r7, pc}
    if(device_index < 0 ) return;
     8ec:	0623      	lsls	r3, r4, #24
     8ee:	d4f7      	bmi.n	8e0 <update_existing_device+0x3c>
    device_rssi[device_index] = rssi;
     8f0:	465a      	mov	r2, fp
     8f2:	4b0c      	ldr	r3, [pc, #48]	@ (924 <update_existing_device+0x80>)
    device_previous_reception_time[device_index] = device_last_reception_time[device_index];
     8f4:	490c      	ldr	r1, [pc, #48]	@ (928 <update_existing_device+0x84>)
    device_rssi[device_index] = rssi;
     8f6:	551a      	strb	r2, [r3, r4]
    device_previous_reception_time[device_index] = device_last_reception_time[device_index];
     8f8:	00a3      	lsls	r3, r4, #2
     8fa:	5858      	ldr	r0, [r3, r1]
     8fc:	4a0b      	ldr	r2, [pc, #44]	@ (92c <update_existing_device+0x88>)
     8fe:	5098      	str	r0, [r3, r2]
    device_last_reception_time[device_index] = reception_time;
     900:	4652      	mov	r2, sl
    memcpy(device_last_advdata[device_index], adv_data, adv_len);
     902:	0220      	lsls	r0, r4, #8
    device_last_reception_time[device_index] = reception_time;
     904:	505a      	str	r2, [r3, r1]
    memcpy(device_last_advdata[device_index], adv_data, adv_len);
     906:	4b0a      	ldr	r3, [pc, #40]	@ (930 <update_existing_device+0x8c>)
     908:	1b00      	subs	r0, r0, r4
     90a:	4642      	mov	r2, r8
     90c:	18c0      	adds	r0, r0, r3
     90e:	4649      	mov	r1, r9
     910:	f000 fe66 	bl	15e0 <memcpy>
    device_last_advlen[device_index] = adv_len;
     914:	4642      	mov	r2, r8
     916:	4b07      	ldr	r3, [pc, #28]	@ (934 <update_existing_device+0x90>)
     918:	551a      	strb	r2, [r3, r4]
     91a:	e7e1      	b.n	8e0 <update_existing_device+0x3c>
     91c:	20002fe8 	.word	0x20002fe8
     920:	20002f70 	.word	0x20002f70
     924:	2000278c 	.word	0x2000278c
     928:	2000273c 	.word	0x2000273c
     92c:	200026ec 	.word	0x200026ec
     930:	20001300 	.word	0x20001300
     934:	200012ec 	.word	0x200012ec

00000938 <execute_callback_advdata_for_each_device>:

void execute_callback_advdata_for_each_device(advdata_callback cb)
{
     938:	b5f8      	push	{r3, r4, r5, r6, r7, lr}
     93a:	4647      	mov	r7, r8
     93c:	46ce      	mov	lr, r9
     93e:	b580      	push	{r7, lr}
    if(stored_devices == 0) return;
     940:	4f0e      	ldr	r7, [pc, #56]	@ (97c <execute_callback_advdata_for_each_device+0x44>)
{
     942:	0006      	movs	r6, r0
    if(stored_devices == 0) return;
     944:	783b      	ldrb	r3, [r7, #0]
     946:	2b00      	cmp	r3, #0
     948:	d013      	beq.n	972 <execute_callback_advdata_for_each_device+0x3a>
     94a:	4b0d      	ldr	r3, [pc, #52]	@ (980 <execute_callback_advdata_for_each_device+0x48>)
    for (int index = 0; index < stored_devices; index++)
     94c:	2400      	movs	r4, #0
     94e:	4699      	mov	r9, r3
     950:	4b0c      	ldr	r3, [pc, #48]	@ (984 <execute_callback_advdata_for_each_device+0x4c>)
     952:	4d0d      	ldr	r5, [pc, #52]	@ (988 <execute_callback_advdata_for_each_device+0x50>)
     954:	4698      	mov	r8, r3
    {
      analyse_adv_pdu(device_last_advdata[index], device_last_advlen[index], device_mac[index], cb);
     956:	464b      	mov	r3, r9
     958:	0220      	lsls	r0, r4, #8
     95a:	1b00      	subs	r0, r0, r4
     95c:	5d19      	ldrb	r1, [r3, r4]
     95e:	002a      	movs	r2, r5
     960:	0033      	movs	r3, r6
     962:	4440      	add	r0, r8
     964:	f7ff fcf8 	bl	358 <analyse_adv_pdu>
    for (int index = 0; index < stored_devices; index++)
     968:	783b      	ldrb	r3, [r7, #0]
     96a:	3401      	adds	r4, #1
     96c:	3506      	adds	r5, #6
     96e:	42a3      	cmp	r3, r4
     970:	dcf1      	bgt.n	956 <execute_callback_advdata_for_each_device+0x1e>
    }
     972:	bcc0      	pop	{r6, r7}
     974:	46b9      	mov	r9, r7
     976:	46b0      	mov	r8, r6
     978:	bdf8      	pop	{r3, r4, r5, r6, r7, pc}
     97a:	46c0      	nop			@ (mov r8, r8)
     97c:	20002fe8 	.word	0x20002fe8
     980:	200012ec 	.word	0x200012ec
     984:	20001300 	.word	0x20001300
     988:	20002f70 	.word	0x20002f70

0000098c <led_toogle>:

void led_toogle(uint32_t pin_number)
{
    uint32_t pins_state = NRF_GPIO->OUT;

    NRF_GPIO->OUTSET = (~pins_state & (1UL << pin_number));
     98c:	2201      	movs	r2, #1
     98e:	4082      	lsls	r2, r0
    uint32_t pins_state = NRF_GPIO->OUT;
     990:	21a0      	movs	r1, #160	@ 0xa0
{
     992:	b510      	push	{r4, lr}
    NRF_GPIO->OUTSET = (~pins_state & (1UL << pin_number));
     994:	0014      	movs	r4, r2
     996:	20a1      	movs	r0, #161	@ 0xa1
    uint32_t pins_state = NRF_GPIO->OUT;
     998:	4b04      	ldr	r3, [pc, #16]	@ (9ac <led_toogle+0x20>)
     99a:	05c9      	lsls	r1, r1, #23
     99c:	58cb      	ldr	r3, [r1, r3]
    NRF_GPIO->OUTSET = (~pins_state & (1UL << pin_number));
     99e:	00c0      	lsls	r0, r0, #3
     9a0:	439c      	bics	r4, r3
    NRF_GPIO->OUTCLR = (pins_state & (1UL << pin_number));
     9a2:	4013      	ands	r3, r2
     9a4:	4a02      	ldr	r2, [pc, #8]	@ (9b0 <led_toogle+0x24>)
    NRF_GPIO->OUTSET = (~pins_state & (1UL << pin_number));
     9a6:	500c      	str	r4, [r1, r0]
    NRF_GPIO->OUTCLR = (pins_state & (1UL << pin_number));
     9a8:	508b      	str	r3, [r1, r2]
}
     9aa:	bd10      	pop	{r4, pc}
     9ac:	00000504 	.word	0x00000504
     9b0:	0000050c 	.word	0x0000050c

000009b4 <led_init>:

static void pin_init(uint32_t pin)
{
    NRF_GPIO->PIN_CNF[pin] = ((uint32_t)GPIO_PIN_CNF_DIR_Output << GPIO_PIN_CNF_DIR_Pos)
     9b4:	23a0      	movs	r3, #160	@ 0xa0
     9b6:	2203      	movs	r2, #3
     9b8:	490b      	ldr	r1, [pc, #44]	@ (9e8 <led_init+0x34>)
     9ba:	05db      	lsls	r3, r3, #23
     9bc:	505a      	str	r2, [r3, r1]
     9be:	3104      	adds	r1, #4
     9c0:	505a      	str	r2, [r3, r1]
     9c2:	490a      	ldr	r1, [pc, #40]	@ (9ec <led_init+0x38>)
     9c4:	505a      	str	r2, [r3, r1]
     9c6:	3104      	adds	r1, #4
     9c8:	505a      	str	r2, [r3, r1]
{
    pin_init(LED1);
    pin_init(LED2);
    pin_init(LED3);
    pin_init(LED4);
    NRF_GPIO->OUTSET = 1UL << LED1;
     9ca:	22a1      	movs	r2, #161	@ 0xa1
     9cc:	2180      	movs	r1, #128	@ 0x80
     9ce:	00d2      	lsls	r2, r2, #3
     9d0:	0389      	lsls	r1, r1, #14
     9d2:	5099      	str	r1, [r3, r2]
    NRF_GPIO->OUTSET = 1UL << LED2;
     9d4:	2180      	movs	r1, #128	@ 0x80
     9d6:	03c9      	lsls	r1, r1, #15
     9d8:	5099      	str	r1, [r3, r2]
    NRF_GPIO->OUTSET = 1UL << LED3;
     9da:	2180      	movs	r1, #128	@ 0x80
     9dc:	0409      	lsls	r1, r1, #16
     9de:	5099      	str	r1, [r3, r2]
    NRF_GPIO->OUTSET = 1UL << LED4;
     9e0:	2180      	movs	r1, #128	@ 0x80
     9e2:	0449      	lsls	r1, r1, #17
     9e4:	5099      	str	r1, [r3, r2]
     9e6:	4770      	bx	lr
     9e8:	00000754 	.word	0x00000754
     9ec:	0000075c 	.word	0x0000075c

000009f0 <analyse_sensor_data>:
		NVIC_EnableIRQ(RADIO_IRQn);
	}
}

static void analyse_sensor_data(uint8_t type, uint8_t *data, uint8_t len, uint8_t *mac)
{
     9f0:	b5f0      	push	{r4, r5, r6, r7, lr}
     9f2:	001c      	movs	r4, r3
	printf("\n\rMAC: %02x:%02x:%02x:%02x:%02x:%02x ", mac[5], mac[4], mac[3], mac[2], mac[1], mac[0]);
     9f4:	7827      	ldrb	r7, [r4, #0]
{
     9f6:	b085      	sub	sp, #20
	printf("\n\rMAC: %02x:%02x:%02x:%02x:%02x:%02x ", mac[5], mac[4], mac[3], mac[2], mac[1], mac[0]);
     9f8:	78db      	ldrb	r3, [r3, #3]
     9fa:	7922      	ldrb	r2, [r4, #4]
{
     9fc:	000d      	movs	r5, r1
	printf("\n\rMAC: %02x:%02x:%02x:%02x:%02x:%02x ", mac[5], mac[4], mac[3], mac[2], mac[1], mac[0]);
     9fe:	7961      	ldrb	r1, [r4, #5]
     a00:	9702      	str	r7, [sp, #8]
     a02:	7867      	ldrb	r7, [r4, #1]
{
     a04:	0006      	movs	r6, r0
	printf("\n\rMAC: %02x:%02x:%02x:%02x:%02x:%02x ", mac[5], mac[4], mac[3], mac[2], mac[1], mac[0]);
     a06:	9701      	str	r7, [sp, #4]
     a08:	78a7      	ldrb	r7, [r4, #2]
     a0a:	4816      	ldr	r0, [pc, #88]	@ (a64 <analyse_sensor_data+0x74>)
     a0c:	9700      	str	r7, [sp, #0]
     a0e:	f000 fc4b 	bl	12a8 <printf>
	printf(" Dev name: %s", get_device_name(mac));
     a12:	0020      	movs	r0, r4
     a14:	f7ff feb8 	bl	788 <get_device_name>
     a18:	4b13      	ldr	r3, [pc, #76]	@ (a68 <analyse_sensor_data+0x78>)
     a1a:	0001      	movs	r1, r0
     a1c:	0018      	movs	r0, r3
     a1e:	f000 fc43 	bl	12a8 <printf>
	// printf("Adv type: %d ", type);
	// print_payload(data, len);

	if(type == 22)
     a22:	2e16      	cmp	r6, #22
     a24:	d001      	beq.n	a2a <analyse_sensor_data+0x3a>
		((uint8_t*)&battery_voltage_mv)[1]= data[12];

		printf(" Battery voltage:%dmV", battery_voltage_mv);
	}

}
     a26:	b005      	add	sp, #20
     a28:	bdf0      	pop	{r4, r5, r6, r7, pc}
		((uint8_t*)&temp)[1]= data[8];
     a2a:	7a2b      	ldrb	r3, [r5, #8]
     a2c:	7a68      	ldrb	r0, [r5, #9]
     a2e:	021b      	lsls	r3, r3, #8
     a30:	4318      	orrs	r0, r3
     a32:	b200      	sxth	r0, r0
		printf(" Tempeature:%f°C", temp/10.0);
     a34:	f000 fc10 	bl	1258 <__aeabi_i2d>
     a38:	2200      	movs	r2, #0
     a3a:	4b0c      	ldr	r3, [pc, #48]	@ (a6c <analyse_sensor_data+0x7c>)
     a3c:	f000 f986 	bl	d4c <__aeabi_ddiv>
     a40:	0002      	movs	r2, r0
     a42:	000b      	movs	r3, r1
     a44:	480a      	ldr	r0, [pc, #40]	@ (a70 <analyse_sensor_data+0x80>)
     a46:	f000 fc2f 	bl	12a8 <printf>
		printf(" Humidity:%d%%", humidity);
     a4a:	7aa9      	ldrb	r1, [r5, #10]
     a4c:	4809      	ldr	r0, [pc, #36]	@ (a74 <analyse_sensor_data+0x84>)
     a4e:	f000 fc2b 	bl	12a8 <printf>
		((uint8_t*)&battery_voltage_mv)[1]= data[12];
     a52:	7b2b      	ldrb	r3, [r5, #12]
     a54:	7ae9      	ldrb	r1, [r5, #11]
     a56:	021b      	lsls	r3, r3, #8
     a58:	4319      	orrs	r1, r3
		printf(" Battery voltage:%dmV", battery_voltage_mv);
     a5a:	4807      	ldr	r0, [pc, #28]	@ (a78 <analyse_sensor_data+0x88>)
     a5c:	f000 fc24 	bl	12a8 <printf>
}
     a60:	e7e1      	b.n	a26 <analyse_sensor_data+0x36>
     a62:	46c0      	nop			@ (mov r8, r8)
     a64:	000096f4 	.word	0x000096f4
     a68:	0000971c 	.word	0x0000971c
     a6c:	40240000 	.word	0x40240000
     a70:	0000972c 	.word	0x0000972c
     a74:	00009740 	.word	0x00009740
     a78:	00009750 	.word	0x00009750

00000a7c <main>:

int main()
{
     a7c:	b5f8      	push	{r3, r4, r5, r6, r7, lr}
     a7e:	46de      	mov	lr, fp
     a80:	4657      	mov	r7, sl
     a82:	464e      	mov	r6, r9
     a84:	4645      	mov	r5, r8
	setbuf(stdout, NULL);
     a86:	4b34      	ldr	r3, [pc, #208]	@ (b58 <main+0xdc>)
     a88:	2100      	movs	r1, #0
     a8a:	681b      	ldr	r3, [r3, #0]
{
     a8c:	b5e0      	push	{r5, r6, r7, lr}
	setbuf(stdout, NULL);
     a8e:	6898      	ldr	r0, [r3, #8]
     a90:	f000 fc1c 	bl	12cc <setbuf>
    NRF_CLOCK->EVENTS_HFCLKSTARTED = 0;
     a94:	2280      	movs	r2, #128	@ 0x80
     a96:	2180      	movs	r1, #128	@ 0x80
     a98:	2300      	movs	r3, #0
     a9a:	05d2      	lsls	r2, r2, #23
     a9c:	0049      	lsls	r1, r1, #1
     a9e:	5053      	str	r3, [r2, r1]
    NRF_CLOCK->TASKS_HFCLKSTART = 1;
     aa0:	3301      	adds	r3, #1
     aa2:	6013      	str	r3, [r2, #0]
    while (NRF_CLOCK->EVENTS_HFCLKSTARTED == 0);
     aa4:	5853      	ldr	r3, [r2, r1]
     aa6:	2b00      	cmp	r3, #0
     aa8:	d0fc      	beq.n	aa4 <main+0x28>
	clocks_start();
    timer_init();
     aaa:	f000 f8d7 	bl	c5c <timer_init>
	led_init();
     aae:	f7ff ff81 	bl	9b4 <led_init>
	uart_init();
     ab2:	f000 f90f 	bl	cd4 <uart_init>
	printf("\n\rHello ble single channel adv scanner for LYWSD03MMC devices.");
     ab6:	4829      	ldr	r0, [pc, #164]	@ (b5c <main+0xe0>)
     ab8:	f000 fbf6 	bl	12a8 <printf>

	uint8_t channel = 37;
	ble_init(channel);
     abc:	2025      	movs	r0, #37	@ 0x25
     abe:	f7ff fcdf 	bl	480 <ble_init>
	ble_start_rx(channel);
     ac2:	2025      	movs	r0, #37	@ 0x25
     ac4:	f7ff fd50 	bl	568 <ble_start_rx>

	uint32_t last_print = timer_get_time();
     ac8:	f000 f8c2 	bl	c50 <timer_get_time>
     acc:	0007      	movs	r7, r0

	set_device_name_prefix_filter("ATC_");
     ace:	4824      	ldr	r0, [pc, #144]	@ (b60 <main+0xe4>)
     ad0:	f7ff fe46 	bl	760 <set_device_name_prefix_filter>
     ad4:	4b23      	ldr	r3, [pc, #140]	@ (b64 <main+0xe8>)
     ad6:	4c24      	ldr	r4, [pc, #144]	@ (b68 <main+0xec>)
     ad8:	469a      	mov	sl, r3
     ada:	4b24      	ldr	r3, [pc, #144]	@ (b6c <main+0xf0>)
  NVIC->ICER[0U] = (uint32_t)(1UL << (((uint32_t)(int32_t)IRQn) & 0x1FUL));
     adc:	4e24      	ldr	r6, [pc, #144]	@ (b70 <main+0xf4>)
     ade:	4699      	mov	r9, r3
	if(rx_fifo.count >0)
     ae0:	4b24      	ldr	r3, [pc, #144]	@ (b74 <main+0xf8>)
     ae2:	4698      	mov	r8, r3
		volatile uint8_t *data = rx_fifo.packet[rx_fifo.read_index].data;
     ae4:	25a1      	movs	r5, #161	@ 0xa1
     ae6:	012d      	lsls	r5, r5, #4
	if(rx_fifo.count >0)
     ae8:	4643      	mov	r3, r8
     aea:	58e3      	ldr	r3, [r4, r3]
     aec:	2b00      	cmp	r3, #0
     aee:	d110      	bne.n	b12 <main+0x96>

	while(1)
	{
		process_rx_fifo();
		if((timer_get_time() - last_print) > 1000) //execute every 1s
     af0:	f000 f8ae 	bl	c50 <timer_get_time>
     af4:	22fa      	movs	r2, #250	@ 0xfa
     af6:	1bc0      	subs	r0, r0, r7
     af8:	0092      	lsls	r2, r2, #2
     afa:	4290      	cmp	r0, r2
     afc:	d9f4      	bls.n	ae8 <main+0x6c>
		{
			last_print = timer_get_time();
     afe:	f000 f8a7 	bl	c50 <timer_get_time>
     b02:	0007      	movs	r7, r0
			printf("\033[2J"); //VT100 clear screen
     b04:	4650      	mov	r0, sl
     b06:	f000 fbcf 	bl	12a8 <printf>
			// print_detected_devices();
			execute_callback_advdata_for_each_device(analyse_sensor_data);
     b0a:	4648      	mov	r0, r9
     b0c:	f7ff ff14 	bl	938 <execute_callback_advdata_for_each_device>
     b10:	e7e8      	b.n	ae4 <main+0x68>
		volatile uint8_t *data = rx_fifo.packet[rx_fifo.read_index].data;
     b12:	5962      	ldr	r2, [r4, r5]
		int8_t  rssi = rx_fifo.packet[rx_fifo.read_index].rssi;
     b14:	5961      	ldr	r1, [r4, r5]
		volatile uint8_t *data = rx_fifo.packet[rx_fifo.read_index].data;
     b16:	0210      	lsls	r0, r2, #8
		int8_t  rssi = rx_fifo.packet[rx_fifo.read_index].rssi;
     b18:	020b      	lsls	r3, r1, #8
     b1a:	185b      	adds	r3, r3, r1
     b1c:	18e3      	adds	r3, r4, r3
     b1e:	785b      	ldrb	r3, [r3, #1]
		volatile uint8_t *data = rx_fifo.packet[rx_fifo.read_index].data;
     b20:	1880      	adds	r0, r0, r2
		int8_t  rssi = rx_fifo.packet[rx_fifo.read_index].rssi;
     b22:	b25b      	sxtb	r3, r3
     b24:	469b      	mov	fp, r3
		volatile uint8_t *data = rx_fifo.packet[rx_fifo.read_index].data;
     b26:	3002      	adds	r0, #2
     b28:	1820      	adds	r0, r4, r0
		init_pdu_buffer_pointer((uint8_t *)data);
     b2a:	f7ff fc0f 	bl	34c <init_pdu_buffer_pointer>
		analyse_packet_data(rssi);
     b2e:	4658      	mov	r0, fp
     b30:	f7ff fc2e 	bl	390 <analyse_packet_data>
		rx_fifo.read_index++;
     b34:	5963      	ldr	r3, [r4, r5]
     b36:	3301      	adds	r3, #1
     b38:	5163      	str	r3, [r4, r5]
		if(rx_fifo.read_index >= 10)
     b3a:	5963      	ldr	r3, [r4, r5]
     b3c:	2b09      	cmp	r3, #9
     b3e:	d901      	bls.n	b44 <main+0xc8>
			rx_fifo.read_index = 0;
     b40:	2300      	movs	r3, #0
     b42:	5163      	str	r3, [r4, r5]
     b44:	2202      	movs	r2, #2
     b46:	2380      	movs	r3, #128	@ 0x80
     b48:	50f2      	str	r2, [r6, r3]
		rx_fifo.count--;
     b4a:	4643      	mov	r3, r8
     b4c:	4641      	mov	r1, r8
     b4e:	58e3      	ldr	r3, [r4, r3]
     b50:	3b01      	subs	r3, #1
     b52:	5063      	str	r3, [r4, r1]
  NVIC->ISER[0U] = (uint32_t)(1UL << (((uint32_t)(int32_t)IRQn) & 0x1FUL));
     b54:	6032      	str	r2, [r6, #0]
}
     b56:	e7cb      	b.n	af0 <main+0x74>
     b58:	20000000 	.word	0x20000000
     b5c:	00009768 	.word	0x00009768
     b60:	000097a8 	.word	0x000097a8
     b64:	000097b0 	.word	0x000097b0
     b68:	200006d4 	.word	0x200006d4
     b6c:	000009f1 	.word	0x000009f1
     b70:	e000e100 	.word	0xe000e100
     b74:	00000a14 	.word	0x00000a14

00000b78 <Default_Handler>:
	}
}

void Default_Handler(void)
{
	while(1);
     b78:	e7fe      	b.n	b78 <Default_Handler>
     b7a:	46c0      	nop			@ (mov r8, r8)

00000b7c <ADC_IRQHandler>:

int main(void);


static void Default_Handler(void) {
  for (;;);
     b7c:	e7fe      	b.n	b7c <ADC_IRQHandler>
     b7e:	46c0      	nop			@ (mov r8, r8)

00000b80 <Reset_Handler>:
}

static void Reset_Handler(void) {
  unsigned long *src, *dst;

  for (dst = &_sdata, src = &_sidata; dst < &_edata; ++dst, ++src)
     b80:	480d      	ldr	r0, [pc, #52]	@ (bb8 <Reset_Handler+0x38>)
     b82:	4b0e      	ldr	r3, [pc, #56]	@ (bbc <Reset_Handler+0x3c>)
static void Reset_Handler(void) {
     b84:	b510      	push	{r4, lr}
  for (dst = &_sdata, src = &_sidata; dst < &_edata; ++dst, ++src)
     b86:	4298      	cmp	r0, r3
     b88:	d207      	bcs.n	b9a <Reset_Handler+0x1a>
    *dst = *src;
     b8a:	3b01      	subs	r3, #1
     b8c:	1a1a      	subs	r2, r3, r0
     b8e:	0892      	lsrs	r2, r2, #2
     b90:	3201      	adds	r2, #1
     b92:	490b      	ldr	r1, [pc, #44]	@ (bc0 <Reset_Handler+0x40>)
     b94:	0092      	lsls	r2, r2, #2
     b96:	f000 fd23 	bl	15e0 <memcpy>
 
  for (dst = &_sbss; dst < &_ebss; ++dst)
     b9a:	480a      	ldr	r0, [pc, #40]	@ (bc4 <Reset_Handler+0x44>)
     b9c:	4b0a      	ldr	r3, [pc, #40]	@ (bc8 <Reset_Handler+0x48>)
     b9e:	4298      	cmp	r0, r3
     ba0:	d207      	bcs.n	bb2 <Reset_Handler+0x32>
    *dst = 0;
     ba2:	3b01      	subs	r3, #1
     ba4:	1a1a      	subs	r2, r3, r0
     ba6:	0892      	lsrs	r2, r2, #2
     ba8:	3201      	adds	r2, #1
     baa:	2100      	movs	r1, #0
     bac:	0092      	lsls	r2, r2, #2
     bae:	f000 fc91 	bl	14d4 <memset>
  main();
     bb2:	f7ff ff63 	bl	a7c <main>
  for (;;);
     bb6:	e7fe      	b.n	bb6 <Reset_Handler+0x36>
     bb8:	20000000 	.word	0x20000000
     bbc:	200006d0 	.word	0x200006d0
     bc0:	00009eb8 	.word	0x00009eb8
     bc4:	200006d0 	.word	0x200006d0
     bc8:	20004570 	.word	0x20004570

00000bcc <_write>:
// https://www.embecosm.com/appnotes/ean9/ean9-howto-newlib-1.0.html#id2719973
int
_write (int   file,
        char *buf,
        int   nbytes)
{
     bcc:	b570      	push	{r4, r5, r6, lr}
     bce:	1e16      	subs	r6, r2, #0
  int i;

  /* Output character at at time */
  for (i = 0; i < nbytes; i++)
     bd0:	dd07      	ble.n	be2 <_write+0x16>
     bd2:	000c      	movs	r4, r1
     bd4:	188d      	adds	r5, r1, r2
    {
      uart_put (buf[i]);
     bd6:	7820      	ldrb	r0, [r4, #0]
  for (i = 0; i < nbytes; i++)
     bd8:	3401      	adds	r4, #1
      uart_put (buf[i]);
     bda:	f000 f8a7 	bl	d2c <uart_put>
  for (i = 0; i < nbytes; i++)
     bde:	42ac      	cmp	r4, r5
     be0:	d1f9      	bne.n	bd6 <_write+0xa>
    }
        
  return nbytes;

}
     be2:	0030      	movs	r0, r6
     be4:	bd70      	pop	{r4, r5, r6, pc}
     be6:	46c0      	nop			@ (mov r8, r8)

00000be8 <_sbrk>:
  write_str("\n\rAllocating:");
  int_write(nbytes);
  write_str("bytes");
  #endif

  if(last+nbytes < HEAP_SIZE)
     be8:	4906      	ldr	r1, [pc, #24]	@ (c04 <_sbrk+0x1c>)
     bea:	880b      	ldrh	r3, [r1, #0]
     bec:	181a      	adds	r2, r3, r0
     bee:	20a0      	movs	r0, #160	@ 0xa0
     bf0:	0140      	lsls	r0, r0, #5
     bf2:	4282      	cmp	r2, r0
     bf4:	da03      	bge.n	bfe <_sbrk+0x16>
  {
    void* pointer = &heap[last];
     bf6:	4804      	ldr	r0, [pc, #16]	@ (c08 <_sbrk+0x20>)
    last+=nbytes;
     bf8:	800a      	strh	r2, [r1, #0]
    void* pointer = &heap[last];
     bfa:	1818      	adds	r0, r3, r0
  }
  else
  {
    return  (void *) -1;
  }
}
     bfc:	4770      	bx	lr
    return  (void *) -1;
     bfe:	2001      	movs	r0, #1
     c00:	4240      	negs	r0, r0
     c02:	e7fb      	b.n	bfc <_sbrk+0x14>
     c04:	200043ec 	.word	0x200043ec
     c08:	20002fec 	.word	0x20002fec

00000c0c <_close>:

int
_close (int   file)
{
  errno = EBADF;
     c0c:	2209      	movs	r2, #9
  
  return -1;                    /* Always fails */
     c0e:	2001      	movs	r0, #1
  errno = EBADF;
     c10:	4b01      	ldr	r3, [pc, #4]	@ (c18 <_close+0xc>)
}
     c12:	4240      	negs	r0, r0
  errno = EBADF;
     c14:	601a      	str	r2, [r3, #0]
}
     c16:	4770      	bx	lr
     c18:	200043f4 	.word	0x200043f4

00000c1c <_lseek>:
        int   offset,
        int   whence)
{
  return  0;

} 
     c1c:	2000      	movs	r0, #0
     c1e:	4770      	bx	lr

00000c20 <_read>:
       char *ptr,
       int   len)
{
  return  0;                            /* EOF */

} 
     c20:	2000      	movs	r0, #0
     c22:	4770      	bx	lr

00000c24 <_fstat>:

int
_fstat (int          file,
        struct stat *st)
{
  st->st_mode = S_IFCHR;
     c24:	2380      	movs	r3, #128	@ 0x80
     c26:	019b      	lsls	r3, r3, #6
  return  0;

}
     c28:	2000      	movs	r0, #0
  st->st_mode = S_IFCHR;
     c2a:	604b      	str	r3, [r1, #4]
}
     c2c:	4770      	bx	lr
     c2e:	46c0      	nop			@ (mov r8, r8)

00000c30 <_isatty>:
int
_isatty (int   file)
{
  return  1;

}
     c30:	2001      	movs	r0, #1
     c32:	4770      	bx	lr

00000c34 <_exit>:

void Default_Handler(void);
void 
_exit (int  rc)
{
     c34:	b510      	push	{r4, lr}
 Default_Handler();
     c36:	f7ff ff9f 	bl	b78 <Default_Handler>
 while(1){}
     c3a:	e7fe      	b.n	c3a <_exit+0x6>

00000c3c <_kill>:

int
_kill (int  pid,
       int  sig)
{
  errno = EINVAL;
     c3c:	2216      	movs	r2, #22
  return -1;                    /* Always fails */
     c3e:	2001      	movs	r0, #1
  errno = EINVAL;
     c40:	4b01      	ldr	r3, [pc, #4]	@ (c48 <_kill+0xc>)

} 
     c42:	4240      	negs	r0, r0
  errno = EINVAL;
     c44:	601a      	str	r2, [r3, #0]
} 
     c46:	4770      	bx	lr
     c48:	200043f4 	.word	0x200043f4

00000c4c <_getpid>:
int
_getpid ()
{
  return  1;                            /* Success */

     c4c:	2001      	movs	r0, #1
     c4e:	4770      	bx	lr

00000c50 <timer_get_time>:

volatile uint32_t ms_counter = 0 ;

uint32_t timer_get_time(void)
{
    return ms_counter;
     c50:	4b01      	ldr	r3, [pc, #4]	@ (c58 <timer_get_time+0x8>)
     c52:	6818      	ldr	r0, [r3, #0]
}
     c54:	4770      	bx	lr
     c56:	46c0      	nop			@ (mov r8, r8)
     c58:	200043f0 	.word	0x200043f0

00000c5c <timer_init>:

void timer_init(void)
{
    // Configure the system timer with a 1 MHz base frequency
    NRF_TIMER2->PRESCALER = 4;
     c5c:	22a2      	movs	r2, #162	@ 0xa2
     c5e:	2104      	movs	r1, #4
     c60:	4b12      	ldr	r3, [pc, #72]	@ (cac <timer_init+0x50>)
     c62:	00d2      	lsls	r2, r2, #3
{
     c64:	b530      	push	{r4, r5, lr}
    NRF_TIMER2->PRESCALER = 4;
     c66:	5099      	str	r1, [r3, r2]
    NRF_TIMER2->BITMODE   = TIMER_BITMODE_BITMODE_16Bit;
     c68:	2100      	movs	r1, #0
     c6a:	3a08      	subs	r2, #8
     c6c:	5099      	str	r1, [r3, r2]
    NRF_TIMER2->CC[0] = 1000; //Capture every 1ms =1khz
     c6e:	21fa      	movs	r1, #250	@ 0xfa
     c70:	3238      	adds	r2, #56	@ 0x38
     c72:	0089      	lsls	r1, r1, #2
     c74:	5099      	str	r1, [r3, r2]
	NRF_TIMER2->SHORTS    = TIMER_SHORTS_COMPARE0_CLEAR_Msk;
     c76:	2280      	movs	r2, #128	@ 0x80
     c78:	2401      	movs	r4, #1
	NRF_TIMER2->INTENSET = TIMER_INTENSET_COMPARE0_Msk;
     c7a:	2180      	movs	r1, #128	@ 0x80
    NVIC->IP[_IP_IDX(IRQn)]  = ((uint32_t)(NVIC->IP[_IP_IDX(IRQn)]  & ~(0xFFUL << _BIT_SHIFT(IRQn))) |
     c7c:	25c2      	movs	r5, #194	@ 0xc2
	NRF_TIMER2->SHORTS    = TIMER_SHORTS_COMPARE0_CLEAR_Msk;
     c7e:	0092      	lsls	r2, r2, #2
     c80:	509c      	str	r4, [r3, r2]
	NRF_TIMER2->INTENSET = TIMER_INTENSET_COMPARE0_Msk;
     c82:	3205      	adds	r2, #5
     c84:	32ff      	adds	r2, #255	@ 0xff
     c86:	0249      	lsls	r1, r1, #9
     c88:	5099      	str	r1, [r3, r2]
     c8a:	4a09      	ldr	r2, [pc, #36]	@ (cb0 <timer_init+0x54>)
     c8c:	00ad      	lsls	r5, r5, #2
     c8e:	5950      	ldr	r0, [r2, r5]
     c90:	4908      	ldr	r1, [pc, #32]	@ (cb4 <timer_init+0x58>)
     c92:	4008      	ands	r0, r1
     c94:	2180      	movs	r1, #128	@ 0x80
     c96:	0409      	lsls	r1, r1, #16
     c98:	4301      	orrs	r1, r0
     c9a:	5151      	str	r1, [r2, r5]
  NVIC->ICPR[0U] = (uint32_t)(1UL << (((uint32_t)(int32_t)IRQn) & 0x1FUL));
     c9c:	20c0      	movs	r0, #192	@ 0xc0
     c9e:	2180      	movs	r1, #128	@ 0x80
     ca0:	0040      	lsls	r0, r0, #1
     ca2:	00c9      	lsls	r1, r1, #3
     ca4:	5011      	str	r1, [r2, r0]
  NVIC->ISER[0U] = (uint32_t)(1UL << (((uint32_t)(int32_t)IRQn) & 0x1FUL));
     ca6:	6011      	str	r1, [r2, #0]
    NVIC_SetPriority(TIMER2_IRQn, 6);
	NVIC_ClearPendingIRQ(TIMER2_IRQn);
    NVIC_EnableIRQ(TIMER2_IRQn);
	NRF_TIMER2->TASKS_START = 1;
     ca8:	601c      	str	r4, [r3, #0]
}
     caa:	bd30      	pop	{r4, r5, pc}
     cac:	4000a000 	.word	0x4000a000
     cb0:	e000e100 	.word	0xe000e100
     cb4:	ff00ffff 	.word	0xff00ffff

00000cb8 <TIMER2_IRQHandler>:

void TIMER2_IRQHandler(void)
{
	NRF_TIMER2->EVENTS_COMPARE[0] = 0;
     cb8:	23a0      	movs	r3, #160	@ 0xa0
     cba:	2100      	movs	r1, #0
     cbc:	4a03      	ldr	r2, [pc, #12]	@ (ccc <TIMER2_IRQHandler+0x14>)
     cbe:	005b      	lsls	r3, r3, #1
     cc0:	50d1      	str	r1, [r2, r3]
	ms_counter++;
     cc2:	4a03      	ldr	r2, [pc, #12]	@ (cd0 <TIMER2_IRQHandler+0x18>)
     cc4:	6813      	ldr	r3, [r2, #0]
     cc6:	3301      	adds	r3, #1
     cc8:	6013      	str	r3, [r2, #0]
}
     cca:	4770      	bx	lr
     ccc:	4000a000 	.word	0x4000a000
     cd0:	200043f0 	.word	0x200043f0

00000cd4 <uart_init>:
#include "nrf51_bitfields.h"

void uart_init(void)
{
	const uint32_t txd_pin = 9;//P.09 TXD
	NRF_GPIO->OUTSET = (1<<txd_pin);
     cd4:	23a0      	movs	r3, #160	@ 0xa0
     cd6:	22a1      	movs	r2, #161	@ 0xa1
     cd8:	2180      	movs	r1, #128	@ 0x80
     cda:	05db      	lsls	r3, r3, #23
     cdc:	00d2      	lsls	r2, r2, #3
     cde:	0089      	lsls	r1, r1, #2
     ce0:	5099      	str	r1, [r3, r2]
	NRF_GPIO->PIN_CNF[txd_pin] = ((uint32_t)GPIO_PIN_CNF_DIR_Output << GPIO_PIN_CNF_DIR_Pos)
     ce2:	4a0b      	ldr	r2, [pc, #44]	@ (d10 <uart_init+0x3c>)
     ce4:	39fe      	subs	r1, #254	@ 0xfe
     ce6:	39ff      	subs	r1, #255	@ 0xff
     ce8:	5099      	str	r1, [r3, r2]
						| ((uint32_t)GPIO_PIN_CNF_INPUT_Disconnect << GPIO_PIN_CNF_INPUT_Pos)
						| ((uint32_t)GPIO_PIN_CNF_PULL_Disabled << GPIO_PIN_CNF_PULL_Pos)
						| ((uint32_t)GPIO_PIN_CNF_DRIVE_S0S1 << GPIO_PIN_CNF_DRIVE_Pos)
						| ((uint32_t)GPIO_PIN_CNF_SENSE_Disabled << GPIO_PIN_CNF_SENSE_Pos);

	NRF_UART0->BAUDRATE = 0x01D7E000; //115200
     cea:	4b0a      	ldr	r3, [pc, #40]	@ (d14 <uart_init+0x40>)
     cec:	4a0a      	ldr	r2, [pc, #40]	@ (d18 <uart_init+0x44>)
     cee:	490b      	ldr	r1, [pc, #44]	@ (d1c <uart_init+0x48>)
     cf0:	5099      	str	r1, [r3, r2]
	NRF_UART0->CONFIG = UART_CONFIG_PARITY_Excluded << UART_CONFIG_PARITY_Pos | UART_CONFIG_HWFC_Disabled;
     cf2:	2100      	movs	r1, #0
     cf4:	4a0a      	ldr	r2, [pc, #40]	@ (d20 <uart_init+0x4c>)
     cf6:	5099      	str	r1, [r3, r2]
	NRF_UART0->PSELTXD = txd_pin;
     cf8:	4a0a      	ldr	r2, [pc, #40]	@ (d24 <uart_init+0x50>)
     cfa:	3109      	adds	r1, #9
     cfc:	5099      	str	r1, [r3, r2]
	NRF_UART0->ENABLE = UART_ENABLE_ENABLE_Enabled;
     cfe:	3a0c      	subs	r2, #12
     d00:	3905      	subs	r1, #5
     d02:	5099      	str	r1, [r3, r2]
	NRF_UART0->TASKS_STARTTX = 1;
     d04:	2201      	movs	r2, #1
     d06:	609a      	str	r2, [r3, #8]
    NRF_UART0->TXD = ' '; //First character needs to be send to generate TXDRDY event and not be stuck in while loop
     d08:	4a07      	ldr	r2, [pc, #28]	@ (d28 <uart_init+0x54>)
     d0a:	311c      	adds	r1, #28
     d0c:	5099      	str	r1, [r3, r2]
}
     d0e:	4770      	bx	lr
     d10:	00000724 	.word	0x00000724
     d14:	40002000 	.word	0x40002000
     d18:	00000524 	.word	0x00000524
     d1c:	01d7e000 	.word	0x01d7e000
     d20:	0000056c 	.word	0x0000056c
     d24:	0000050c 	.word	0x0000050c
     d28:	0000051c 	.word	0x0000051c

00000d2c <uart_put>:

void uart_put(char c)
{
    while(NRF_UART0->EVENTS_TXDRDY == 0) {}
     d2c:	218e      	movs	r1, #142	@ 0x8e
     d2e:	4a05      	ldr	r2, [pc, #20]	@ (d44 <uart_put+0x18>)
     d30:	0049      	lsls	r1, r1, #1
     d32:	5853      	ldr	r3, [r2, r1]
     d34:	2b00      	cmp	r3, #0
     d36:	d0fc      	beq.n	d32 <uart_put+0x6>
    NRF_UART0->EVENTS_TXDRDY = 0;
     d38:	2300      	movs	r3, #0
     d3a:	5053      	str	r3, [r2, r1]
    NRF_UART0->TXD = c;
     d3c:	4b02      	ldr	r3, [pc, #8]	@ (d48 <uart_put+0x1c>)
     d3e:	50d0      	str	r0, [r2, r3]
    
     d40:	4770      	bx	lr
     d42:	46c0      	nop			@ (mov r8, r8)
     d44:	40002000 	.word	0x40002000
     d48:	0000051c 	.word	0x0000051c

00000d4c <__aeabi_ddiv>:
     d4c:	b5f0      	push	{r4, r5, r6, r7, lr}
     d4e:	b089      	sub	sp, #36	@ 0x24
     d50:	9200      	str	r2, [sp, #0]
     d52:	9301      	str	r3, [sp, #4]
     d54:	030d      	lsls	r5, r1, #12
     d56:	004b      	lsls	r3, r1, #1
     d58:	0fca      	lsrs	r2, r1, #31
     d5a:	0006      	movs	r6, r0
     d5c:	0004      	movs	r4, r0
     d5e:	0b2d      	lsrs	r5, r5, #12
     d60:	0d5b      	lsrs	r3, r3, #21
     d62:	9203      	str	r2, [sp, #12]
     d64:	d045      	beq.n	df2 <__aeabi_ddiv+0xa6>
     d66:	4a64      	ldr	r2, [pc, #400]	@ (ef8 <__aeabi_ddiv+0x1ac>)
     d68:	4293      	cmp	r3, r2
     d6a:	d06b      	beq.n	e44 <__aeabi_ddiv+0xf8>
     d6c:	0f42      	lsrs	r2, r0, #29
     d6e:	00ed      	lsls	r5, r5, #3
     d70:	4315      	orrs	r5, r2
     d72:	2280      	movs	r2, #128	@ 0x80
     d74:	0412      	lsls	r2, r2, #16
     d76:	432a      	orrs	r2, r5
     d78:	9202      	str	r2, [sp, #8]
     d7a:	4a60      	ldr	r2, [pc, #384]	@ (efc <__aeabi_ddiv+0x1b0>)
     d7c:	00c4      	lsls	r4, r0, #3
     d7e:	189f      	adds	r7, r3, r2
     d80:	2600      	movs	r6, #0
     d82:	9b01      	ldr	r3, [sp, #4]
     d84:	9a01      	ldr	r2, [sp, #4]
     d86:	031d      	lsls	r5, r3, #12
     d88:	0fd2      	lsrs	r2, r2, #31
     d8a:	005b      	lsls	r3, r3, #1
     d8c:	9800      	ldr	r0, [sp, #0]
     d8e:	0b2d      	lsrs	r5, r5, #12
     d90:	0d5b      	lsrs	r3, r3, #21
     d92:	9206      	str	r2, [sp, #24]
     d94:	d066      	beq.n	e64 <__aeabi_ddiv+0x118>
     d96:	4a58      	ldr	r2, [pc, #352]	@ (ef8 <__aeabi_ddiv+0x1ac>)
     d98:	4293      	cmp	r3, r2
     d9a:	d100      	bne.n	d9e <__aeabi_ddiv+0x52>
     d9c:	e089      	b.n	eb2 <__aeabi_ddiv+0x166>
     d9e:	00ed      	lsls	r5, r5, #3
     da0:	4956      	ldr	r1, [pc, #344]	@ (efc <__aeabi_ddiv+0x1b0>)
     da2:	0f42      	lsrs	r2, r0, #29
     da4:	432a      	orrs	r2, r5
     da6:	2580      	movs	r5, #128	@ 0x80
     da8:	185b      	adds	r3, r3, r1
     daa:	469c      	mov	ip, r3
     dac:	042d      	lsls	r5, r5, #16
     dae:	4315      	orrs	r5, r2
     db0:	00c2      	lsls	r2, r0, #3
     db2:	2100      	movs	r1, #0
     db4:	9b06      	ldr	r3, [sp, #24]
     db6:	9803      	ldr	r0, [sp, #12]
     db8:	4058      	eors	r0, r3
     dba:	b2c3      	uxtb	r3, r0
     dbc:	9305      	str	r3, [sp, #20]
     dbe:	4663      	mov	r3, ip
     dc0:	00b0      	lsls	r0, r6, #2
     dc2:	4308      	orrs	r0, r1
     dc4:	1afb      	subs	r3, r7, r3
     dc6:	3801      	subs	r0, #1
     dc8:	9304      	str	r3, [sp, #16]
     dca:	280e      	cmp	r0, #14
     dcc:	d900      	bls.n	dd0 <__aeabi_ddiv+0x84>
     dce:	e099      	b.n	f04 <__aeabi_ddiv+0x1b8>
     dd0:	f7ff f976 	bl	c0 <__gnu_thumb1_case_uhi>
     dd4:	022d008e 	.word	0x022d008e
     dd8:	022d01d3 	.word	0x022d01d3
     ddc:	022d021e 	.word	0x022d021e
     de0:	008e01d3 	.word	0x008e01d3
     de4:	021e008e 	.word	0x021e008e
     de8:	007e01d3 	.word	0x007e01d3
     dec:	007e007e 	.word	0x007e007e
     df0:	01c5      	.short	0x01c5
     df2:	002b      	movs	r3, r5
     df4:	4303      	orrs	r3, r0
     df6:	9302      	str	r3, [sp, #8]
     df8:	d02c      	beq.n	e54 <__aeabi_ddiv+0x108>
     dfa:	2d00      	cmp	r5, #0
     dfc:	d015      	beq.n	e2a <__aeabi_ddiv+0xde>
     dfe:	0028      	movs	r0, r5
     e00:	f7ff f9b0 	bl	164 <__clzsi2>
     e04:	0001      	movs	r1, r0
     e06:	0003      	movs	r3, r0
     e08:	390b      	subs	r1, #11
     e0a:	221d      	movs	r2, #29
     e0c:	1a52      	subs	r2, r2, r1
     e0e:	0031      	movs	r1, r6
     e10:	0018      	movs	r0, r3
     e12:	40d1      	lsrs	r1, r2
     e14:	3808      	subs	r0, #8
     e16:	4085      	lsls	r5, r0
     e18:	000a      	movs	r2, r1
     e1a:	432a      	orrs	r2, r5
     e1c:	0035      	movs	r5, r6
     e1e:	4085      	lsls	r5, r0
     e20:	9202      	str	r2, [sp, #8]
     e22:	4f37      	ldr	r7, [pc, #220]	@ (f00 <__aeabi_ddiv+0x1b4>)
     e24:	002c      	movs	r4, r5
     e26:	1aff      	subs	r7, r7, r3
     e28:	e7aa      	b.n	d80 <__aeabi_ddiv+0x34>
     e2a:	f7ff f99b 	bl	164 <__clzsi2>
     e2e:	0001      	movs	r1, r0
     e30:	0003      	movs	r3, r0
     e32:	3115      	adds	r1, #21
     e34:	3320      	adds	r3, #32
     e36:	291c      	cmp	r1, #28
     e38:	dde7      	ble.n	e0a <__aeabi_ddiv+0xbe>
     e3a:	0032      	movs	r2, r6
     e3c:	3808      	subs	r0, #8
     e3e:	4082      	lsls	r2, r0
     e40:	9202      	str	r2, [sp, #8]
     e42:	e7ee      	b.n	e22 <__aeabi_ddiv+0xd6>
     e44:	0002      	movs	r2, r0
     e46:	432a      	orrs	r2, r5
     e48:	9202      	str	r2, [sp, #8]
     e4a:	d107      	bne.n	e5c <__aeabi_ddiv+0x110>
     e4c:	0014      	movs	r4, r2
     e4e:	001f      	movs	r7, r3
     e50:	2602      	movs	r6, #2
     e52:	e796      	b.n	d82 <__aeabi_ddiv+0x36>
     e54:	9c02      	ldr	r4, [sp, #8]
     e56:	2601      	movs	r6, #1
     e58:	0027      	movs	r7, r4
     e5a:	e792      	b.n	d82 <__aeabi_ddiv+0x36>
     e5c:	001f      	movs	r7, r3
     e5e:	2603      	movs	r6, #3
     e60:	9502      	str	r5, [sp, #8]
     e62:	e78e      	b.n	d82 <__aeabi_ddiv+0x36>
     e64:	9a00      	ldr	r2, [sp, #0]
     e66:	432a      	orrs	r2, r5
     e68:	d02a      	beq.n	ec0 <__aeabi_ddiv+0x174>
     e6a:	2d00      	cmp	r5, #0
     e6c:	d015      	beq.n	e9a <__aeabi_ddiv+0x14e>
     e6e:	0028      	movs	r0, r5
     e70:	f7ff f978 	bl	164 <__clzsi2>
     e74:	0001      	movs	r1, r0
     e76:	0002      	movs	r2, r0
     e78:	390b      	subs	r1, #11
     e7a:	231d      	movs	r3, #29
     e7c:	0010      	movs	r0, r2
     e7e:	1a5b      	subs	r3, r3, r1
     e80:	9900      	ldr	r1, [sp, #0]
     e82:	3808      	subs	r0, #8
     e84:	4085      	lsls	r5, r0
     e86:	40d9      	lsrs	r1, r3
     e88:	4329      	orrs	r1, r5
     e8a:	9d00      	ldr	r5, [sp, #0]
     e8c:	4085      	lsls	r5, r0
     e8e:	4b1c      	ldr	r3, [pc, #112]	@ (f00 <__aeabi_ddiv+0x1b4>)
     e90:	1a9b      	subs	r3, r3, r2
     e92:	469c      	mov	ip, r3
     e94:	002a      	movs	r2, r5
     e96:	000d      	movs	r5, r1
     e98:	e78b      	b.n	db2 <__aeabi_ddiv+0x66>
     e9a:	f7ff f963 	bl	164 <__clzsi2>
     e9e:	0001      	movs	r1, r0
     ea0:	0002      	movs	r2, r0
     ea2:	3115      	adds	r1, #21
     ea4:	3220      	adds	r2, #32
     ea6:	291c      	cmp	r1, #28
     ea8:	dde7      	ble.n	e7a <__aeabi_ddiv+0x12e>
     eaa:	9900      	ldr	r1, [sp, #0]
     eac:	3808      	subs	r0, #8
     eae:	4081      	lsls	r1, r0
     eb0:	e7ed      	b.n	e8e <__aeabi_ddiv+0x142>
     eb2:	9a00      	ldr	r2, [sp, #0]
     eb4:	432a      	orrs	r2, r5
     eb6:	d107      	bne.n	ec8 <__aeabi_ddiv+0x17c>
     eb8:	0015      	movs	r5, r2
     eba:	469c      	mov	ip, r3
     ebc:	2102      	movs	r1, #2
     ebe:	e779      	b.n	db4 <__aeabi_ddiv+0x68>
     ec0:	0015      	movs	r5, r2
     ec2:	4694      	mov	ip, r2
     ec4:	2101      	movs	r1, #1
     ec6:	e775      	b.n	db4 <__aeabi_ddiv+0x68>
     ec8:	0002      	movs	r2, r0
     eca:	469c      	mov	ip, r3
     ecc:	2103      	movs	r1, #3
     ece:	e771      	b.n	db4 <__aeabi_ddiv+0x68>
     ed0:	0031      	movs	r1, r6
     ed2:	9b03      	ldr	r3, [sp, #12]
     ed4:	9305      	str	r3, [sp, #20]
     ed6:	2902      	cmp	r1, #2
     ed8:	d100      	bne.n	edc <__aeabi_ddiv+0x190>
     eda:	e1ac      	b.n	1236 <__aeabi_ddiv+0x4ea>
     edc:	2903      	cmp	r1, #3
     ede:	d100      	bne.n	ee2 <__aeabi_ddiv+0x196>
     ee0:	e1a2      	b.n	1228 <__aeabi_ddiv+0x4dc>
     ee2:	2901      	cmp	r1, #1
     ee4:	d000      	beq.n	ee8 <__aeabi_ddiv+0x19c>
     ee6:	e101      	b.n	10ec <__aeabi_ddiv+0x3a0>
     ee8:	2400      	movs	r4, #0
     eea:	0023      	movs	r3, r4
     eec:	0022      	movs	r2, r4
     eee:	e126      	b.n	113e <__aeabi_ddiv+0x3f2>
     ef0:	2300      	movs	r3, #0
     ef2:	001c      	movs	r4, r3
     ef4:	4a00      	ldr	r2, [pc, #0]	@ (ef8 <__aeabi_ddiv+0x1ac>)
     ef6:	e122      	b.n	113e <__aeabi_ddiv+0x3f2>
     ef8:	000007ff 	.word	0x000007ff
     efc:	fffffc01 	.word	0xfffffc01
     f00:	fffffc0d 	.word	0xfffffc0d
     f04:	9b02      	ldr	r3, [sp, #8]
     f06:	429d      	cmp	r5, r3
     f08:	d304      	bcc.n	f14 <__aeabi_ddiv+0x1c8>
     f0a:	d000      	beq.n	f0e <__aeabi_ddiv+0x1c2>
     f0c:	e122      	b.n	1154 <__aeabi_ddiv+0x408>
     f0e:	42a2      	cmp	r2, r4
     f10:	d900      	bls.n	f14 <__aeabi_ddiv+0x1c8>
     f12:	e11f      	b.n	1154 <__aeabi_ddiv+0x408>
     f14:	9b02      	ldr	r3, [sp, #8]
     f16:	07e6      	lsls	r6, r4, #31
     f18:	07d9      	lsls	r1, r3, #31
     f1a:	0863      	lsrs	r3, r4, #1
     f1c:	4319      	orrs	r1, r3
     f1e:	000c      	movs	r4, r1
     f20:	9b02      	ldr	r3, [sp, #8]
     f22:	085b      	lsrs	r3, r3, #1
     f24:	9302      	str	r3, [sp, #8]
     f26:	0213      	lsls	r3, r2, #8
     f28:	022d      	lsls	r5, r5, #8
     f2a:	0e17      	lsrs	r7, r2, #24
     f2c:	9300      	str	r3, [sp, #0]
     f2e:	0c2b      	lsrs	r3, r5, #16
     f30:	432f      	orrs	r7, r5
     f32:	9306      	str	r3, [sp, #24]
     f34:	9906      	ldr	r1, [sp, #24]
     f36:	b2bb      	uxth	r3, r7
     f38:	9802      	ldr	r0, [sp, #8]
     f3a:	9303      	str	r3, [sp, #12]
     f3c:	f7ff f906 	bl	14c <__aeabi_uidivmod>
     f40:	b2bb      	uxth	r3, r7
     f42:	4343      	muls	r3, r0
     f44:	040a      	lsls	r2, r1, #16
     f46:	0c21      	lsrs	r1, r4, #16
     f48:	0005      	movs	r5, r0
     f4a:	4311      	orrs	r1, r2
     f4c:	428b      	cmp	r3, r1
     f4e:	d907      	bls.n	f60 <__aeabi_ddiv+0x214>
     f50:	19c9      	adds	r1, r1, r7
     f52:	3d01      	subs	r5, #1
     f54:	428f      	cmp	r7, r1
     f56:	d803      	bhi.n	f60 <__aeabi_ddiv+0x214>
     f58:	428b      	cmp	r3, r1
     f5a:	d901      	bls.n	f60 <__aeabi_ddiv+0x214>
     f5c:	1e85      	subs	r5, r0, #2
     f5e:	19c9      	adds	r1, r1, r7
     f60:	1ac8      	subs	r0, r1, r3
     f62:	9906      	ldr	r1, [sp, #24]
     f64:	f7ff f8f2 	bl	14c <__aeabi_uidivmod>
     f68:	b2ba      	uxth	r2, r7
     f6a:	4342      	muls	r2, r0
     f6c:	0409      	lsls	r1, r1, #16
     f6e:	b2a4      	uxth	r4, r4
     f70:	0003      	movs	r3, r0
     f72:	430c      	orrs	r4, r1
     f74:	42a2      	cmp	r2, r4
     f76:	d907      	bls.n	f88 <__aeabi_ddiv+0x23c>
     f78:	19e4      	adds	r4, r4, r7
     f7a:	3b01      	subs	r3, #1
     f7c:	42a7      	cmp	r7, r4
     f7e:	d803      	bhi.n	f88 <__aeabi_ddiv+0x23c>
     f80:	42a2      	cmp	r2, r4
     f82:	d901      	bls.n	f88 <__aeabi_ddiv+0x23c>
     f84:	1e83      	subs	r3, r0, #2
     f86:	19e4      	adds	r4, r4, r7
     f88:	042d      	lsls	r5, r5, #16
     f8a:	431d      	orrs	r5, r3
     f8c:	1aa4      	subs	r4, r4, r2
     f8e:	9b00      	ldr	r3, [sp, #0]
     f90:	9a00      	ldr	r2, [sp, #0]
     f92:	0c1b      	lsrs	r3, r3, #16
     f94:	0412      	lsls	r2, r2, #16
     f96:	9303      	str	r3, [sp, #12]
     f98:	0c12      	lsrs	r2, r2, #16
     f9a:	b2ab      	uxth	r3, r5
     f9c:	9207      	str	r2, [sp, #28]
     f9e:	435a      	muls	r2, r3
     fa0:	9807      	ldr	r0, [sp, #28]
     fa2:	9202      	str	r2, [sp, #8]
     fa4:	9a03      	ldr	r2, [sp, #12]
     fa6:	0c29      	lsrs	r1, r5, #16
     fa8:	4348      	muls	r0, r1
     faa:	4353      	muls	r3, r2
     fac:	4351      	muls	r1, r2
     fae:	9a02      	ldr	r2, [sp, #8]
     fb0:	181b      	adds	r3, r3, r0
     fb2:	0c12      	lsrs	r2, r2, #16
     fb4:	4694      	mov	ip, r2
     fb6:	4463      	add	r3, ip
     fb8:	4298      	cmp	r0, r3
     fba:	d902      	bls.n	fc2 <__aeabi_ddiv+0x276>
     fbc:	2280      	movs	r2, #128	@ 0x80
     fbe:	0252      	lsls	r2, r2, #9
     fc0:	1889      	adds	r1, r1, r2
     fc2:	9a02      	ldr	r2, [sp, #8]
     fc4:	0c18      	lsrs	r0, r3, #16
     fc6:	0412      	lsls	r2, r2, #16
     fc8:	041b      	lsls	r3, r3, #16
     fca:	0c12      	lsrs	r2, r2, #16
     fcc:	1840      	adds	r0, r0, r1
     fce:	189a      	adds	r2, r3, r2
     fd0:	4284      	cmp	r4, r0
     fd2:	d303      	bcc.n	fdc <__aeabi_ddiv+0x290>
     fd4:	9502      	str	r5, [sp, #8]
     fd6:	d11e      	bne.n	1016 <__aeabi_ddiv+0x2ca>
     fd8:	4296      	cmp	r6, r2
     fda:	d21c      	bcs.n	1016 <__aeabi_ddiv+0x2ca>
     fdc:	1e6b      	subs	r3, r5, #1
     fde:	9302      	str	r3, [sp, #8]
     fe0:	9b00      	ldr	r3, [sp, #0]
     fe2:	18f6      	adds	r6, r6, r3
     fe4:	429e      	cmp	r6, r3
     fe6:	419b      	sbcs	r3, r3
     fe8:	425b      	negs	r3, r3
     fea:	19db      	adds	r3, r3, r7
     fec:	18e4      	adds	r4, r4, r3
     fee:	42a7      	cmp	r7, r4
     ff0:	d303      	bcc.n	ffa <__aeabi_ddiv+0x2ae>
     ff2:	d110      	bne.n	1016 <__aeabi_ddiv+0x2ca>
     ff4:	9b00      	ldr	r3, [sp, #0]
     ff6:	42b3      	cmp	r3, r6
     ff8:	d80d      	bhi.n	1016 <__aeabi_ddiv+0x2ca>
     ffa:	42a0      	cmp	r0, r4
     ffc:	d802      	bhi.n	1004 <__aeabi_ddiv+0x2b8>
     ffe:	d10a      	bne.n	1016 <__aeabi_ddiv+0x2ca>
    1000:	42b2      	cmp	r2, r6
    1002:	d908      	bls.n	1016 <__aeabi_ddiv+0x2ca>
    1004:	1eab      	subs	r3, r5, #2
    1006:	9302      	str	r3, [sp, #8]
    1008:	9b00      	ldr	r3, [sp, #0]
    100a:	18f6      	adds	r6, r6, r3
    100c:	429e      	cmp	r6, r3
    100e:	419b      	sbcs	r3, r3
    1010:	425b      	negs	r3, r3
    1012:	19db      	adds	r3, r3, r7
    1014:	18e4      	adds	r4, r4, r3
    1016:	1ab5      	subs	r5, r6, r2
    1018:	42ae      	cmp	r6, r5
    101a:	41b6      	sbcs	r6, r6
    101c:	1a20      	subs	r0, r4, r0
    101e:	4276      	negs	r6, r6
    1020:	1b80      	subs	r0, r0, r6
    1022:	4287      	cmp	r7, r0
    1024:	d100      	bne.n	1028 <__aeabi_ddiv+0x2dc>
    1026:	e0ad      	b.n	1184 <__aeabi_ddiv+0x438>
    1028:	9906      	ldr	r1, [sp, #24]
    102a:	f7ff f88f 	bl	14c <__aeabi_uidivmod>
    102e:	b2bb      	uxth	r3, r7
    1030:	4343      	muls	r3, r0
    1032:	040a      	lsls	r2, r1, #16
    1034:	0c29      	lsrs	r1, r5, #16
    1036:	0004      	movs	r4, r0
    1038:	4311      	orrs	r1, r2
    103a:	428b      	cmp	r3, r1
    103c:	d907      	bls.n	104e <__aeabi_ddiv+0x302>
    103e:	19c9      	adds	r1, r1, r7
    1040:	3c01      	subs	r4, #1
    1042:	428f      	cmp	r7, r1
    1044:	d803      	bhi.n	104e <__aeabi_ddiv+0x302>
    1046:	428b      	cmp	r3, r1
    1048:	d901      	bls.n	104e <__aeabi_ddiv+0x302>
    104a:	1e84      	subs	r4, r0, #2
    104c:	19c9      	adds	r1, r1, r7
    104e:	1ac8      	subs	r0, r1, r3
    1050:	9906      	ldr	r1, [sp, #24]
    1052:	f7ff f87b 	bl	14c <__aeabi_uidivmod>
    1056:	b2bb      	uxth	r3, r7
    1058:	4343      	muls	r3, r0
    105a:	0409      	lsls	r1, r1, #16
    105c:	b2ad      	uxth	r5, r5
    105e:	0002      	movs	r2, r0
    1060:	430d      	orrs	r5, r1
    1062:	42ab      	cmp	r3, r5
    1064:	d907      	bls.n	1076 <__aeabi_ddiv+0x32a>
    1066:	19ed      	adds	r5, r5, r7
    1068:	3a01      	subs	r2, #1
    106a:	42af      	cmp	r7, r5
    106c:	d803      	bhi.n	1076 <__aeabi_ddiv+0x32a>
    106e:	42ab      	cmp	r3, r5
    1070:	d901      	bls.n	1076 <__aeabi_ddiv+0x32a>
    1072:	1e82      	subs	r2, r0, #2
    1074:	19ed      	adds	r5, r5, r7
    1076:	1aed      	subs	r5, r5, r3
    1078:	0423      	lsls	r3, r4, #16
    107a:	9e03      	ldr	r6, [sp, #12]
    107c:	4313      	orrs	r3, r2
    107e:	9907      	ldr	r1, [sp, #28]
    1080:	9807      	ldr	r0, [sp, #28]
    1082:	0c1c      	lsrs	r4, r3, #16
    1084:	b29a      	uxth	r2, r3
    1086:	4351      	muls	r1, r2
    1088:	4360      	muls	r0, r4
    108a:	4372      	muls	r2, r6
    108c:	4374      	muls	r4, r6
    108e:	1812      	adds	r2, r2, r0
    1090:	0c0e      	lsrs	r6, r1, #16
    1092:	18b2      	adds	r2, r6, r2
    1094:	4290      	cmp	r0, r2
    1096:	d902      	bls.n	109e <__aeabi_ddiv+0x352>
    1098:	2080      	movs	r0, #128	@ 0x80
    109a:	0240      	lsls	r0, r0, #9
    109c:	1824      	adds	r4, r4, r0
    109e:	0c10      	lsrs	r0, r2, #16
    10a0:	0409      	lsls	r1, r1, #16
    10a2:	0412      	lsls	r2, r2, #16
    10a4:	0c09      	lsrs	r1, r1, #16
    10a6:	1900      	adds	r0, r0, r4
    10a8:	1851      	adds	r1, r2, r1
    10aa:	4285      	cmp	r5, r0
    10ac:	d304      	bcc.n	10b8 <__aeabi_ddiv+0x36c>
    10ae:	001c      	movs	r4, r3
    10b0:	4285      	cmp	r5, r0
    10b2:	d119      	bne.n	10e8 <__aeabi_ddiv+0x39c>
    10b4:	2900      	cmp	r1, #0
    10b6:	d019      	beq.n	10ec <__aeabi_ddiv+0x3a0>
    10b8:	197d      	adds	r5, r7, r5
    10ba:	1e5c      	subs	r4, r3, #1
    10bc:	42bd      	cmp	r5, r7
    10be:	d30e      	bcc.n	10de <__aeabi_ddiv+0x392>
    10c0:	4285      	cmp	r5, r0
    10c2:	d303      	bcc.n	10cc <__aeabi_ddiv+0x380>
    10c4:	d110      	bne.n	10e8 <__aeabi_ddiv+0x39c>
    10c6:	9a00      	ldr	r2, [sp, #0]
    10c8:	428a      	cmp	r2, r1
    10ca:	d20a      	bcs.n	10e2 <__aeabi_ddiv+0x396>
    10cc:	1e9c      	subs	r4, r3, #2
    10ce:	9b00      	ldr	r3, [sp, #0]
    10d0:	005a      	lsls	r2, r3, #1
    10d2:	429a      	cmp	r2, r3
    10d4:	419b      	sbcs	r3, r3
    10d6:	425b      	negs	r3, r3
    10d8:	19db      	adds	r3, r3, r7
    10da:	18ed      	adds	r5, r5, r3
    10dc:	9200      	str	r2, [sp, #0]
    10de:	4285      	cmp	r5, r0
    10e0:	d102      	bne.n	10e8 <__aeabi_ddiv+0x39c>
    10e2:	9b00      	ldr	r3, [sp, #0]
    10e4:	4299      	cmp	r1, r3
    10e6:	d001      	beq.n	10ec <__aeabi_ddiv+0x3a0>
    10e8:	2301      	movs	r3, #1
    10ea:	431c      	orrs	r4, r3
    10ec:	9b04      	ldr	r3, [sp, #16]
    10ee:	4a55      	ldr	r2, [pc, #340]	@ (1244 <__aeabi_ddiv+0x4f8>)
    10f0:	189a      	adds	r2, r3, r2
    10f2:	2a00      	cmp	r2, #0
    10f4:	dd49      	ble.n	118a <__aeabi_ddiv+0x43e>
    10f6:	0763      	lsls	r3, r4, #29
    10f8:	d00b      	beq.n	1112 <__aeabi_ddiv+0x3c6>
    10fa:	230f      	movs	r3, #15
    10fc:	4023      	ands	r3, r4
    10fe:	2b04      	cmp	r3, #4
    1100:	d007      	beq.n	1112 <__aeabi_ddiv+0x3c6>
    1102:	1d23      	adds	r3, r4, #4
    1104:	42a3      	cmp	r3, r4
    1106:	41a4      	sbcs	r4, r4
    1108:	9902      	ldr	r1, [sp, #8]
    110a:	4264      	negs	r4, r4
    110c:	1909      	adds	r1, r1, r4
    110e:	001c      	movs	r4, r3
    1110:	9102      	str	r1, [sp, #8]
    1112:	9b02      	ldr	r3, [sp, #8]
    1114:	01db      	lsls	r3, r3, #7
    1116:	d508      	bpl.n	112a <__aeabi_ddiv+0x3de>
    1118:	4b4b      	ldr	r3, [pc, #300]	@ (1248 <__aeabi_ddiv+0x4fc>)
    111a:	9a02      	ldr	r2, [sp, #8]
    111c:	401a      	ands	r2, r3
    111e:	2380      	movs	r3, #128	@ 0x80
    1120:	00db      	lsls	r3, r3, #3
    1122:	469c      	mov	ip, r3
    1124:	9202      	str	r2, [sp, #8]
    1126:	9a04      	ldr	r2, [sp, #16]
    1128:	4462      	add	r2, ip
    112a:	4b48      	ldr	r3, [pc, #288]	@ (124c <__aeabi_ddiv+0x500>)
    112c:	429a      	cmp	r2, r3
    112e:	dd00      	ble.n	1132 <__aeabi_ddiv+0x3e6>
    1130:	e081      	b.n	1236 <__aeabi_ddiv+0x4ea>
    1132:	9b02      	ldr	r3, [sp, #8]
    1134:	08e4      	lsrs	r4, r4, #3
    1136:	075b      	lsls	r3, r3, #29
    1138:	431c      	orrs	r4, r3
    113a:	9b02      	ldr	r3, [sp, #8]
    113c:	08db      	lsrs	r3, r3, #3
    113e:	031b      	lsls	r3, r3, #12
    1140:	0512      	lsls	r2, r2, #20
    1142:	0b1b      	lsrs	r3, r3, #12
    1144:	4313      	orrs	r3, r2
    1146:	9a05      	ldr	r2, [sp, #20]
    1148:	0020      	movs	r0, r4
    114a:	07d2      	lsls	r2, r2, #31
    114c:	4313      	orrs	r3, r2
    114e:	0019      	movs	r1, r3
    1150:	b009      	add	sp, #36	@ 0x24
    1152:	bdf0      	pop	{r4, r5, r6, r7, pc}
    1154:	9b04      	ldr	r3, [sp, #16]
    1156:	2600      	movs	r6, #0
    1158:	3b01      	subs	r3, #1
    115a:	9304      	str	r3, [sp, #16]
    115c:	e6e3      	b.n	f26 <__aeabi_ddiv+0x1da>
    115e:	2380      	movs	r3, #128	@ 0x80
    1160:	9902      	ldr	r1, [sp, #8]
    1162:	031b      	lsls	r3, r3, #12
    1164:	4219      	tst	r1, r3
    1166:	d001      	beq.n	116c <__aeabi_ddiv+0x420>
    1168:	421d      	tst	r5, r3
    116a:	d058      	beq.n	121e <__aeabi_ddiv+0x4d2>
    116c:	2380      	movs	r3, #128	@ 0x80
    116e:	9a02      	ldr	r2, [sp, #8]
    1170:	031b      	lsls	r3, r3, #12
    1172:	4313      	orrs	r3, r2
    1174:	9a03      	ldr	r2, [sp, #12]
    1176:	9205      	str	r2, [sp, #20]
    1178:	e6bc      	b.n	ef4 <__aeabi_ddiv+0x1a8>
    117a:	9b06      	ldr	r3, [sp, #24]
    117c:	0014      	movs	r4, r2
    117e:	9305      	str	r3, [sp, #20]
    1180:	9502      	str	r5, [sp, #8]
    1182:	e6a8      	b.n	ed6 <__aeabi_ddiv+0x18a>
    1184:	2401      	movs	r4, #1
    1186:	4264      	negs	r4, r4
    1188:	e7b0      	b.n	10ec <__aeabi_ddiv+0x3a0>
    118a:	2101      	movs	r1, #1
    118c:	1a89      	subs	r1, r1, r2
    118e:	2938      	cmp	r1, #56	@ 0x38
    1190:	dd00      	ble.n	1194 <__aeabi_ddiv+0x448>
    1192:	e6a9      	b.n	ee8 <__aeabi_ddiv+0x19c>
    1194:	291f      	cmp	r1, #31
    1196:	dc26      	bgt.n	11e6 <__aeabi_ddiv+0x49a>
    1198:	4a2d      	ldr	r2, [pc, #180]	@ (1250 <__aeabi_ddiv+0x504>)
    119a:	9b04      	ldr	r3, [sp, #16]
    119c:	4694      	mov	ip, r2
    119e:	4463      	add	r3, ip
    11a0:	0020      	movs	r0, r4
    11a2:	409c      	lsls	r4, r3
    11a4:	9a02      	ldr	r2, [sp, #8]
    11a6:	40c8      	lsrs	r0, r1
    11a8:	409a      	lsls	r2, r3
    11aa:	0023      	movs	r3, r4
    11ac:	4302      	orrs	r2, r0
    11ae:	1e58      	subs	r0, r3, #1
    11b0:	4183      	sbcs	r3, r0
    11b2:	431a      	orrs	r2, r3
    11b4:	9b02      	ldr	r3, [sp, #8]
    11b6:	0014      	movs	r4, r2
    11b8:	40cb      	lsrs	r3, r1
    11ba:	0762      	lsls	r2, r4, #29
    11bc:	d009      	beq.n	11d2 <__aeabi_ddiv+0x486>
    11be:	220f      	movs	r2, #15
    11c0:	4022      	ands	r2, r4
    11c2:	2a04      	cmp	r2, #4
    11c4:	d005      	beq.n	11d2 <__aeabi_ddiv+0x486>
    11c6:	1d22      	adds	r2, r4, #4
    11c8:	42a2      	cmp	r2, r4
    11ca:	41a4      	sbcs	r4, r4
    11cc:	4264      	negs	r4, r4
    11ce:	191b      	adds	r3, r3, r4
    11d0:	0014      	movs	r4, r2
    11d2:	2180      	movs	r1, #128	@ 0x80
    11d4:	001a      	movs	r2, r3
    11d6:	0409      	lsls	r1, r1, #16
    11d8:	400a      	ands	r2, r1
    11da:	420b      	tst	r3, r1
    11dc:	d12e      	bne.n	123c <__aeabi_ddiv+0x4f0>
    11de:	08e1      	lsrs	r1, r4, #3
    11e0:	075c      	lsls	r4, r3, #29
    11e2:	430c      	orrs	r4, r1
    11e4:	e7aa      	b.n	113c <__aeabi_ddiv+0x3f0>
    11e6:	231f      	movs	r3, #31
    11e8:	425b      	negs	r3, r3
    11ea:	1a9b      	subs	r3, r3, r2
    11ec:	9a02      	ldr	r2, [sp, #8]
    11ee:	40da      	lsrs	r2, r3
    11f0:	2300      	movs	r3, #0
    11f2:	2920      	cmp	r1, #32
    11f4:	d006      	beq.n	1204 <__aeabi_ddiv+0x4b8>
    11f6:	4917      	ldr	r1, [pc, #92]	@ (1254 <__aeabi_ddiv+0x508>)
    11f8:	9b04      	ldr	r3, [sp, #16]
    11fa:	468c      	mov	ip, r1
    11fc:	9902      	ldr	r1, [sp, #8]
    11fe:	4463      	add	r3, ip
    1200:	4099      	lsls	r1, r3
    1202:	000b      	movs	r3, r1
    1204:	431c      	orrs	r4, r3
    1206:	1e63      	subs	r3, r4, #1
    1208:	419c      	sbcs	r4, r3
    120a:	2300      	movs	r3, #0
    120c:	4314      	orrs	r4, r2
    120e:	e7d4      	b.n	11ba <__aeabi_ddiv+0x46e>
    1210:	2300      	movs	r3, #0
    1212:	001c      	movs	r4, r3
    1214:	9303      	str	r3, [sp, #12]
    1216:	2380      	movs	r3, #128	@ 0x80
    1218:	031b      	lsls	r3, r3, #12
    121a:	9302      	str	r3, [sp, #8]
    121c:	e7a6      	b.n	116c <__aeabi_ddiv+0x420>
    121e:	9b06      	ldr	r3, [sp, #24]
    1220:	0014      	movs	r4, r2
    1222:	9303      	str	r3, [sp, #12]
    1224:	9502      	str	r5, [sp, #8]
    1226:	e7a1      	b.n	116c <__aeabi_ddiv+0x420>
    1228:	9b05      	ldr	r3, [sp, #20]
    122a:	9303      	str	r3, [sp, #12]
    122c:	e79e      	b.n	116c <__aeabi_ddiv+0x420>
    122e:	2300      	movs	r3, #0
    1230:	001c      	movs	r4, r3
    1232:	001a      	movs	r2, r3
    1234:	e783      	b.n	113e <__aeabi_ddiv+0x3f2>
    1236:	2400      	movs	r4, #0
    1238:	0023      	movs	r3, r4
    123a:	e65b      	b.n	ef4 <__aeabi_ddiv+0x1a8>
    123c:	2300      	movs	r3, #0
    123e:	2201      	movs	r2, #1
    1240:	001c      	movs	r4, r3
    1242:	e77c      	b.n	113e <__aeabi_ddiv+0x3f2>
    1244:	000003ff 	.word	0x000003ff
    1248:	feffffff 	.word	0xfeffffff
    124c:	000007fe 	.word	0x000007fe
    1250:	0000041e 	.word	0x0000041e
    1254:	0000043e 	.word	0x0000043e

00001258 <__aeabi_i2d>:
    1258:	b570      	push	{r4, r5, r6, lr}
    125a:	0003      	movs	r3, r0
    125c:	0004      	movs	r4, r0
    125e:	0002      	movs	r2, r0
    1260:	1e05      	subs	r5, r0, #0
    1262:	d011      	beq.n	1288 <__aeabi_i2d+0x30>
    1264:	17c2      	asrs	r2, r0, #31
    1266:	1885      	adds	r5, r0, r2
    1268:	4055      	eors	r5, r2
    126a:	0fc4      	lsrs	r4, r0, #31
    126c:	0028      	movs	r0, r5
    126e:	f7fe ff79 	bl	164 <__clzsi2>
    1272:	4b0c      	ldr	r3, [pc, #48]	@ (12a4 <__aeabi_i2d+0x4c>)
    1274:	1a1b      	subs	r3, r3, r0
    1276:	280a      	cmp	r0, #10
    1278:	dc0f      	bgt.n	129a <__aeabi_i2d+0x42>
    127a:	220b      	movs	r2, #11
    127c:	0029      	movs	r1, r5
    127e:	1a12      	subs	r2, r2, r0
    1280:	40d1      	lsrs	r1, r2
    1282:	3015      	adds	r0, #21
    1284:	000a      	movs	r2, r1
    1286:	4085      	lsls	r5, r0
    1288:	0312      	lsls	r2, r2, #12
    128a:	0b12      	lsrs	r2, r2, #12
    128c:	051b      	lsls	r3, r3, #20
    128e:	4313      	orrs	r3, r2
    1290:	07e4      	lsls	r4, r4, #31
    1292:	4323      	orrs	r3, r4
    1294:	0028      	movs	r0, r5
    1296:	0019      	movs	r1, r3
    1298:	bd70      	pop	{r4, r5, r6, pc}
    129a:	002a      	movs	r2, r5
    129c:	380b      	subs	r0, #11
    129e:	4082      	lsls	r2, r0
    12a0:	2500      	movs	r5, #0
    12a2:	e7f1      	b.n	1288 <__aeabi_i2d+0x30>
    12a4:	0000041e 	.word	0x0000041e

000012a8 <printf>:
    12a8:	b40f      	push	{r0, r1, r2, r3}
    12aa:	b500      	push	{lr}
    12ac:	4906      	ldr	r1, [pc, #24]	@ (12c8 <printf+0x20>)
    12ae:	b083      	sub	sp, #12
    12b0:	ab04      	add	r3, sp, #16
    12b2:	6808      	ldr	r0, [r1, #0]
    12b4:	cb04      	ldmia	r3!, {r2}
    12b6:	6881      	ldr	r1, [r0, #8]
    12b8:	9301      	str	r3, [sp, #4]
    12ba:	f000 fe67 	bl	1f8c <_vfprintf_r>
    12be:	b003      	add	sp, #12
    12c0:	bc08      	pop	{r3}
    12c2:	b004      	add	sp, #16
    12c4:	4718      	bx	r3
    12c6:	46c0      	nop			@ (mov r8, r8)
    12c8:	20000000 	.word	0x20000000

000012cc <setbuf>:
    12cc:	b510      	push	{r4, lr}
    12ce:	b082      	sub	sp, #8
    12d0:	424a      	negs	r2, r1
    12d2:	414a      	adcs	r2, r1
    12d4:	2380      	movs	r3, #128	@ 0x80
    12d6:	0052      	lsls	r2, r2, #1
    12d8:	00db      	lsls	r3, r3, #3
    12da:	f000 f803 	bl	12e4 <setvbuf>
    12de:	b002      	add	sp, #8
    12e0:	bd10      	pop	{r4, pc}
    12e2:	46c0      	nop			@ (mov r8, r8)

000012e4 <setvbuf>:
    12e4:	b5f0      	push	{r4, r5, r6, r7, lr}
    12e6:	46c6      	mov	lr, r8
    12e8:	b500      	push	{lr}
    12ea:	001d      	movs	r5, r3
    12ec:	4b65      	ldr	r3, [pc, #404]	@ (1484 <setvbuf+0x1a0>)
    12ee:	0004      	movs	r4, r0
    12f0:	681b      	ldr	r3, [r3, #0]
    12f2:	000e      	movs	r6, r1
    12f4:	0017      	movs	r7, r2
    12f6:	4698      	mov	r8, r3
    12f8:	b082      	sub	sp, #8
    12fa:	2b00      	cmp	r3, #0
    12fc:	d003      	beq.n	1306 <setvbuf+0x22>
    12fe:	6b5b      	ldr	r3, [r3, #52]	@ 0x34
    1300:	2b00      	cmp	r3, #0
    1302:	d100      	bne.n	1306 <setvbuf+0x22>
    1304:	e0a8      	b.n	1458 <setvbuf+0x174>
    1306:	2f02      	cmp	r7, #2
    1308:	d005      	beq.n	1316 <setvbuf+0x32>
    130a:	2f01      	cmp	r7, #1
    130c:	d900      	bls.n	1310 <setvbuf+0x2c>
    130e:	e0a7      	b.n	1460 <setvbuf+0x17c>
    1310:	2d00      	cmp	r5, #0
    1312:	da00      	bge.n	1316 <setvbuf+0x32>
    1314:	e0a4      	b.n	1460 <setvbuf+0x17c>
    1316:	6e63      	ldr	r3, [r4, #100]	@ 0x64
    1318:	07db      	lsls	r3, r3, #31
    131a:	d548      	bpl.n	13ae <setvbuf+0xca>
    131c:	0021      	movs	r1, r4
    131e:	4640      	mov	r0, r8
    1320:	f003 f90a 	bl	4538 <_fflush_r>
    1324:	6b21      	ldr	r1, [r4, #48]	@ 0x30
    1326:	2900      	cmp	r1, #0
    1328:	d008      	beq.n	133c <setvbuf+0x58>
    132a:	0023      	movs	r3, r4
    132c:	3340      	adds	r3, #64	@ 0x40
    132e:	4299      	cmp	r1, r3
    1330:	d002      	beq.n	1338 <setvbuf+0x54>
    1332:	4640      	mov	r0, r8
    1334:	f000 fa32 	bl	179c <_free_r>
    1338:	2300      	movs	r3, #0
    133a:	6323      	str	r3, [r4, #48]	@ 0x30
    133c:	2300      	movs	r3, #0
    133e:	61a3      	str	r3, [r4, #24]
    1340:	6063      	str	r3, [r4, #4]
    1342:	220c      	movs	r2, #12
    1344:	5ea3      	ldrsh	r3, [r4, r2]
    1346:	061a      	lsls	r2, r3, #24
    1348:	d45f      	bmi.n	140a <setvbuf+0x126>
    134a:	4a4f      	ldr	r2, [pc, #316]	@ (1488 <setvbuf+0x1a4>)
    134c:	4013      	ands	r3, r2
    134e:	81a3      	strh	r3, [r4, #12]
    1350:	2f02      	cmp	r7, #2
    1352:	d065      	beq.n	1420 <setvbuf+0x13c>
    1354:	ab01      	add	r3, sp, #4
    1356:	466a      	mov	r2, sp
    1358:	0021      	movs	r1, r4
    135a:	4640      	mov	r0, r8
    135c:	f003 fc04 	bl	4b68 <__swhatbuf_r>
    1360:	89a3      	ldrh	r3, [r4, #12]
    1362:	4303      	orrs	r3, r0
    1364:	81a3      	strh	r3, [r4, #12]
    1366:	2d00      	cmp	r5, #0
    1368:	d028      	beq.n	13bc <setvbuf+0xd8>
    136a:	2e00      	cmp	r6, #0
    136c:	d027      	beq.n	13be <setvbuf+0xda>
    136e:	4643      	mov	r3, r8
    1370:	6b5b      	ldr	r3, [r3, #52]	@ 0x34
    1372:	2b00      	cmp	r3, #0
    1374:	d030      	beq.n	13d8 <setvbuf+0xf4>
    1376:	220c      	movs	r2, #12
    1378:	5ea3      	ldrsh	r3, [r4, r2]
    137a:	9a00      	ldr	r2, [sp, #0]
    137c:	42aa      	cmp	r2, r5
    137e:	d003      	beq.n	1388 <setvbuf+0xa4>
    1380:	2280      	movs	r2, #128	@ 0x80
    1382:	0112      	lsls	r2, r2, #4
    1384:	4313      	orrs	r3, r2
    1386:	81a3      	strh	r3, [r4, #12]
    1388:	2f01      	cmp	r7, #1
    138a:	d029      	beq.n	13e0 <setvbuf+0xfc>
    138c:	6026      	str	r6, [r4, #0]
    138e:	6126      	str	r6, [r4, #16]
    1390:	6165      	str	r5, [r4, #20]
    1392:	071a      	lsls	r2, r3, #28
    1394:	d52e      	bpl.n	13f4 <setvbuf+0x110>
    1396:	07da      	lsls	r2, r3, #31
    1398:	d457      	bmi.n	144a <setvbuf+0x166>
    139a:	6e62      	ldr	r2, [r4, #100]	@ 0x64
    139c:	60a5      	str	r5, [r4, #8]
    139e:	07d2      	lsls	r2, r2, #31
    13a0:	d52d      	bpl.n	13fe <setvbuf+0x11a>
    13a2:	2500      	movs	r5, #0
    13a4:	0028      	movs	r0, r5
    13a6:	b002      	add	sp, #8
    13a8:	bc80      	pop	{r7}
    13aa:	46b8      	mov	r8, r7
    13ac:	bdf0      	pop	{r4, r5, r6, r7, pc}
    13ae:	89a3      	ldrh	r3, [r4, #12]
    13b0:	059b      	lsls	r3, r3, #22
    13b2:	d4b3      	bmi.n	131c <setvbuf+0x38>
    13b4:	6da0      	ldr	r0, [r4, #88]	@ 0x58
    13b6:	f000 f90f 	bl	15d8 <__retarget_lock_acquire_recursive>
    13ba:	e7af      	b.n	131c <setvbuf+0x38>
    13bc:	9d00      	ldr	r5, [sp, #0]
    13be:	0028      	movs	r0, r5
    13c0:	f000 fae4 	bl	198c <malloc>
    13c4:	1e06      	subs	r6, r0, #0
    13c6:	d04e      	beq.n	1466 <setvbuf+0x182>
    13c8:	2280      	movs	r2, #128	@ 0x80
    13ca:	89a3      	ldrh	r3, [r4, #12]
    13cc:	4313      	orrs	r3, r2
    13ce:	81a3      	strh	r3, [r4, #12]
    13d0:	4643      	mov	r3, r8
    13d2:	6b5b      	ldr	r3, [r3, #52]	@ 0x34
    13d4:	2b00      	cmp	r3, #0
    13d6:	d1ce      	bne.n	1376 <setvbuf+0x92>
    13d8:	4640      	mov	r0, r8
    13da:	f003 f999 	bl	4710 <__sinit>
    13de:	e7ca      	b.n	1376 <setvbuf+0x92>
    13e0:	2201      	movs	r2, #1
    13e2:	431a      	orrs	r2, r3
    13e4:	b212      	sxth	r2, r2
    13e6:	81a2      	strh	r2, [r4, #12]
    13e8:	6026      	str	r6, [r4, #0]
    13ea:	6126      	str	r6, [r4, #16]
    13ec:	6165      	str	r5, [r4, #20]
    13ee:	071b      	lsls	r3, r3, #28
    13f0:	d42c      	bmi.n	144c <setvbuf+0x168>
    13f2:	0013      	movs	r3, r2
    13f4:	2200      	movs	r2, #0
    13f6:	60a2      	str	r2, [r4, #8]
    13f8:	6e62      	ldr	r2, [r4, #100]	@ 0x64
    13fa:	07d2      	lsls	r2, r2, #31
    13fc:	d4d1      	bmi.n	13a2 <setvbuf+0xbe>
    13fe:	059b      	lsls	r3, r3, #22
    1400:	d4cf      	bmi.n	13a2 <setvbuf+0xbe>
    1402:	6da0      	ldr	r0, [r4, #88]	@ 0x58
    1404:	f000 f8ea 	bl	15dc <__retarget_lock_release_recursive>
    1408:	e7cb      	b.n	13a2 <setvbuf+0xbe>
    140a:	4640      	mov	r0, r8
    140c:	6921      	ldr	r1, [r4, #16]
    140e:	f000 f9c5 	bl	179c <_free_r>
    1412:	220c      	movs	r2, #12
    1414:	5ea3      	ldrsh	r3, [r4, r2]
    1416:	4a1c      	ldr	r2, [pc, #112]	@ (1488 <setvbuf+0x1a4>)
    1418:	4013      	ands	r3, r2
    141a:	81a3      	strh	r3, [r4, #12]
    141c:	2f02      	cmp	r7, #2
    141e:	d199      	bne.n	1354 <setvbuf+0x70>
    1420:	2500      	movs	r5, #0
    1422:	2202      	movs	r2, #2
    1424:	431a      	orrs	r2, r3
    1426:	81a2      	strh	r2, [r4, #12]
    1428:	2200      	movs	r2, #0
    142a:	60a2      	str	r2, [r4, #8]
    142c:	0022      	movs	r2, r4
    142e:	3243      	adds	r2, #67	@ 0x43
    1430:	6022      	str	r2, [r4, #0]
    1432:	6122      	str	r2, [r4, #16]
    1434:	2201      	movs	r2, #1
    1436:	6e61      	ldr	r1, [r4, #100]	@ 0x64
    1438:	6162      	str	r2, [r4, #20]
    143a:	4211      	tst	r1, r2
    143c:	d1b2      	bne.n	13a4 <setvbuf+0xc0>
    143e:	059b      	lsls	r3, r3, #22
    1440:	d4b0      	bmi.n	13a4 <setvbuf+0xc0>
    1442:	6da0      	ldr	r0, [r4, #88]	@ 0x58
    1444:	f000 f8ca 	bl	15dc <__retarget_lock_release_recursive>
    1448:	e7ac      	b.n	13a4 <setvbuf+0xc0>
    144a:	001a      	movs	r2, r3
    144c:	2300      	movs	r3, #0
    144e:	426d      	negs	r5, r5
    1450:	60a3      	str	r3, [r4, #8]
    1452:	61a5      	str	r5, [r4, #24]
    1454:	0013      	movs	r3, r2
    1456:	e7cf      	b.n	13f8 <setvbuf+0x114>
    1458:	4640      	mov	r0, r8
    145a:	f003 f959 	bl	4710 <__sinit>
    145e:	e752      	b.n	1306 <setvbuf+0x22>
    1460:	2501      	movs	r5, #1
    1462:	426d      	negs	r5, r5
    1464:	e79e      	b.n	13a4 <setvbuf+0xc0>
    1466:	9b00      	ldr	r3, [sp, #0]
    1468:	42ab      	cmp	r3, r5
    146a:	d005      	beq.n	1478 <setvbuf+0x194>
    146c:	0018      	movs	r0, r3
    146e:	001d      	movs	r5, r3
    1470:	f000 fa8c 	bl	198c <malloc>
    1474:	1e06      	subs	r6, r0, #0
    1476:	d1a7      	bne.n	13c8 <setvbuf+0xe4>
    1478:	2501      	movs	r5, #1
    147a:	220c      	movs	r2, #12
    147c:	5ea3      	ldrsh	r3, [r4, r2]
    147e:	426d      	negs	r5, r5
    1480:	e7cf      	b.n	1422 <setvbuf+0x13e>
    1482:	46c0      	nop			@ (mov r8, r8)
    1484:	20000000 	.word	0x20000000
    1488:	fffff35c 	.word	0xfffff35c

0000148c <memcmp>:
    148c:	b530      	push	{r4, r5, lr}
    148e:	2a03      	cmp	r2, #3
    1490:	d90c      	bls.n	14ac <memcmp+0x20>
    1492:	000b      	movs	r3, r1
    1494:	4303      	orrs	r3, r0
    1496:	079b      	lsls	r3, r3, #30
    1498:	d119      	bne.n	14ce <memcmp+0x42>
    149a:	6804      	ldr	r4, [r0, #0]
    149c:	680b      	ldr	r3, [r1, #0]
    149e:	429c      	cmp	r4, r3
    14a0:	d115      	bne.n	14ce <memcmp+0x42>
    14a2:	3a04      	subs	r2, #4
    14a4:	3004      	adds	r0, #4
    14a6:	3104      	adds	r1, #4
    14a8:	2a03      	cmp	r2, #3
    14aa:	d8f6      	bhi.n	149a <memcmp+0xe>
    14ac:	1e55      	subs	r5, r2, #1
    14ae:	2a00      	cmp	r2, #0
    14b0:	d00b      	beq.n	14ca <memcmp+0x3e>
    14b2:	2300      	movs	r3, #0
    14b4:	e003      	b.n	14be <memcmp+0x32>
    14b6:	1c5a      	adds	r2, r3, #1
    14b8:	429d      	cmp	r5, r3
    14ba:	d006      	beq.n	14ca <memcmp+0x3e>
    14bc:	0013      	movs	r3, r2
    14be:	5cc2      	ldrb	r2, [r0, r3]
    14c0:	5ccc      	ldrb	r4, [r1, r3]
    14c2:	42a2      	cmp	r2, r4
    14c4:	d0f7      	beq.n	14b6 <memcmp+0x2a>
    14c6:	1b10      	subs	r0, r2, r4
    14c8:	e000      	b.n	14cc <memcmp+0x40>
    14ca:	2000      	movs	r0, #0
    14cc:	bd30      	pop	{r4, r5, pc}
    14ce:	1e55      	subs	r5, r2, #1
    14d0:	e7ef      	b.n	14b2 <memcmp+0x26>
    14d2:	46c0      	nop			@ (mov r8, r8)

000014d4 <memset>:
    14d4:	b5f0      	push	{r4, r5, r6, r7, lr}
    14d6:	0783      	lsls	r3, r0, #30
    14d8:	d041      	beq.n	155e <memset+0x8a>
    14da:	0005      	movs	r5, r0
    14dc:	0004      	movs	r4, r0
    14de:	2703      	movs	r7, #3
    14e0:	1886      	adds	r6, r0, r2
    14e2:	e004      	b.n	14ee <memset+0x1a>
    14e4:	7029      	strb	r1, [r5, #0]
    14e6:	3501      	adds	r5, #1
    14e8:	423b      	tst	r3, r7
    14ea:	d004      	beq.n	14f6 <memset+0x22>
    14ec:	001c      	movs	r4, r3
    14ee:	1c63      	adds	r3, r4, #1
    14f0:	42b4      	cmp	r4, r6
    14f2:	d1f7      	bne.n	14e4 <memset+0x10>
    14f4:	bdf0      	pop	{r4, r5, r6, r7, pc}
    14f6:	3a01      	subs	r2, #1
    14f8:	1882      	adds	r2, r0, r2
    14fa:	1b12      	subs	r2, r2, r4
    14fc:	2a03      	cmp	r2, #3
    14fe:	d925      	bls.n	154c <memset+0x78>
    1500:	24ff      	movs	r4, #255	@ 0xff
    1502:	400c      	ands	r4, r1
    1504:	0225      	lsls	r5, r4, #8
    1506:	192d      	adds	r5, r5, r4
    1508:	042c      	lsls	r4, r5, #16
    150a:	192d      	adds	r5, r5, r4
    150c:	2a0f      	cmp	r2, #15
    150e:	d928      	bls.n	1562 <memset+0x8e>
    1510:	001c      	movs	r4, r3
    1512:	0013      	movs	r3, r2
    1514:	0026      	movs	r6, r4
    1516:	3b10      	subs	r3, #16
    1518:	091b      	lsrs	r3, r3, #4
    151a:	011b      	lsls	r3, r3, #4
    151c:	3610      	adds	r6, #16
    151e:	199b      	adds	r3, r3, r6
    1520:	6025      	str	r5, [r4, #0]
    1522:	6065      	str	r5, [r4, #4]
    1524:	60a5      	str	r5, [r4, #8]
    1526:	60e5      	str	r5, [r4, #12]
    1528:	3410      	adds	r4, #16
    152a:	42a3      	cmp	r3, r4
    152c:	d1f8      	bne.n	1520 <memset+0x4c>
    152e:	240f      	movs	r4, #15
    1530:	260c      	movs	r6, #12
    1532:	4014      	ands	r4, r2
    1534:	4016      	ands	r6, r2
    1536:	0022      	movs	r2, r4
    1538:	2e00      	cmp	r6, #0
    153a:	d007      	beq.n	154c <memset+0x78>
    153c:	08a2      	lsrs	r2, r4, #2
    153e:	0092      	lsls	r2, r2, #2
    1540:	18d2      	adds	r2, r2, r3
    1542:	c320      	stmia	r3!, {r5}
    1544:	4293      	cmp	r3, r2
    1546:	d1fc      	bne.n	1542 <memset+0x6e>
    1548:	2203      	movs	r2, #3
    154a:	4022      	ands	r2, r4
    154c:	2a00      	cmp	r2, #0
    154e:	d0d1      	beq.n	14f4 <memset+0x20>
    1550:	b2c9      	uxtb	r1, r1
    1552:	189a      	adds	r2, r3, r2
    1554:	7019      	strb	r1, [r3, #0]
    1556:	3301      	adds	r3, #1
    1558:	429a      	cmp	r2, r3
    155a:	d1fb      	bne.n	1554 <memset+0x80>
    155c:	e7ca      	b.n	14f4 <memset+0x20>
    155e:	0003      	movs	r3, r0
    1560:	e7cc      	b.n	14fc <memset+0x28>
    1562:	0014      	movs	r4, r2
    1564:	e7ea      	b.n	153c <memset+0x68>
    1566:	46c0      	nop			@ (mov r8, r8)

00001568 <strncmp>:
    1568:	b530      	push	{r4, r5, lr}
    156a:	2a00      	cmp	r2, #0
    156c:	d027      	beq.n	15be <strncmp+0x56>
    156e:	0003      	movs	r3, r0
    1570:	430b      	orrs	r3, r1
    1572:	079b      	lsls	r3, r3, #30
    1574:	d113      	bne.n	159e <strncmp+0x36>
    1576:	2a03      	cmp	r2, #3
    1578:	d911      	bls.n	159e <strncmp+0x36>
    157a:	4d13      	ldr	r5, [pc, #76]	@ (15c8 <strncmp+0x60>)
    157c:	e00b      	b.n	1596 <strncmp+0x2e>
    157e:	3a04      	subs	r2, #4
    1580:	2a00      	cmp	r2, #0
    1582:	d01c      	beq.n	15be <strncmp+0x56>
    1584:	4c11      	ldr	r4, [pc, #68]	@ (15cc <strncmp+0x64>)
    1586:	191c      	adds	r4, r3, r4
    1588:	439c      	bics	r4, r3
    158a:	422c      	tst	r4, r5
    158c:	d117      	bne.n	15be <strncmp+0x56>
    158e:	3004      	adds	r0, #4
    1590:	3104      	adds	r1, #4
    1592:	2a03      	cmp	r2, #3
    1594:	d903      	bls.n	159e <strncmp+0x36>
    1596:	6803      	ldr	r3, [r0, #0]
    1598:	680c      	ldr	r4, [r1, #0]
    159a:	42a3      	cmp	r3, r4
    159c:	d0ef      	beq.n	157e <strncmp+0x16>
    159e:	780d      	ldrb	r5, [r1, #0]
    15a0:	7804      	ldrb	r4, [r0, #0]
    15a2:	2301      	movs	r3, #1
    15a4:	3901      	subs	r1, #1
    15a6:	42ac      	cmp	r4, r5
    15a8:	d007      	beq.n	15ba <strncmp+0x52>
    15aa:	e00a      	b.n	15c2 <strncmp+0x5a>
    15ac:	2c00      	cmp	r4, #0
    15ae:	d006      	beq.n	15be <strncmp+0x56>
    15b0:	5cc4      	ldrb	r4, [r0, r3]
    15b2:	3301      	adds	r3, #1
    15b4:	5ccd      	ldrb	r5, [r1, r3]
    15b6:	42ac      	cmp	r4, r5
    15b8:	d103      	bne.n	15c2 <strncmp+0x5a>
    15ba:	429a      	cmp	r2, r3
    15bc:	d1f6      	bne.n	15ac <strncmp+0x44>
    15be:	2000      	movs	r0, #0
    15c0:	bd30      	pop	{r4, r5, pc}
    15c2:	1b60      	subs	r0, r4, r5
    15c4:	e7fc      	b.n	15c0 <strncmp+0x58>
    15c6:	46c0      	nop			@ (mov r8, r8)
    15c8:	80808080 	.word	0x80808080
    15cc:	fefefeff 	.word	0xfefefeff

000015d0 <__retarget_lock_init_recursive>:
    15d0:	4770      	bx	lr
    15d2:	46c0      	nop			@ (mov r8, r8)

000015d4 <__retarget_lock_close_recursive>:
    15d4:	4770      	bx	lr
    15d6:	46c0      	nop			@ (mov r8, r8)

000015d8 <__retarget_lock_acquire_recursive>:
    15d8:	4770      	bx	lr
    15da:	46c0      	nop			@ (mov r8, r8)

000015dc <__retarget_lock_release_recursive>:
    15dc:	4770      	bx	lr
    15de:	46c0      	nop			@ (mov r8, r8)

000015e0 <memcpy>:
    15e0:	b5f0      	push	{r4, r5, r6, r7, lr}
    15e2:	46ce      	mov	lr, r9
    15e4:	4647      	mov	r7, r8
    15e6:	b580      	push	{r7, lr}
    15e8:	2a0f      	cmp	r2, #15
    15ea:	d80e      	bhi.n	160a <memcpy+0x2a>
    15ec:	0005      	movs	r5, r0
    15ee:	1e56      	subs	r6, r2, #1
    15f0:	2a00      	cmp	r2, #0
    15f2:	d006      	beq.n	1602 <memcpy+0x22>
    15f4:	2300      	movs	r3, #0
    15f6:	5ccc      	ldrb	r4, [r1, r3]
    15f8:	001a      	movs	r2, r3
    15fa:	54ec      	strb	r4, [r5, r3]
    15fc:	3301      	adds	r3, #1
    15fe:	4296      	cmp	r6, r2
    1600:	d1f9      	bne.n	15f6 <memcpy+0x16>
    1602:	bcc0      	pop	{r6, r7}
    1604:	46b9      	mov	r9, r7
    1606:	46b0      	mov	r8, r6
    1608:	bdf0      	pop	{r4, r5, r6, r7, pc}
    160a:	0003      	movs	r3, r0
    160c:	430b      	orrs	r3, r1
    160e:	4688      	mov	r8, r1
    1610:	079b      	lsls	r3, r3, #30
    1612:	d134      	bne.n	167e <memcpy+0x9e>
    1614:	2610      	movs	r6, #16
    1616:	0017      	movs	r7, r2
    1618:	46b1      	mov	r9, r6
    161a:	000c      	movs	r4, r1
    161c:	0003      	movs	r3, r0
    161e:	3f10      	subs	r7, #16
    1620:	093f      	lsrs	r7, r7, #4
    1622:	013f      	lsls	r7, r7, #4
    1624:	19c5      	adds	r5, r0, r7
    1626:	44a9      	add	r9, r5
    1628:	6866      	ldr	r6, [r4, #4]
    162a:	605e      	str	r6, [r3, #4]
    162c:	68a6      	ldr	r6, [r4, #8]
    162e:	609e      	str	r6, [r3, #8]
    1630:	68e6      	ldr	r6, [r4, #12]
    1632:	60de      	str	r6, [r3, #12]
    1634:	6826      	ldr	r6, [r4, #0]
    1636:	3410      	adds	r4, #16
    1638:	601e      	str	r6, [r3, #0]
    163a:	001e      	movs	r6, r3
    163c:	3310      	adds	r3, #16
    163e:	42ae      	cmp	r6, r5
    1640:	d1f2      	bne.n	1628 <memcpy+0x48>
    1642:	19cf      	adds	r7, r1, r7
    1644:	0039      	movs	r1, r7
    1646:	230f      	movs	r3, #15
    1648:	260c      	movs	r6, #12
    164a:	3110      	adds	r1, #16
    164c:	468c      	mov	ip, r1
    164e:	4013      	ands	r3, r2
    1650:	4216      	tst	r6, r2
    1652:	d017      	beq.n	1684 <memcpy+0xa4>
    1654:	4644      	mov	r4, r8
    1656:	3b04      	subs	r3, #4
    1658:	089b      	lsrs	r3, r3, #2
    165a:	009b      	lsls	r3, r3, #2
    165c:	18ff      	adds	r7, r7, r3
    165e:	3714      	adds	r7, #20
    1660:	1b06      	subs	r6, r0, r4
    1662:	680c      	ldr	r4, [r1, #0]
    1664:	198d      	adds	r5, r1, r6
    1666:	3104      	adds	r1, #4
    1668:	602c      	str	r4, [r5, #0]
    166a:	42b9      	cmp	r1, r7
    166c:	d1f9      	bne.n	1662 <memcpy+0x82>
    166e:	4661      	mov	r1, ip
    1670:	3304      	adds	r3, #4
    1672:	1859      	adds	r1, r3, r1
    1674:	444b      	add	r3, r9
    1676:	001d      	movs	r5, r3
    1678:	2303      	movs	r3, #3
    167a:	401a      	ands	r2, r3
    167c:	e7b7      	b.n	15ee <memcpy+0xe>
    167e:	0005      	movs	r5, r0
    1680:	1e56      	subs	r6, r2, #1
    1682:	e7b7      	b.n	15f4 <memcpy+0x14>
    1684:	464d      	mov	r5, r9
    1686:	001a      	movs	r2, r3
    1688:	e7b1      	b.n	15ee <memcpy+0xe>
    168a:	46c0      	nop			@ (mov r8, r8)

0000168c <strlen>:
    168c:	b510      	push	{r4, lr}
    168e:	0783      	lsls	r3, r0, #30
    1690:	d00a      	beq.n	16a8 <strlen+0x1c>
    1692:	0003      	movs	r3, r0
    1694:	2103      	movs	r1, #3
    1696:	e002      	b.n	169e <strlen+0x12>
    1698:	3301      	adds	r3, #1
    169a:	420b      	tst	r3, r1
    169c:	d005      	beq.n	16aa <strlen+0x1e>
    169e:	781a      	ldrb	r2, [r3, #0]
    16a0:	2a00      	cmp	r2, #0
    16a2:	d1f9      	bne.n	1698 <strlen+0xc>
    16a4:	1a18      	subs	r0, r3, r0
    16a6:	bd10      	pop	{r4, pc}
    16a8:	0003      	movs	r3, r0
    16aa:	6819      	ldr	r1, [r3, #0]
    16ac:	4a0c      	ldr	r2, [pc, #48]	@ (16e0 <strlen+0x54>)
    16ae:	4c0d      	ldr	r4, [pc, #52]	@ (16e4 <strlen+0x58>)
    16b0:	188a      	adds	r2, r1, r2
    16b2:	438a      	bics	r2, r1
    16b4:	4222      	tst	r2, r4
    16b6:	d10f      	bne.n	16d8 <strlen+0x4c>
    16b8:	6859      	ldr	r1, [r3, #4]
    16ba:	4a09      	ldr	r2, [pc, #36]	@ (16e0 <strlen+0x54>)
    16bc:	3304      	adds	r3, #4
    16be:	188a      	adds	r2, r1, r2
    16c0:	438a      	bics	r2, r1
    16c2:	4222      	tst	r2, r4
    16c4:	d108      	bne.n	16d8 <strlen+0x4c>
    16c6:	6859      	ldr	r1, [r3, #4]
    16c8:	4a05      	ldr	r2, [pc, #20]	@ (16e0 <strlen+0x54>)
    16ca:	3304      	adds	r3, #4
    16cc:	188a      	adds	r2, r1, r2
    16ce:	438a      	bics	r2, r1
    16d0:	4222      	tst	r2, r4
    16d2:	d0f1      	beq.n	16b8 <strlen+0x2c>
    16d4:	e000      	b.n	16d8 <strlen+0x4c>
    16d6:	3301      	adds	r3, #1
    16d8:	781a      	ldrb	r2, [r3, #0]
    16da:	2a00      	cmp	r2, #0
    16dc:	d1fb      	bne.n	16d6 <strlen+0x4a>
    16de:	e7e1      	b.n	16a4 <strlen+0x18>
    16e0:	fefefeff 	.word	0xfefefeff
    16e4:	80808080 	.word	0x80808080

000016e8 <_malloc_trim_r>:
    16e8:	b5f0      	push	{r4, r5, r6, r7, lr}
    16ea:	46c6      	mov	lr, r8
    16ec:	0006      	movs	r6, r0
    16ee:	b500      	push	{lr}
    16f0:	2008      	movs	r0, #8
    16f2:	000d      	movs	r5, r1
    16f4:	f003 fc4e 	bl	4f94 <sysconf>
    16f8:	0004      	movs	r4, r0
    16fa:	0030      	movs	r0, r6
    16fc:	f000 fc36 	bl	1f6c <__malloc_lock>
    1700:	4b23      	ldr	r3, [pc, #140]	@ (1790 <_malloc_trim_r+0xa8>)
    1702:	0021      	movs	r1, r4
    1704:	4698      	mov	r8, r3
    1706:	689b      	ldr	r3, [r3, #8]
    1708:	685f      	ldr	r7, [r3, #4]
    170a:	2303      	movs	r3, #3
    170c:	439f      	bics	r7, r3
    170e:	0038      	movs	r0, r7
    1710:	3811      	subs	r0, #17
    1712:	1b40      	subs	r0, r0, r5
    1714:	1900      	adds	r0, r0, r4
    1716:	f7fe fcdd 	bl	d4 <__udivsi3>
    171a:	1e45      	subs	r5, r0, #1
    171c:	4365      	muls	r5, r4
    171e:	42ac      	cmp	r4, r5
    1720:	dc08      	bgt.n	1734 <_malloc_trim_r+0x4c>
    1722:	2100      	movs	r1, #0
    1724:	0030      	movs	r0, r6
    1726:	f003 fc0f 	bl	4f48 <_sbrk_r>
    172a:	4643      	mov	r3, r8
    172c:	689b      	ldr	r3, [r3, #8]
    172e:	19db      	adds	r3, r3, r7
    1730:	4298      	cmp	r0, r3
    1732:	d006      	beq.n	1742 <_malloc_trim_r+0x5a>
    1734:	0030      	movs	r0, r6
    1736:	f000 fc21 	bl	1f7c <__malloc_unlock>
    173a:	2000      	movs	r0, #0
    173c:	bc80      	pop	{r7}
    173e:	46b8      	mov	r8, r7
    1740:	bdf0      	pop	{r4, r5, r6, r7, pc}
    1742:	0030      	movs	r0, r6
    1744:	4269      	negs	r1, r5
    1746:	f003 fbff 	bl	4f48 <_sbrk_r>
    174a:	3001      	adds	r0, #1
    174c:	d00e      	beq.n	176c <_malloc_trim_r+0x84>
    174e:	2201      	movs	r2, #1
    1750:	4643      	mov	r3, r8
    1752:	1b7f      	subs	r7, r7, r5
    1754:	689b      	ldr	r3, [r3, #8]
    1756:	4317      	orrs	r7, r2
    1758:	4a0e      	ldr	r2, [pc, #56]	@ (1794 <_malloc_trim_r+0xac>)
    175a:	605f      	str	r7, [r3, #4]
    175c:	6813      	ldr	r3, [r2, #0]
    175e:	0030      	movs	r0, r6
    1760:	1b5b      	subs	r3, r3, r5
    1762:	6013      	str	r3, [r2, #0]
    1764:	f000 fc0a 	bl	1f7c <__malloc_unlock>
    1768:	2001      	movs	r0, #1
    176a:	e7e7      	b.n	173c <_malloc_trim_r+0x54>
    176c:	2100      	movs	r1, #0
    176e:	0030      	movs	r0, r6
    1770:	f003 fbea 	bl	4f48 <_sbrk_r>
    1774:	4643      	mov	r3, r8
    1776:	689a      	ldr	r2, [r3, #8]
    1778:	1a83      	subs	r3, r0, r2
    177a:	2b0f      	cmp	r3, #15
    177c:	ddda      	ble.n	1734 <_malloc_trim_r+0x4c>
    177e:	4c06      	ldr	r4, [pc, #24]	@ (1798 <_malloc_trim_r+0xb0>)
    1780:	4904      	ldr	r1, [pc, #16]	@ (1794 <_malloc_trim_r+0xac>)
    1782:	6824      	ldr	r4, [r4, #0]
    1784:	1b00      	subs	r0, r0, r4
    1786:	6008      	str	r0, [r1, #0]
    1788:	2101      	movs	r1, #1
    178a:	430b      	orrs	r3, r1
    178c:	6053      	str	r3, [r2, #4]
    178e:	e7d1      	b.n	1734 <_malloc_trim_r+0x4c>
    1790:	20000150 	.word	0x20000150
    1794:	20004400 	.word	0x20004400
    1798:	20000148 	.word	0x20000148

0000179c <_free_r>:
    179c:	b5f0      	push	{r4, r5, r6, r7, lr}
    179e:	46d6      	mov	lr, sl
    17a0:	464f      	mov	r7, r9
    17a2:	4646      	mov	r6, r8
    17a4:	0005      	movs	r5, r0
    17a6:	000c      	movs	r4, r1
    17a8:	b5c0      	push	{r6, r7, lr}
    17aa:	2900      	cmp	r1, #0
    17ac:	d048      	beq.n	1840 <_free_r+0xa4>
    17ae:	f000 fbdd 	bl	1f6c <__malloc_lock>
    17b2:	0021      	movs	r1, r4
    17b4:	2701      	movs	r7, #1
    17b6:	3908      	subs	r1, #8
    17b8:	684b      	ldr	r3, [r1, #4]
    17ba:	2003      	movs	r0, #3
    17bc:	469c      	mov	ip, r3
    17be:	43bb      	bics	r3, r7
    17c0:	18ce      	adds	r6, r1, r3
    17c2:	6872      	ldr	r2, [r6, #4]
    17c4:	4382      	bics	r2, r0
    17c6:	4660      	mov	r0, ip
    17c8:	4038      	ands	r0, r7
    17ca:	4680      	mov	r8, r0
    17cc:	486a      	ldr	r0, [pc, #424]	@ (1978 <_free_r+0x1dc>)
    17ce:	4691      	mov	r9, r2
    17d0:	6884      	ldr	r4, [r0, #8]
    17d2:	42b4      	cmp	r4, r6
    17d4:	d100      	bne.n	17d8 <_free_r+0x3c>
    17d6:	e07c      	b.n	18d2 <_free_r+0x136>
    17d8:	6072      	str	r2, [r6, #4]
    17da:	18b4      	adds	r4, r6, r2
    17dc:	6864      	ldr	r4, [r4, #4]
    17de:	403c      	ands	r4, r7
    17e0:	46a2      	mov	sl, r4
    17e2:	4644      	mov	r4, r8
    17e4:	2c00      	cmp	r4, #0
    17e6:	d130      	bne.n	184a <_free_r+0xae>
    17e8:	680c      	ldr	r4, [r1, #0]
    17ea:	46a4      	mov	ip, r4
    17ec:	1b09      	subs	r1, r1, r4
    17ee:	688c      	ldr	r4, [r1, #8]
    17f0:	4463      	add	r3, ip
    17f2:	46a4      	mov	ip, r4
    17f4:	2408      	movs	r4, #8
    17f6:	46a0      	mov	r8, r4
    17f8:	4480      	add	r8, r0
    17fa:	45c4      	cmp	ip, r8
    17fc:	d05c      	beq.n	18b8 <_free_r+0x11c>
    17fe:	68cc      	ldr	r4, [r1, #12]
    1800:	46a0      	mov	r8, r4
    1802:	4664      	mov	r4, ip
    1804:	4642      	mov	r2, r8
    1806:	60e2      	str	r2, [r4, #12]
    1808:	6094      	str	r4, [r2, #8]
    180a:	4652      	mov	r2, sl
    180c:	2a00      	cmp	r2, #0
    180e:	d01f      	beq.n	1850 <_free_r+0xb4>
    1810:	431f      	orrs	r7, r3
    1812:	604f      	str	r7, [r1, #4]
    1814:	6033      	str	r3, [r6, #0]
    1816:	2280      	movs	r2, #128	@ 0x80
    1818:	0092      	lsls	r2, r2, #2
    181a:	4293      	cmp	r3, r2
    181c:	d230      	bcs.n	1880 <_free_r+0xe4>
    181e:	08da      	lsrs	r2, r3, #3
    1820:	095c      	lsrs	r4, r3, #5
    1822:	2301      	movs	r3, #1
    1824:	40a3      	lsls	r3, r4
    1826:	6844      	ldr	r4, [r0, #4]
    1828:	4323      	orrs	r3, r4
    182a:	6043      	str	r3, [r0, #4]
    182c:	00d3      	lsls	r3, r2, #3
    182e:	181b      	adds	r3, r3, r0
    1830:	689a      	ldr	r2, [r3, #8]
    1832:	60cb      	str	r3, [r1, #12]
    1834:	608a      	str	r2, [r1, #8]
    1836:	6099      	str	r1, [r3, #8]
    1838:	60d1      	str	r1, [r2, #12]
    183a:	0028      	movs	r0, r5
    183c:	f000 fb9e 	bl	1f7c <__malloc_unlock>
    1840:	bce0      	pop	{r5, r6, r7}
    1842:	46ba      	mov	sl, r7
    1844:	46b1      	mov	r9, r6
    1846:	46a8      	mov	r8, r5
    1848:	bdf0      	pop	{r4, r5, r6, r7, pc}
    184a:	4652      	mov	r2, sl
    184c:	2a00      	cmp	r2, #0
    184e:	d10f      	bne.n	1870 <_free_r+0xd4>
    1850:	2201      	movs	r2, #1
    1852:	444b      	add	r3, r9
    1854:	18cf      	adds	r7, r1, r3
    1856:	46bc      	mov	ip, r7
    1858:	68b4      	ldr	r4, [r6, #8]
    185a:	4f48      	ldr	r7, [pc, #288]	@ (197c <_free_r+0x1e0>)
    185c:	431a      	orrs	r2, r3
    185e:	42bc      	cmp	r4, r7
    1860:	d05b      	beq.n	191a <_free_r+0x17e>
    1862:	68f6      	ldr	r6, [r6, #12]
    1864:	60e6      	str	r6, [r4, #12]
    1866:	60b4      	str	r4, [r6, #8]
    1868:	604a      	str	r2, [r1, #4]
    186a:	4662      	mov	r2, ip
    186c:	6013      	str	r3, [r2, #0]
    186e:	e7d2      	b.n	1816 <_free_r+0x7a>
    1870:	4662      	mov	r2, ip
    1872:	433a      	orrs	r2, r7
    1874:	604a      	str	r2, [r1, #4]
    1876:	2280      	movs	r2, #128	@ 0x80
    1878:	6033      	str	r3, [r6, #0]
    187a:	0092      	lsls	r2, r2, #2
    187c:	4293      	cmp	r3, r2
    187e:	d3ce      	bcc.n	181e <_free_r+0x82>
    1880:	0a5c      	lsrs	r4, r3, #9
    1882:	2c04      	cmp	r4, #4
    1884:	d83f      	bhi.n	1906 <_free_r+0x16a>
    1886:	099c      	lsrs	r4, r3, #6
    1888:	0026      	movs	r6, r4
    188a:	3439      	adds	r4, #57	@ 0x39
    188c:	3638      	adds	r6, #56	@ 0x38
    188e:	00e4      	lsls	r4, r4, #3
    1890:	1904      	adds	r4, r0, r4
    1892:	6822      	ldr	r2, [r4, #0]
    1894:	3c08      	subs	r4, #8
    1896:	2703      	movs	r7, #3
    1898:	4294      	cmp	r4, r2
    189a:	d103      	bne.n	18a4 <_free_r+0x108>
    189c:	e04e      	b.n	193c <_free_r+0x1a0>
    189e:	6892      	ldr	r2, [r2, #8]
    18a0:	4294      	cmp	r4, r2
    18a2:	d003      	beq.n	18ac <_free_r+0x110>
    18a4:	6850      	ldr	r0, [r2, #4]
    18a6:	43b8      	bics	r0, r7
    18a8:	4298      	cmp	r0, r3
    18aa:	d8f8      	bhi.n	189e <_free_r+0x102>
    18ac:	68d4      	ldr	r4, [r2, #12]
    18ae:	60cc      	str	r4, [r1, #12]
    18b0:	608a      	str	r2, [r1, #8]
    18b2:	60a1      	str	r1, [r4, #8]
    18b4:	60d1      	str	r1, [r2, #12]
    18b6:	e7c0      	b.n	183a <_free_r+0x9e>
    18b8:	4652      	mov	r2, sl
    18ba:	2a00      	cmp	r2, #0
    18bc:	d135      	bne.n	192a <_free_r+0x18e>
    18be:	444b      	add	r3, r9
    18c0:	001a      	movs	r2, r3
    18c2:	68b0      	ldr	r0, [r6, #8]
    18c4:	68f3      	ldr	r3, [r6, #12]
    18c6:	4317      	orrs	r7, r2
    18c8:	60c3      	str	r3, [r0, #12]
    18ca:	6098      	str	r0, [r3, #8]
    18cc:	604f      	str	r7, [r1, #4]
    18ce:	508a      	str	r2, [r1, r2]
    18d0:	e7b3      	b.n	183a <_free_r+0x9e>
    18d2:	444b      	add	r3, r9
    18d4:	001a      	movs	r2, r3
    18d6:	4643      	mov	r3, r8
    18d8:	2b00      	cmp	r3, #0
    18da:	d106      	bne.n	18ea <_free_r+0x14e>
    18dc:	680b      	ldr	r3, [r1, #0]
    18de:	1ac9      	subs	r1, r1, r3
    18e0:	688c      	ldr	r4, [r1, #8]
    18e2:	18d2      	adds	r2, r2, r3
    18e4:	68cb      	ldr	r3, [r1, #12]
    18e6:	60e3      	str	r3, [r4, #12]
    18e8:	609c      	str	r4, [r3, #8]
    18ea:	2301      	movs	r3, #1
    18ec:	4313      	orrs	r3, r2
    18ee:	604b      	str	r3, [r1, #4]
    18f0:	4b23      	ldr	r3, [pc, #140]	@ (1980 <_free_r+0x1e4>)
    18f2:	6081      	str	r1, [r0, #8]
    18f4:	681b      	ldr	r3, [r3, #0]
    18f6:	4293      	cmp	r3, r2
    18f8:	d89f      	bhi.n	183a <_free_r+0x9e>
    18fa:	4b22      	ldr	r3, [pc, #136]	@ (1984 <_free_r+0x1e8>)
    18fc:	0028      	movs	r0, r5
    18fe:	6819      	ldr	r1, [r3, #0]
    1900:	f7ff fef2 	bl	16e8 <_malloc_trim_r>
    1904:	e799      	b.n	183a <_free_r+0x9e>
    1906:	2c14      	cmp	r4, #20
    1908:	d913      	bls.n	1932 <_free_r+0x196>
    190a:	2c54      	cmp	r4, #84	@ 0x54
    190c:	d81d      	bhi.n	194a <_free_r+0x1ae>
    190e:	0b1c      	lsrs	r4, r3, #12
    1910:	0026      	movs	r6, r4
    1912:	346f      	adds	r4, #111	@ 0x6f
    1914:	366e      	adds	r6, #110	@ 0x6e
    1916:	00e4      	lsls	r4, r4, #3
    1918:	e7ba      	b.n	1890 <_free_r+0xf4>
    191a:	60e1      	str	r1, [r4, #12]
    191c:	60a1      	str	r1, [r4, #8]
    191e:	604a      	str	r2, [r1, #4]
    1920:	4662      	mov	r2, ip
    1922:	60cc      	str	r4, [r1, #12]
    1924:	608c      	str	r4, [r1, #8]
    1926:	6013      	str	r3, [r2, #0]
    1928:	e787      	b.n	183a <_free_r+0x9e>
    192a:	431f      	orrs	r7, r3
    192c:	604f      	str	r7, [r1, #4]
    192e:	6033      	str	r3, [r6, #0]
    1930:	e783      	b.n	183a <_free_r+0x9e>
    1932:	0026      	movs	r6, r4
    1934:	345c      	adds	r4, #92	@ 0x5c
    1936:	365b      	adds	r6, #91	@ 0x5b
    1938:	00e4      	lsls	r4, r4, #3
    193a:	e7a9      	b.n	1890 <_free_r+0xf4>
    193c:	2301      	movs	r3, #1
    193e:	10b6      	asrs	r6, r6, #2
    1940:	40b3      	lsls	r3, r6
    1942:	6846      	ldr	r6, [r0, #4]
    1944:	4333      	orrs	r3, r6
    1946:	6043      	str	r3, [r0, #4]
    1948:	e7b1      	b.n	18ae <_free_r+0x112>
    194a:	22aa      	movs	r2, #170	@ 0xaa
    194c:	0052      	lsls	r2, r2, #1
    194e:	4294      	cmp	r4, r2
    1950:	d805      	bhi.n	195e <_free_r+0x1c2>
    1952:	0bdc      	lsrs	r4, r3, #15
    1954:	0026      	movs	r6, r4
    1956:	3478      	adds	r4, #120	@ 0x78
    1958:	3677      	adds	r6, #119	@ 0x77
    195a:	00e4      	lsls	r4, r4, #3
    195c:	e798      	b.n	1890 <_free_r+0xf4>
    195e:	4a0a      	ldr	r2, [pc, #40]	@ (1988 <_free_r+0x1ec>)
    1960:	4294      	cmp	r4, r2
    1962:	d805      	bhi.n	1970 <_free_r+0x1d4>
    1964:	0c9c      	lsrs	r4, r3, #18
    1966:	0026      	movs	r6, r4
    1968:	347d      	adds	r4, #125	@ 0x7d
    196a:	367c      	adds	r6, #124	@ 0x7c
    196c:	00e4      	lsls	r4, r4, #3
    196e:	e78f      	b.n	1890 <_free_r+0xf4>
    1970:	24fe      	movs	r4, #254	@ 0xfe
    1972:	267e      	movs	r6, #126	@ 0x7e
    1974:	00a4      	lsls	r4, r4, #2
    1976:	e78b      	b.n	1890 <_free_r+0xf4>
    1978:	20000150 	.word	0x20000150
    197c:	20000158 	.word	0x20000158
    1980:	2000014c 	.word	0x2000014c
    1984:	20004430 	.word	0x20004430
    1988:	00000554 	.word	0x00000554

0000198c <malloc>:
    198c:	b510      	push	{r4, lr}
    198e:	4b03      	ldr	r3, [pc, #12]	@ (199c <malloc+0x10>)
    1990:	0001      	movs	r1, r0
    1992:	6818      	ldr	r0, [r3, #0]
    1994:	f000 f804 	bl	19a0 <_malloc_r>
    1998:	bd10      	pop	{r4, pc}
    199a:	46c0      	nop			@ (mov r8, r8)
    199c:	20000000 	.word	0x20000000

000019a0 <_malloc_r>:
    19a0:	b5f0      	push	{r4, r5, r6, r7, lr}
    19a2:	464e      	mov	r6, r9
    19a4:	4645      	mov	r5, r8
    19a6:	46de      	mov	lr, fp
    19a8:	4657      	mov	r7, sl
    19aa:	b5e0      	push	{r5, r6, r7, lr}
    19ac:	000d      	movs	r5, r1
    19ae:	350b      	adds	r5, #11
    19b0:	0006      	movs	r6, r0
    19b2:	b085      	sub	sp, #20
    19b4:	2d16      	cmp	r5, #22
    19b6:	d821      	bhi.n	19fc <_malloc_r+0x5c>
    19b8:	2910      	cmp	r1, #16
    19ba:	d900      	bls.n	19be <_malloc_r+0x1e>
    19bc:	e0d4      	b.n	1b68 <_malloc_r+0x1c8>
    19be:	f000 fad5 	bl	1f6c <__malloc_lock>
    19c2:	2510      	movs	r5, #16
    19c4:	2318      	movs	r3, #24
    19c6:	2102      	movs	r1, #2
    19c8:	4fca      	ldr	r7, [pc, #808]	@ (1cf4 <_malloc_r+0x354>)
    19ca:	18fb      	adds	r3, r7, r3
    19cc:	001a      	movs	r2, r3
    19ce:	685c      	ldr	r4, [r3, #4]
    19d0:	3a08      	subs	r2, #8
    19d2:	4294      	cmp	r4, r2
    19d4:	d100      	bne.n	19d8 <_malloc_r+0x38>
    19d6:	e186      	b.n	1ce6 <_malloc_r+0x346>
    19d8:	2203      	movs	r2, #3
    19da:	6863      	ldr	r3, [r4, #4]
    19dc:	68a1      	ldr	r1, [r4, #8]
    19de:	4393      	bics	r3, r2
    19e0:	68e2      	ldr	r2, [r4, #12]
    19e2:	60ca      	str	r2, [r1, #12]
    19e4:	6091      	str	r1, [r2, #8]
    19e6:	2101      	movs	r1, #1
    19e8:	18e3      	adds	r3, r4, r3
    19ea:	685a      	ldr	r2, [r3, #4]
    19ec:	0030      	movs	r0, r6
    19ee:	430a      	orrs	r2, r1
    19f0:	605a      	str	r2, [r3, #4]
    19f2:	f000 fac3 	bl	1f7c <__malloc_unlock>
    19f6:	0020      	movs	r0, r4
    19f8:	3008      	adds	r0, #8
    19fa:	e0b8      	b.n	1b6e <_malloc_r+0x1ce>
    19fc:	2307      	movs	r3, #7
    19fe:	439d      	bics	r5, r3
    1a00:	d500      	bpl.n	1a04 <_malloc_r+0x64>
    1a02:	e0b1      	b.n	1b68 <_malloc_r+0x1c8>
    1a04:	42a9      	cmp	r1, r5
    1a06:	d900      	bls.n	1a0a <_malloc_r+0x6a>
    1a08:	e0ae      	b.n	1b68 <_malloc_r+0x1c8>
    1a0a:	f000 faaf 	bl	1f6c <__malloc_lock>
    1a0e:	23fc      	movs	r3, #252	@ 0xfc
    1a10:	005b      	lsls	r3, r3, #1
    1a12:	429d      	cmp	r5, r3
    1a14:	d200      	bcs.n	1a18 <_malloc_r+0x78>
    1a16:	e1e0      	b.n	1dda <_malloc_r+0x43a>
    1a18:	0a69      	lsrs	r1, r5, #9
    1a1a:	d100      	bne.n	1a1e <_malloc_r+0x7e>
    1a1c:	e0ae      	b.n	1b7c <_malloc_r+0x1dc>
    1a1e:	2904      	cmp	r1, #4
    1a20:	d900      	bls.n	1a24 <_malloc_r+0x84>
    1a22:	e1a1      	b.n	1d68 <_malloc_r+0x3c8>
    1a24:	2338      	movs	r3, #56	@ 0x38
    1a26:	4698      	mov	r8, r3
    1a28:	09a9      	lsrs	r1, r5, #6
    1a2a:	4488      	add	r8, r1
    1a2c:	3139      	adds	r1, #57	@ 0x39
    1a2e:	00cb      	lsls	r3, r1, #3
    1a30:	2208      	movs	r2, #8
    1a32:	4252      	negs	r2, r2
    1a34:	4694      	mov	ip, r2
    1a36:	4faf      	ldr	r7, [pc, #700]	@ (1cf4 <_malloc_r+0x354>)
    1a38:	18fb      	adds	r3, r7, r3
    1a3a:	449c      	add	ip, r3
    1a3c:	4663      	mov	r3, ip
    1a3e:	68dc      	ldr	r4, [r3, #12]
    1a40:	45a4      	cmp	ip, r4
    1a42:	d014      	beq.n	1a6e <_malloc_r+0xce>
    1a44:	2303      	movs	r3, #3
    1a46:	4699      	mov	r9, r3
    1a48:	000b      	movs	r3, r1
    1a4a:	4661      	mov	r1, ip
    1a4c:	469c      	mov	ip, r3
    1a4e:	e007      	b.n	1a60 <_malloc_r+0xc0>
    1a50:	68e0      	ldr	r0, [r4, #12]
    1a52:	2a00      	cmp	r2, #0
    1a54:	db00      	blt.n	1a58 <_malloc_r+0xb8>
    1a56:	e140      	b.n	1cda <_malloc_r+0x33a>
    1a58:	4281      	cmp	r1, r0
    1a5a:	d100      	bne.n	1a5e <_malloc_r+0xbe>
    1a5c:	e141      	b.n	1ce2 <_malloc_r+0x342>
    1a5e:	0004      	movs	r4, r0
    1a60:	464a      	mov	r2, r9
    1a62:	6863      	ldr	r3, [r4, #4]
    1a64:	4393      	bics	r3, r2
    1a66:	1b5a      	subs	r2, r3, r5
    1a68:	2a0f      	cmp	r2, #15
    1a6a:	ddf1      	ble.n	1a50 <_malloc_r+0xb0>
    1a6c:	4641      	mov	r1, r8
    1a6e:	003a      	movs	r2, r7
    1a70:	693c      	ldr	r4, [r7, #16]
    1a72:	3208      	adds	r2, #8
    1a74:	4294      	cmp	r4, r2
    1a76:	d100      	bne.n	1a7a <_malloc_r+0xda>
    1a78:	e11e      	b.n	1cb8 <_malloc_r+0x318>
    1a7a:	2003      	movs	r0, #3
    1a7c:	6863      	ldr	r3, [r4, #4]
    1a7e:	4383      	bics	r3, r0
    1a80:	1b58      	subs	r0, r3, r5
    1a82:	280f      	cmp	r0, #15
    1a84:	dd00      	ble.n	1a88 <_malloc_r+0xe8>
    1a86:	e1ac      	b.n	1de2 <_malloc_r+0x442>
    1a88:	613a      	str	r2, [r7, #16]
    1a8a:	617a      	str	r2, [r7, #20]
    1a8c:	2800      	cmp	r0, #0
    1a8e:	daaa      	bge.n	19e6 <_malloc_r+0x46>
    1a90:	687a      	ldr	r2, [r7, #4]
    1a92:	4690      	mov	r8, r2
    1a94:	2280      	movs	r2, #128	@ 0x80
    1a96:	0092      	lsls	r2, r2, #2
    1a98:	4293      	cmp	r3, r2
    1a9a:	d300      	bcc.n	1a9e <_malloc_r+0xfe>
    1a9c:	e136      	b.n	1d0c <_malloc_r+0x36c>
    1a9e:	08da      	lsrs	r2, r3, #3
    1aa0:	0958      	lsrs	r0, r3, #5
    1aa2:	2301      	movs	r3, #1
    1aa4:	4083      	lsls	r3, r0
    1aa6:	4640      	mov	r0, r8
    1aa8:	4318      	orrs	r0, r3
    1aaa:	4680      	mov	r8, r0
    1aac:	00d3      	lsls	r3, r2, #3
    1aae:	19db      	adds	r3, r3, r7
    1ab0:	689a      	ldr	r2, [r3, #8]
    1ab2:	6078      	str	r0, [r7, #4]
    1ab4:	60e3      	str	r3, [r4, #12]
    1ab6:	60a2      	str	r2, [r4, #8]
    1ab8:	609c      	str	r4, [r3, #8]
    1aba:	60d4      	str	r4, [r2, #12]
    1abc:	2001      	movs	r0, #1
    1abe:	108b      	asrs	r3, r1, #2
    1ac0:	4098      	lsls	r0, r3
    1ac2:	4540      	cmp	r0, r8
    1ac4:	d862      	bhi.n	1b8c <_malloc_r+0x1ec>
    1ac6:	4643      	mov	r3, r8
    1ac8:	4203      	tst	r3, r0
    1aca:	d10a      	bne.n	1ae2 <_malloc_r+0x142>
    1acc:	2303      	movs	r3, #3
    1ace:	4399      	bics	r1, r3
    1ad0:	4643      	mov	r3, r8
    1ad2:	0040      	lsls	r0, r0, #1
    1ad4:	3104      	adds	r1, #4
    1ad6:	4203      	tst	r3, r0
    1ad8:	d103      	bne.n	1ae2 <_malloc_r+0x142>
    1ada:	0040      	lsls	r0, r0, #1
    1adc:	3104      	adds	r1, #4
    1ade:	4203      	tst	r3, r0
    1ae0:	d0fb      	beq.n	1ada <_malloc_r+0x13a>
    1ae2:	2303      	movs	r3, #3
    1ae4:	46b3      	mov	fp, r6
    1ae6:	469c      	mov	ip, r3
    1ae8:	000e      	movs	r6, r1
    1aea:	46b8      	mov	r8, r7
    1aec:	9001      	str	r0, [sp, #4]
    1aee:	00f0      	lsls	r0, r6, #3
    1af0:	4440      	add	r0, r8
    1af2:	0001      	movs	r1, r0
    1af4:	46b2      	mov	sl, r6
    1af6:	68cb      	ldr	r3, [r1, #12]
    1af8:	e00b      	b.n	1b12 <_malloc_r+0x172>
    1afa:	4664      	mov	r4, ip
    1afc:	685a      	ldr	r2, [r3, #4]
    1afe:	001f      	movs	r7, r3
    1b00:	43a2      	bics	r2, r4
    1b02:	68db      	ldr	r3, [r3, #12]
    1b04:	1b54      	subs	r4, r2, r5
    1b06:	2c0f      	cmp	r4, #15
    1b08:	dd00      	ble.n	1b0c <_malloc_r+0x16c>
    1b0a:	e139      	b.n	1d80 <_malloc_r+0x3e0>
    1b0c:	2c00      	cmp	r4, #0
    1b0e:	db00      	blt.n	1b12 <_malloc_r+0x172>
    1b10:	e153      	b.n	1dba <_malloc_r+0x41a>
    1b12:	4299      	cmp	r1, r3
    1b14:	d1f1      	bne.n	1afa <_malloc_r+0x15a>
    1b16:	2301      	movs	r3, #1
    1b18:	4699      	mov	r9, r3
    1b1a:	44ca      	add	sl, r9
    1b1c:	4653      	mov	r3, sl
    1b1e:	3108      	adds	r1, #8
    1b20:	079b      	lsls	r3, r3, #30
    1b22:	d1e8      	bne.n	1af6 <_malloc_r+0x156>
    1b24:	2203      	movs	r2, #3
    1b26:	e005      	b.n	1b34 <_malloc_r+0x194>
    1b28:	6803      	ldr	r3, [r0, #0]
    1b2a:	3808      	subs	r0, #8
    1b2c:	3e01      	subs	r6, #1
    1b2e:	4283      	cmp	r3, r0
    1b30:	d000      	beq.n	1b34 <_malloc_r+0x194>
    1b32:	e213      	b.n	1f5c <_malloc_r+0x5bc>
    1b34:	4232      	tst	r2, r6
    1b36:	d1f7      	bne.n	1b28 <_malloc_r+0x188>
    1b38:	4643      	mov	r3, r8
    1b3a:	9a01      	ldr	r2, [sp, #4]
    1b3c:	685b      	ldr	r3, [r3, #4]
    1b3e:	4393      	bics	r3, r2
    1b40:	4642      	mov	r2, r8
    1b42:	6053      	str	r3, [r2, #4]
    1b44:	9a01      	ldr	r2, [sp, #4]
    1b46:	0052      	lsls	r2, r2, #1
    1b48:	9201      	str	r2, [sp, #4]
    1b4a:	429a      	cmp	r2, r3
    1b4c:	d81c      	bhi.n	1b88 <_malloc_r+0x1e8>
    1b4e:	2a00      	cmp	r2, #0
    1b50:	d106      	bne.n	1b60 <_malloc_r+0x1c0>
    1b52:	e019      	b.n	1b88 <_malloc_r+0x1e8>
    1b54:	2204      	movs	r2, #4
    1b56:	4691      	mov	r9, r2
    1b58:	9a01      	ldr	r2, [sp, #4]
    1b5a:	44ca      	add	sl, r9
    1b5c:	0052      	lsls	r2, r2, #1
    1b5e:	9201      	str	r2, [sp, #4]
    1b60:	4213      	tst	r3, r2
    1b62:	d0f7      	beq.n	1b54 <_malloc_r+0x1b4>
    1b64:	4656      	mov	r6, sl
    1b66:	e7c2      	b.n	1aee <_malloc_r+0x14e>
    1b68:	230c      	movs	r3, #12
    1b6a:	6033      	str	r3, [r6, #0]
    1b6c:	2000      	movs	r0, #0
    1b6e:	b005      	add	sp, #20
    1b70:	bcf0      	pop	{r4, r5, r6, r7}
    1b72:	46bb      	mov	fp, r7
    1b74:	46b2      	mov	sl, r6
    1b76:	46a9      	mov	r9, r5
    1b78:	46a0      	mov	r8, r4
    1b7a:	bdf0      	pop	{r4, r5, r6, r7, pc}
    1b7c:	2380      	movs	r3, #128	@ 0x80
    1b7e:	223f      	movs	r2, #63	@ 0x3f
    1b80:	2140      	movs	r1, #64	@ 0x40
    1b82:	4690      	mov	r8, r2
    1b84:	009b      	lsls	r3, r3, #2
    1b86:	e753      	b.n	1a30 <_malloc_r+0x90>
    1b88:	465e      	mov	r6, fp
    1b8a:	4647      	mov	r7, r8
    1b8c:	2203      	movs	r2, #3
    1b8e:	68bc      	ldr	r4, [r7, #8]
    1b90:	6863      	ldr	r3, [r4, #4]
    1b92:	4393      	bics	r3, r2
    1b94:	4698      	mov	r8, r3
    1b96:	42ab      	cmp	r3, r5
    1b98:	d303      	bcc.n	1ba2 <_malloc_r+0x202>
    1b9a:	1b5b      	subs	r3, r3, r5
    1b9c:	2b0f      	cmp	r3, #15
    1b9e:	dd00      	ble.n	1ba2 <_malloc_r+0x202>
    1ba0:	e08d      	b.n	1cbe <_malloc_r+0x31e>
    1ba2:	0023      	movs	r3, r4
    1ba4:	4443      	add	r3, r8
    1ba6:	9302      	str	r3, [sp, #8]
    1ba8:	4b53      	ldr	r3, [pc, #332]	@ (1cf8 <_malloc_r+0x358>)
    1baa:	2008      	movs	r0, #8
    1bac:	681b      	ldr	r3, [r3, #0]
    1bae:	3310      	adds	r3, #16
    1bb0:	195b      	adds	r3, r3, r5
    1bb2:	9301      	str	r3, [sp, #4]
    1bb4:	f003 f9ee 	bl	4f94 <sysconf>
    1bb8:	4950      	ldr	r1, [pc, #320]	@ (1cfc <_malloc_r+0x35c>)
    1bba:	9003      	str	r0, [sp, #12]
    1bbc:	680b      	ldr	r3, [r1, #0]
    1bbe:	468a      	mov	sl, r1
    1bc0:	3301      	adds	r3, #1
    1bc2:	d006      	beq.n	1bd2 <_malloc_r+0x232>
    1bc4:	4684      	mov	ip, r0
    1bc6:	9b01      	ldr	r3, [sp, #4]
    1bc8:	4242      	negs	r2, r0
    1bca:	3b01      	subs	r3, #1
    1bcc:	4463      	add	r3, ip
    1bce:	4013      	ands	r3, r2
    1bd0:	9301      	str	r3, [sp, #4]
    1bd2:	0030      	movs	r0, r6
    1bd4:	9901      	ldr	r1, [sp, #4]
    1bd6:	f003 f9b7 	bl	4f48 <_sbrk_r>
    1bda:	0003      	movs	r3, r0
    1bdc:	4681      	mov	r9, r0
    1bde:	3301      	adds	r3, #1
    1be0:	d100      	bne.n	1be4 <_malloc_r+0x244>
    1be2:	e11c      	b.n	1e1e <_malloc_r+0x47e>
    1be4:	9b02      	ldr	r3, [sp, #8]
    1be6:	4283      	cmp	r3, r0
    1be8:	d900      	bls.n	1bec <_malloc_r+0x24c>
    1bea:	e116      	b.n	1e1a <_malloc_r+0x47a>
    1bec:	4b44      	ldr	r3, [pc, #272]	@ (1d00 <_malloc_r+0x360>)
    1bee:	9802      	ldr	r0, [sp, #8]
    1bf0:	469b      	mov	fp, r3
    1bf2:	681a      	ldr	r2, [r3, #0]
    1bf4:	9b01      	ldr	r3, [sp, #4]
    1bf6:	4659      	mov	r1, fp
    1bf8:	469c      	mov	ip, r3
    1bfa:	4462      	add	r2, ip
    1bfc:	600a      	str	r2, [r1, #0]
    1bfe:	9903      	ldr	r1, [sp, #12]
    1c00:	3901      	subs	r1, #1
    1c02:	4548      	cmp	r0, r9
    1c04:	d100      	bne.n	1c08 <_malloc_r+0x268>
    1c06:	e157      	b.n	1eb8 <_malloc_r+0x518>
    1c08:	4653      	mov	r3, sl
    1c0a:	681b      	ldr	r3, [r3, #0]
    1c0c:	3301      	adds	r3, #1
    1c0e:	d100      	bne.n	1c12 <_malloc_r+0x272>
    1c10:	e15e      	b.n	1ed0 <_malloc_r+0x530>
    1c12:	464b      	mov	r3, r9
    1c14:	9802      	ldr	r0, [sp, #8]
    1c16:	1a1b      	subs	r3, r3, r0
    1c18:	189b      	adds	r3, r3, r2
    1c1a:	465a      	mov	r2, fp
    1c1c:	6013      	str	r3, [r2, #0]
    1c1e:	2307      	movs	r3, #7
    1c20:	464a      	mov	r2, r9
    1c22:	4648      	mov	r0, r9
    1c24:	401a      	ands	r2, r3
    1c26:	9202      	str	r2, [sp, #8]
    1c28:	4218      	tst	r0, r3
    1c2a:	d100      	bne.n	1c2e <_malloc_r+0x28e>
    1c2c:	e115      	b.n	1e5a <_malloc_r+0x4ba>
    1c2e:	9803      	ldr	r0, [sp, #12]
    1c30:	3301      	adds	r3, #1
    1c32:	4684      	mov	ip, r0
    1c34:	1a9b      	subs	r3, r3, r2
    1c36:	9a01      	ldr	r2, [sp, #4]
    1c38:	4499      	add	r9, r3
    1c3a:	444a      	add	r2, r9
    1c3c:	9201      	str	r2, [sp, #4]
    1c3e:	4463      	add	r3, ip
    1c40:	400a      	ands	r2, r1
    1c42:	1a9b      	subs	r3, r3, r2
    1c44:	4019      	ands	r1, r3
    1c46:	0030      	movs	r0, r6
    1c48:	468a      	mov	sl, r1
    1c4a:	f003 f97d 	bl	4f48 <_sbrk_r>
    1c4e:	1c43      	adds	r3, r0, #1
    1c50:	d100      	bne.n	1c54 <_malloc_r+0x2b4>
    1c52:	e158      	b.n	1f06 <_malloc_r+0x566>
    1c54:	464b      	mov	r3, r9
    1c56:	1ac0      	subs	r0, r0, r3
    1c58:	0003      	movs	r3, r0
    1c5a:	4453      	add	r3, sl
    1c5c:	9301      	str	r3, [sp, #4]
    1c5e:	465b      	mov	r3, fp
    1c60:	681a      	ldr	r2, [r3, #0]
    1c62:	2001      	movs	r0, #1
    1c64:	4452      	add	r2, sl
    1c66:	601a      	str	r2, [r3, #0]
    1c68:	464b      	mov	r3, r9
    1c6a:	4649      	mov	r1, r9
    1c6c:	60bb      	str	r3, [r7, #8]
    1c6e:	9b01      	ldr	r3, [sp, #4]
    1c70:	4303      	orrs	r3, r0
    1c72:	604b      	str	r3, [r1, #4]
    1c74:	42bc      	cmp	r4, r7
    1c76:	d013      	beq.n	1ca0 <_malloc_r+0x300>
    1c78:	4643      	mov	r3, r8
    1c7a:	2b0f      	cmp	r3, #15
    1c7c:	d800      	bhi.n	1c80 <_malloc_r+0x2e0>
    1c7e:	e12b      	b.n	1ed8 <_malloc_r+0x538>
    1c80:	2107      	movs	r1, #7
    1c82:	3b0c      	subs	r3, #12
    1c84:	438b      	bics	r3, r1
    1c86:	6861      	ldr	r1, [r4, #4]
    1c88:	4001      	ands	r1, r0
    1c8a:	2005      	movs	r0, #5
    1c8c:	4319      	orrs	r1, r3
    1c8e:	6061      	str	r1, [r4, #4]
    1c90:	18e1      	adds	r1, r4, r3
    1c92:	6048      	str	r0, [r1, #4]
    1c94:	6088      	str	r0, [r1, #8]
    1c96:	2b0f      	cmp	r3, #15
    1c98:	d900      	bls.n	1c9c <_malloc_r+0x2fc>
    1c9a:	e13f      	b.n	1f1c <_malloc_r+0x57c>
    1c9c:	464b      	mov	r3, r9
    1c9e:	685b      	ldr	r3, [r3, #4]
    1ca0:	4918      	ldr	r1, [pc, #96]	@ (1d04 <_malloc_r+0x364>)
    1ca2:	6808      	ldr	r0, [r1, #0]
    1ca4:	4290      	cmp	r0, r2
    1ca6:	d200      	bcs.n	1caa <_malloc_r+0x30a>
    1ca8:	600a      	str	r2, [r1, #0]
    1caa:	4917      	ldr	r1, [pc, #92]	@ (1d08 <_malloc_r+0x368>)
    1cac:	6808      	ldr	r0, [r1, #0]
    1cae:	4290      	cmp	r0, r2
    1cb0:	d200      	bcs.n	1cb4 <_malloc_r+0x314>
    1cb2:	600a      	str	r2, [r1, #0]
    1cb4:	464c      	mov	r4, r9
    1cb6:	e0b4      	b.n	1e22 <_malloc_r+0x482>
    1cb8:	687b      	ldr	r3, [r7, #4]
    1cba:	4698      	mov	r8, r3
    1cbc:	e6fe      	b.n	1abc <_malloc_r+0x11c>
    1cbe:	2201      	movs	r2, #1
    1cc0:	0029      	movs	r1, r5
    1cc2:	4313      	orrs	r3, r2
    1cc4:	4311      	orrs	r1, r2
    1cc6:	1965      	adds	r5, r4, r5
    1cc8:	6061      	str	r1, [r4, #4]
    1cca:	0030      	movs	r0, r6
    1ccc:	60bd      	str	r5, [r7, #8]
    1cce:	606b      	str	r3, [r5, #4]
    1cd0:	f000 f954 	bl	1f7c <__malloc_unlock>
    1cd4:	0020      	movs	r0, r4
    1cd6:	3008      	adds	r0, #8
    1cd8:	e749      	b.n	1b6e <_malloc_r+0x1ce>
    1cda:	68a2      	ldr	r2, [r4, #8]
    1cdc:	60d0      	str	r0, [r2, #12]
    1cde:	6082      	str	r2, [r0, #8]
    1ce0:	e681      	b.n	19e6 <_malloc_r+0x46>
    1ce2:	4661      	mov	r1, ip
    1ce4:	e6c3      	b.n	1a6e <_malloc_r+0xce>
    1ce6:	68dc      	ldr	r4, [r3, #12]
    1ce8:	3102      	adds	r1, #2
    1cea:	42a3      	cmp	r3, r4
    1cec:	d100      	bne.n	1cf0 <_malloc_r+0x350>
    1cee:	e6be      	b.n	1a6e <_malloc_r+0xce>
    1cf0:	e672      	b.n	19d8 <_malloc_r+0x38>
    1cf2:	46c0      	nop			@ (mov r8, r8)
    1cf4:	20000150 	.word	0x20000150
    1cf8:	20004430 	.word	0x20004430
    1cfc:	20000148 	.word	0x20000148
    1d00:	20004400 	.word	0x20004400
    1d04:	2000442c 	.word	0x2000442c
    1d08:	20004428 	.word	0x20004428
    1d0c:	0a5a      	lsrs	r2, r3, #9
    1d0e:	2a04      	cmp	r2, #4
    1d10:	d97c      	bls.n	1e0c <_malloc_r+0x46c>
    1d12:	2a14      	cmp	r2, #20
    1d14:	d900      	bls.n	1d18 <_malloc_r+0x378>
    1d16:	e0b0      	b.n	1e7a <_malloc_r+0x4da>
    1d18:	0010      	movs	r0, r2
    1d1a:	305b      	adds	r0, #91	@ 0x5b
    1d1c:	4682      	mov	sl, r0
    1d1e:	325c      	adds	r2, #92	@ 0x5c
    1d20:	00d2      	lsls	r2, r2, #3
    1d22:	2008      	movs	r0, #8
    1d24:	4240      	negs	r0, r0
    1d26:	4684      	mov	ip, r0
    1d28:	18ba      	adds	r2, r7, r2
    1d2a:	4494      	add	ip, r2
    1d2c:	4662      	mov	r2, ip
    1d2e:	6892      	ldr	r2, [r2, #8]
    1d30:	300b      	adds	r0, #11
    1d32:	4681      	mov	r9, r0
    1d34:	4594      	cmp	ip, r2
    1d36:	d100      	bne.n	1d3a <_malloc_r+0x39a>
    1d38:	e086      	b.n	1e48 <_malloc_r+0x4a8>
    1d3a:	0008      	movs	r0, r1
    1d3c:	46a2      	mov	sl, r4
    1d3e:	4661      	mov	r1, ip
    1d40:	4684      	mov	ip, r0
    1d42:	e002      	b.n	1d4a <_malloc_r+0x3aa>
    1d44:	6892      	ldr	r2, [r2, #8]
    1d46:	4291      	cmp	r1, r2
    1d48:	d004      	beq.n	1d54 <_malloc_r+0x3b4>
    1d4a:	464c      	mov	r4, r9
    1d4c:	6850      	ldr	r0, [r2, #4]
    1d4e:	43a0      	bics	r0, r4
    1d50:	4298      	cmp	r0, r3
    1d52:	d8f7      	bhi.n	1d44 <_malloc_r+0x3a4>
    1d54:	68d3      	ldr	r3, [r2, #12]
    1d56:	4661      	mov	r1, ip
    1d58:	4654      	mov	r4, sl
    1d5a:	469c      	mov	ip, r3
    1d5c:	4663      	mov	r3, ip
    1d5e:	60a2      	str	r2, [r4, #8]
    1d60:	60e3      	str	r3, [r4, #12]
    1d62:	609c      	str	r4, [r3, #8]
    1d64:	60d4      	str	r4, [r2, #12]
    1d66:	e6a9      	b.n	1abc <_malloc_r+0x11c>
    1d68:	2914      	cmp	r1, #20
    1d6a:	d967      	bls.n	1e3c <_malloc_r+0x49c>
    1d6c:	2954      	cmp	r1, #84	@ 0x54
    1d6e:	d900      	bls.n	1d72 <_malloc_r+0x3d2>
    1d70:	e08c      	b.n	1e8c <_malloc_r+0x4ec>
    1d72:	236e      	movs	r3, #110	@ 0x6e
    1d74:	4698      	mov	r8, r3
    1d76:	0b29      	lsrs	r1, r5, #12
    1d78:	4488      	add	r8, r1
    1d7a:	316f      	adds	r1, #111	@ 0x6f
    1d7c:	00cb      	lsls	r3, r1, #3
    1d7e:	e657      	b.n	1a30 <_malloc_r+0x90>
    1d80:	46ba      	mov	sl, r7
    1d82:	2001      	movs	r0, #1
    1d84:	4651      	mov	r1, sl
    1d86:	4684      	mov	ip, r0
    1d88:	1949      	adds	r1, r1, r5
    1d8a:	4305      	orrs	r5, r0
    1d8c:	4650      	mov	r0, sl
    1d8e:	6045      	str	r5, [r0, #4]
    1d90:	6885      	ldr	r5, [r0, #8]
    1d92:	4647      	mov	r7, r8
    1d94:	4660      	mov	r0, ip
    1d96:	60eb      	str	r3, [r5, #12]
    1d98:	465e      	mov	r6, fp
    1d9a:	609d      	str	r5, [r3, #8]
    1d9c:	4653      	mov	r3, sl
    1d9e:	6139      	str	r1, [r7, #16]
    1da0:	6179      	str	r1, [r7, #20]
    1da2:	4320      	orrs	r0, r4
    1da4:	3708      	adds	r7, #8
    1da6:	6048      	str	r0, [r1, #4]
    1da8:	60cf      	str	r7, [r1, #12]
    1daa:	0030      	movs	r0, r6
    1dac:	608f      	str	r7, [r1, #8]
    1dae:	509c      	str	r4, [r3, r2]
    1db0:	f000 f8e4 	bl	1f7c <__malloc_unlock>
    1db4:	4650      	mov	r0, sl
    1db6:	3008      	adds	r0, #8
    1db8:	e6d9      	b.n	1b6e <_malloc_r+0x1ce>
    1dba:	46ba      	mov	sl, r7
    1dbc:	2001      	movs	r0, #1
    1dbe:	465e      	mov	r6, fp
    1dc0:	4452      	add	r2, sl
    1dc2:	6851      	ldr	r1, [r2, #4]
    1dc4:	4301      	orrs	r1, r0
    1dc6:	6051      	str	r1, [r2, #4]
    1dc8:	68ba      	ldr	r2, [r7, #8]
    1dca:	0030      	movs	r0, r6
    1dcc:	60d3      	str	r3, [r2, #12]
    1dce:	609a      	str	r2, [r3, #8]
    1dd0:	f000 f8d4 	bl	1f7c <__malloc_unlock>
    1dd4:	0038      	movs	r0, r7
    1dd6:	3008      	adds	r0, #8
    1dd8:	e6c9      	b.n	1b6e <_malloc_r+0x1ce>
    1dda:	002b      	movs	r3, r5
    1ddc:	08e9      	lsrs	r1, r5, #3
    1dde:	3308      	adds	r3, #8
    1de0:	e5f2      	b.n	19c8 <_malloc_r+0x28>
    1de2:	1961      	adds	r1, r4, r5
    1de4:	4688      	mov	r8, r1
    1de6:	2101      	movs	r1, #1
    1de8:	468c      	mov	ip, r1
    1dea:	430d      	orrs	r5, r1
    1dec:	4641      	mov	r1, r8
    1dee:	6065      	str	r5, [r4, #4]
    1df0:	6139      	str	r1, [r7, #16]
    1df2:	6179      	str	r1, [r7, #20]
    1df4:	60ca      	str	r2, [r1, #12]
    1df6:	608a      	str	r2, [r1, #8]
    1df8:	4662      	mov	r2, ip
    1dfa:	4302      	orrs	r2, r0
    1dfc:	604a      	str	r2, [r1, #4]
    1dfe:	50e0      	str	r0, [r4, r3]
    1e00:	0030      	movs	r0, r6
    1e02:	f000 f8bb 	bl	1f7c <__malloc_unlock>
    1e06:	0020      	movs	r0, r4
    1e08:	3008      	adds	r0, #8
    1e0a:	e6b0      	b.n	1b6e <_malloc_r+0x1ce>
    1e0c:	099a      	lsrs	r2, r3, #6
    1e0e:	0010      	movs	r0, r2
    1e10:	3239      	adds	r2, #57	@ 0x39
    1e12:	3038      	adds	r0, #56	@ 0x38
    1e14:	4682      	mov	sl, r0
    1e16:	00d2      	lsls	r2, r2, #3
    1e18:	e783      	b.n	1d22 <_malloc_r+0x382>
    1e1a:	42bc      	cmp	r4, r7
    1e1c:	d041      	beq.n	1ea2 <_malloc_r+0x502>
    1e1e:	68bc      	ldr	r4, [r7, #8]
    1e20:	6863      	ldr	r3, [r4, #4]
    1e22:	2203      	movs	r2, #3
    1e24:	4393      	bics	r3, r2
    1e26:	001a      	movs	r2, r3
    1e28:	1b5b      	subs	r3, r3, r5
    1e2a:	42aa      	cmp	r2, r5
    1e2c:	d302      	bcc.n	1e34 <_malloc_r+0x494>
    1e2e:	2b0f      	cmp	r3, #15
    1e30:	dd00      	ble.n	1e34 <_malloc_r+0x494>
    1e32:	e744      	b.n	1cbe <_malloc_r+0x31e>
    1e34:	0030      	movs	r0, r6
    1e36:	f000 f8a1 	bl	1f7c <__malloc_unlock>
    1e3a:	e697      	b.n	1b6c <_malloc_r+0x1cc>
    1e3c:	235b      	movs	r3, #91	@ 0x5b
    1e3e:	4698      	mov	r8, r3
    1e40:	4488      	add	r8, r1
    1e42:	315c      	adds	r1, #92	@ 0x5c
    1e44:	00cb      	lsls	r3, r1, #3
    1e46:	e5f3      	b.n	1a30 <_malloc_r+0x90>
    1e48:	4653      	mov	r3, sl
    1e4a:	1098      	asrs	r0, r3, #2
    1e4c:	2301      	movs	r3, #1
    1e4e:	4083      	lsls	r3, r0
    1e50:	4640      	mov	r0, r8
    1e52:	4318      	orrs	r0, r3
    1e54:	4680      	mov	r8, r0
    1e56:	6078      	str	r0, [r7, #4]
    1e58:	e780      	b.n	1d5c <_malloc_r+0x3bc>
    1e5a:	9b01      	ldr	r3, [sp, #4]
    1e5c:	9a03      	ldr	r2, [sp, #12]
    1e5e:	444b      	add	r3, r9
    1e60:	400b      	ands	r3, r1
    1e62:	1ad3      	subs	r3, r2, r3
    1e64:	4019      	ands	r1, r3
    1e66:	0030      	movs	r0, r6
    1e68:	468a      	mov	sl, r1
    1e6a:	f003 f86d 	bl	4f48 <_sbrk_r>
    1e6e:	1c43      	adds	r3, r0, #1
    1e70:	d000      	beq.n	1e74 <_malloc_r+0x4d4>
    1e72:	e6ef      	b.n	1c54 <_malloc_r+0x2b4>
    1e74:	2300      	movs	r3, #0
    1e76:	469a      	mov	sl, r3
    1e78:	e6f1      	b.n	1c5e <_malloc_r+0x2be>
    1e7a:	2a54      	cmp	r2, #84	@ 0x54
    1e7c:	d82e      	bhi.n	1edc <_malloc_r+0x53c>
    1e7e:	0b1a      	lsrs	r2, r3, #12
    1e80:	0010      	movs	r0, r2
    1e82:	326f      	adds	r2, #111	@ 0x6f
    1e84:	306e      	adds	r0, #110	@ 0x6e
    1e86:	4682      	mov	sl, r0
    1e88:	00d2      	lsls	r2, r2, #3
    1e8a:	e74a      	b.n	1d22 <_malloc_r+0x382>
    1e8c:	23aa      	movs	r3, #170	@ 0xaa
    1e8e:	005b      	lsls	r3, r3, #1
    1e90:	4299      	cmp	r1, r3
    1e92:	d82e      	bhi.n	1ef2 <_malloc_r+0x552>
    1e94:	3bdd      	subs	r3, #221	@ 0xdd
    1e96:	4698      	mov	r8, r3
    1e98:	0be9      	lsrs	r1, r5, #15
    1e9a:	4488      	add	r8, r1
    1e9c:	3178      	adds	r1, #120	@ 0x78
    1e9e:	00cb      	lsls	r3, r1, #3
    1ea0:	e5c6      	b.n	1a30 <_malloc_r+0x90>
    1ea2:	4b30      	ldr	r3, [pc, #192]	@ (1f64 <_malloc_r+0x5c4>)
    1ea4:	469b      	mov	fp, r3
    1ea6:	681a      	ldr	r2, [r3, #0]
    1ea8:	9b01      	ldr	r3, [sp, #4]
    1eaa:	469c      	mov	ip, r3
    1eac:	465b      	mov	r3, fp
    1eae:	4462      	add	r2, ip
    1eb0:	601a      	str	r2, [r3, #0]
    1eb2:	9b03      	ldr	r3, [sp, #12]
    1eb4:	1e59      	subs	r1, r3, #1
    1eb6:	e6a7      	b.n	1c08 <_malloc_r+0x268>
    1eb8:	4648      	mov	r0, r9
    1eba:	4208      	tst	r0, r1
    1ebc:	d000      	beq.n	1ec0 <_malloc_r+0x520>
    1ebe:	e6a3      	b.n	1c08 <_malloc_r+0x268>
    1ec0:	68b9      	ldr	r1, [r7, #8]
    1ec2:	4443      	add	r3, r8
    1ec4:	4689      	mov	r9, r1
    1ec6:	2101      	movs	r1, #1
    1ec8:	430b      	orrs	r3, r1
    1eca:	4649      	mov	r1, r9
    1ecc:	604b      	str	r3, [r1, #4]
    1ece:	e6e7      	b.n	1ca0 <_malloc_r+0x300>
    1ed0:	4653      	mov	r3, sl
    1ed2:	464a      	mov	r2, r9
    1ed4:	601a      	str	r2, [r3, #0]
    1ed6:	e6a2      	b.n	1c1e <_malloc_r+0x27e>
    1ed8:	6048      	str	r0, [r1, #4]
    1eda:	e7ab      	b.n	1e34 <_malloc_r+0x494>
    1edc:	20aa      	movs	r0, #170	@ 0xaa
    1ede:	0040      	lsls	r0, r0, #1
    1ee0:	4282      	cmp	r2, r0
    1ee2:	d826      	bhi.n	1f32 <_malloc_r+0x592>
    1ee4:	0bda      	lsrs	r2, r3, #15
    1ee6:	0010      	movs	r0, r2
    1ee8:	3278      	adds	r2, #120	@ 0x78
    1eea:	3077      	adds	r0, #119	@ 0x77
    1eec:	4682      	mov	sl, r0
    1eee:	00d2      	lsls	r2, r2, #3
    1ef0:	e717      	b.n	1d22 <_malloc_r+0x382>
    1ef2:	4b1d      	ldr	r3, [pc, #116]	@ (1f68 <_malloc_r+0x5c8>)
    1ef4:	4299      	cmp	r1, r3
    1ef6:	d826      	bhi.n	1f46 <_malloc_r+0x5a6>
    1ef8:	237c      	movs	r3, #124	@ 0x7c
    1efa:	4698      	mov	r8, r3
    1efc:	0ca9      	lsrs	r1, r5, #18
    1efe:	4488      	add	r8, r1
    1f00:	317d      	adds	r1, #125	@ 0x7d
    1f02:	00cb      	lsls	r3, r1, #3
    1f04:	e594      	b.n	1a30 <_malloc_r+0x90>
    1f06:	9a01      	ldr	r2, [sp, #4]
    1f08:	9b02      	ldr	r3, [sp, #8]
    1f0a:	4694      	mov	ip, r2
    1f0c:	464a      	mov	r2, r9
    1f0e:	3b08      	subs	r3, #8
    1f10:	4463      	add	r3, ip
    1f12:	1a9b      	subs	r3, r3, r2
    1f14:	9301      	str	r3, [sp, #4]
    1f16:	2300      	movs	r3, #0
    1f18:	469a      	mov	sl, r3
    1f1a:	e6a0      	b.n	1c5e <_malloc_r+0x2be>
    1f1c:	0021      	movs	r1, r4
    1f1e:	0030      	movs	r0, r6
    1f20:	3108      	adds	r1, #8
    1f22:	f7ff fc3b 	bl	179c <_free_r>
    1f26:	465b      	mov	r3, fp
    1f28:	681a      	ldr	r2, [r3, #0]
    1f2a:	68bb      	ldr	r3, [r7, #8]
    1f2c:	4699      	mov	r9, r3
    1f2e:	685b      	ldr	r3, [r3, #4]
    1f30:	e6b6      	b.n	1ca0 <_malloc_r+0x300>
    1f32:	480d      	ldr	r0, [pc, #52]	@ (1f68 <_malloc_r+0x5c8>)
    1f34:	4282      	cmp	r2, r0
    1f36:	d80c      	bhi.n	1f52 <_malloc_r+0x5b2>
    1f38:	0c9a      	lsrs	r2, r3, #18
    1f3a:	0010      	movs	r0, r2
    1f3c:	327d      	adds	r2, #125	@ 0x7d
    1f3e:	307c      	adds	r0, #124	@ 0x7c
    1f40:	4682      	mov	sl, r0
    1f42:	00d2      	lsls	r2, r2, #3
    1f44:	e6ed      	b.n	1d22 <_malloc_r+0x382>
    1f46:	23fe      	movs	r3, #254	@ 0xfe
    1f48:	227e      	movs	r2, #126	@ 0x7e
    1f4a:	217f      	movs	r1, #127	@ 0x7f
    1f4c:	4690      	mov	r8, r2
    1f4e:	009b      	lsls	r3, r3, #2
    1f50:	e56e      	b.n	1a30 <_malloc_r+0x90>
    1f52:	22fe      	movs	r2, #254	@ 0xfe
    1f54:	207e      	movs	r0, #126	@ 0x7e
    1f56:	0092      	lsls	r2, r2, #2
    1f58:	4682      	mov	sl, r0
    1f5a:	e6e2      	b.n	1d22 <_malloc_r+0x382>
    1f5c:	4643      	mov	r3, r8
    1f5e:	685b      	ldr	r3, [r3, #4]
    1f60:	e5f0      	b.n	1b44 <_malloc_r+0x1a4>
    1f62:	46c0      	nop			@ (mov r8, r8)
    1f64:	20004400 	.word	0x20004400
    1f68:	00000554 	.word	0x00000554

00001f6c <__malloc_lock>:
    1f6c:	b510      	push	{r4, lr}
    1f6e:	4802      	ldr	r0, [pc, #8]	@ (1f78 <__malloc_lock+0xc>)
    1f70:	f7ff fb32 	bl	15d8 <__retarget_lock_acquire_recursive>
    1f74:	bd10      	pop	{r4, pc}
    1f76:	46c0      	nop			@ (mov r8, r8)
    1f78:	200043f8 	.word	0x200043f8

00001f7c <__malloc_unlock>:
    1f7c:	b510      	push	{r4, lr}
    1f7e:	4802      	ldr	r0, [pc, #8]	@ (1f88 <__malloc_unlock+0xc>)
    1f80:	f7ff fb2c 	bl	15dc <__retarget_lock_release_recursive>
    1f84:	bd10      	pop	{r4, pc}
    1f86:	46c0      	nop			@ (mov r8, r8)
    1f88:	200043f8 	.word	0x200043f8

00001f8c <_vfprintf_r>:
    1f8c:	b5f0      	push	{r4, r5, r6, r7, lr}
    1f8e:	46de      	mov	lr, fp
    1f90:	4645      	mov	r5, r8
    1f92:	4657      	mov	r7, sl
    1f94:	464e      	mov	r6, r9
    1f96:	b5e0      	push	{r5, r6, r7, lr}
    1f98:	b0db      	sub	sp, #364	@ 0x16c
    1f9a:	4688      	mov	r8, r1
    1f9c:	4693      	mov	fp, r2
    1f9e:	001c      	movs	r4, r3
    1fa0:	9310      	str	r3, [sp, #64]	@ 0x40
    1fa2:	0005      	movs	r5, r0
    1fa4:	9007      	str	r0, [sp, #28]
    1fa6:	f002 ff6b 	bl	4e80 <_localeconv_r>
    1faa:	6803      	ldr	r3, [r0, #0]
    1fac:	0018      	movs	r0, r3
    1fae:	931c      	str	r3, [sp, #112]	@ 0x70
    1fb0:	f7ff fb6c 	bl	168c <strlen>
    1fb4:	901b      	str	r0, [sp, #108]	@ 0x6c
    1fb6:	2d00      	cmp	r5, #0
    1fb8:	d004      	beq.n	1fc4 <_vfprintf_r+0x38>
    1fba:	6b6b      	ldr	r3, [r5, #52]	@ 0x34
    1fbc:	2b00      	cmp	r3, #0
    1fbe:	d101      	bne.n	1fc4 <_vfprintf_r+0x38>
    1fc0:	f001 fa14 	bl	33ec <_vfprintf_r+0x1460>
    1fc4:	4643      	mov	r3, r8
    1fc6:	2501      	movs	r5, #1
    1fc8:	6e5a      	ldr	r2, [r3, #100]	@ 0x64
    1fca:	210c      	movs	r1, #12
    1fcc:	5e5b      	ldrsh	r3, [r3, r1]
    1fce:	4215      	tst	r5, r2
    1fd0:	d101      	bne.n	1fd6 <_vfprintf_r+0x4a>
    1fd2:	f000 fe3d 	bl	2c50 <_vfprintf_r+0xcc4>
    1fd6:	0499      	lsls	r1, r3, #18
    1fd8:	d501      	bpl.n	1fde <_vfprintf_r+0x52>
    1fda:	f000 ffa7 	bl	2f2c <_vfprintf_r+0xfa0>
    1fde:	2180      	movs	r1, #128	@ 0x80
    1fe0:	0189      	lsls	r1, r1, #6
    1fe2:	430b      	orrs	r3, r1
    1fe4:	4641      	mov	r1, r8
    1fe6:	818b      	strh	r3, [r1, #12]
    1fe8:	49d1      	ldr	r1, [pc, #836]	@ (2330 <_vfprintf_r+0x3a4>)
    1fea:	b21b      	sxth	r3, r3
    1fec:	400a      	ands	r2, r1
    1fee:	4641      	mov	r1, r8
    1ff0:	664a      	str	r2, [r1, #100]	@ 0x64
    1ff2:	071a      	lsls	r2, r3, #28
    1ff4:	d401      	bmi.n	1ffa <_vfprintf_r+0x6e>
    1ff6:	f000 fe03 	bl	2c00 <_vfprintf_r+0xc74>
    1ffa:	4642      	mov	r2, r8
    1ffc:	6912      	ldr	r2, [r2, #16]
    1ffe:	2a00      	cmp	r2, #0
    2000:	d101      	bne.n	2006 <_vfprintf_r+0x7a>
    2002:	f000 fdfd 	bl	2c00 <_vfprintf_r+0xc74>
    2006:	221a      	movs	r2, #26
    2008:	401a      	ands	r2, r3
    200a:	2a0a      	cmp	r2, #10
    200c:	d101      	bne.n	2012 <_vfprintf_r+0x86>
    200e:	f000 fe08 	bl	2c22 <_vfprintf_r+0xc96>
    2012:	ab31      	add	r3, sp, #196	@ 0xc4
    2014:	932e      	str	r3, [sp, #184]	@ 0xb8
    2016:	2300      	movs	r3, #0
    2018:	2400      	movs	r4, #0
    201a:	9311      	str	r3, [sp, #68]	@ 0x44
    201c:	9330      	str	r3, [sp, #192]	@ 0xc0
    201e:	932f      	str	r3, [sp, #188]	@ 0xbc
    2020:	2300      	movs	r3, #0
    2022:	9318      	str	r3, [sp, #96]	@ 0x60
    2024:	9419      	str	r4, [sp, #100]	@ 0x64
    2026:	2300      	movs	r3, #0
    2028:	931f      	str	r3, [sp, #124]	@ 0x7c
    202a:	931d      	str	r3, [sp, #116]	@ 0x74
    202c:	9321      	str	r3, [sp, #132]	@ 0x84
    202e:	9320      	str	r3, [sp, #128]	@ 0x80
    2030:	930b      	str	r3, [sp, #44]	@ 0x2c
    2032:	4bc0      	ldr	r3, [pc, #768]	@ (2334 <_vfprintf_r+0x3a8>)
    2034:	465d      	mov	r5, fp
    2036:	9313      	str	r3, [sp, #76]	@ 0x4c
    2038:	4bbf      	ldr	r3, [pc, #764]	@ (2338 <_vfprintf_r+0x3ac>)
    203a:	af2e      	add	r7, sp, #184	@ 0xb8
    203c:	931e      	str	r3, [sp, #120]	@ 0x78
    203e:	4643      	mov	r3, r8
    2040:	9308      	str	r3, [sp, #32]
    2042:	782b      	ldrb	r3, [r5, #0]
    2044:	ae31      	add	r6, sp, #196	@ 0xc4
    2046:	2b00      	cmp	r3, #0
    2048:	d100      	bne.n	204c <_vfprintf_r+0xc0>
    204a:	e0b3      	b.n	21b4 <_vfprintf_r+0x228>
    204c:	002c      	movs	r4, r5
    204e:	e005      	b.n	205c <_vfprintf_r+0xd0>
    2050:	7863      	ldrb	r3, [r4, #1]
    2052:	3401      	adds	r4, #1
    2054:	2b00      	cmp	r3, #0
    2056:	d101      	bne.n	205c <_vfprintf_r+0xd0>
    2058:	f000 fca3 	bl	29a2 <_vfprintf_r+0xa16>
    205c:	2b25      	cmp	r3, #37	@ 0x25
    205e:	d1f7      	bne.n	2050 <_vfprintf_r+0xc4>
    2060:	1b63      	subs	r3, r4, r5
    2062:	4698      	mov	r8, r3
    2064:	42ac      	cmp	r4, r5
    2066:	d001      	beq.n	206c <_vfprintf_r+0xe0>
    2068:	f000 fca1 	bl	29ae <_vfprintf_r+0xa22>
    206c:	7823      	ldrb	r3, [r4, #0]
    206e:	2b00      	cmp	r3, #0
    2070:	d100      	bne.n	2074 <_vfprintf_r+0xe8>
    2072:	e09f      	b.n	21b4 <_vfprintf_r+0x228>
    2074:	1c63      	adds	r3, r4, #1
    2076:	9306      	str	r3, [sp, #24]
    2078:	2300      	movs	r3, #0
    207a:	aa20      	add	r2, sp, #128	@ 0x80
    207c:	76d3      	strb	r3, [r2, #27]
    207e:	2201      	movs	r2, #1
    2080:	4252      	negs	r2, r2
    2082:	920a      	str	r2, [sp, #40]	@ 0x28
    2084:	2200      	movs	r2, #0
    2086:	7863      	ldrb	r3, [r4, #1]
    2088:	0014      	movs	r4, r2
    208a:	920e      	str	r2, [sp, #56]	@ 0x38
    208c:	9a06      	ldr	r2, [sp, #24]
    208e:	3201      	adds	r2, #1
    2090:	9206      	str	r2, [sp, #24]
    2092:	001a      	movs	r2, r3
    2094:	3a20      	subs	r2, #32
    2096:	2a5a      	cmp	r2, #90	@ 0x5a
    2098:	d803      	bhi.n	20a2 <_vfprintf_r+0x116>
    209a:	9913      	ldr	r1, [sp, #76]	@ 0x4c
    209c:	0092      	lsls	r2, r2, #2
    209e:	588a      	ldr	r2, [r1, r2]
    20a0:	4697      	mov	pc, r2
    20a2:	4699      	mov	r9, r3
    20a4:	46a3      	mov	fp, r4
    20a6:	2b00      	cmp	r3, #0
    20a8:	d100      	bne.n	20ac <_vfprintf_r+0x120>
    20aa:	e083      	b.n	21b4 <_vfprintf_r+0x228>
    20ac:	ad41      	add	r5, sp, #260	@ 0x104
    20ae:	702b      	strb	r3, [r5, #0]
    20b0:	2300      	movs	r3, #0
    20b2:	aa20      	add	r2, sp, #128	@ 0x80
    20b4:	76d3      	strb	r3, [r2, #27]
    20b6:	930f      	str	r3, [sp, #60]	@ 0x3c
    20b8:	3301      	adds	r3, #1
    20ba:	930c      	str	r3, [sp, #48]	@ 0x30
    20bc:	2300      	movs	r3, #0
    20be:	930a      	str	r3, [sp, #40]	@ 0x28
    20c0:	931a      	str	r3, [sp, #104]	@ 0x68
    20c2:	9315      	str	r3, [sp, #84]	@ 0x54
    20c4:	9314      	str	r3, [sp, #80]	@ 0x50
    20c6:	3301      	adds	r3, #1
    20c8:	9309      	str	r3, [sp, #36]	@ 0x24
    20ca:	2384      	movs	r3, #132	@ 0x84
    20cc:	465a      	mov	r2, fp
    20ce:	401a      	ands	r2, r3
    20d0:	9212      	str	r2, [sp, #72]	@ 0x48
    20d2:	465a      	mov	r2, fp
    20d4:	68bc      	ldr	r4, [r7, #8]
    20d6:	4213      	tst	r3, r2
    20d8:	d100      	bne.n	20dc <_vfprintf_r+0x150>
    20da:	e169      	b.n	23b0 <_vfprintf_r+0x424>
    20dc:	ab20      	add	r3, sp, #128	@ 0x80
    20de:	7edb      	ldrb	r3, [r3, #27]
    20e0:	2b00      	cmp	r3, #0
    20e2:	d023      	beq.n	212c <_vfprintf_r+0x1a0>
    20e4:	2200      	movs	r2, #0
    20e6:	4690      	mov	r8, r2
    20e8:	687b      	ldr	r3, [r7, #4]
    20ea:	a920      	add	r1, sp, #128	@ 0x80
    20ec:	221b      	movs	r2, #27
    20ee:	468c      	mov	ip, r1
    20f0:	4462      	add	r2, ip
    20f2:	6032      	str	r2, [r6, #0]
    20f4:	2201      	movs	r2, #1
    20f6:	3401      	adds	r4, #1
    20f8:	3301      	adds	r3, #1
    20fa:	6072      	str	r2, [r6, #4]
    20fc:	60bc      	str	r4, [r7, #8]
    20fe:	607b      	str	r3, [r7, #4]
    2100:	2b07      	cmp	r3, #7
    2102:	dd01      	ble.n	2108 <_vfprintf_r+0x17c>
    2104:	f000 fdc6 	bl	2c94 <_vfprintf_r+0xd08>
    2108:	3608      	adds	r6, #8
    210a:	4643      	mov	r3, r8
    210c:	2b00      	cmp	r3, #0
    210e:	d00d      	beq.n	212c <_vfprintf_r+0x1a0>
    2110:	687b      	ldr	r3, [r7, #4]
    2112:	aa27      	add	r2, sp, #156	@ 0x9c
    2114:	6032      	str	r2, [r6, #0]
    2116:	2202      	movs	r2, #2
    2118:	3402      	adds	r4, #2
    211a:	3301      	adds	r3, #1
    211c:	6072      	str	r2, [r6, #4]
    211e:	60bc      	str	r4, [r7, #8]
    2120:	607b      	str	r3, [r7, #4]
    2122:	2b07      	cmp	r3, #7
    2124:	dd01      	ble.n	212a <_vfprintf_r+0x19e>
    2126:	f000 fda9 	bl	2c7c <_vfprintf_r+0xcf0>
    212a:	3608      	adds	r6, #8
    212c:	9b12      	ldr	r3, [sp, #72]	@ 0x48
    212e:	2b80      	cmp	r3, #128	@ 0x80
    2130:	d101      	bne.n	2136 <_vfprintf_r+0x1aa>
    2132:	f000 fc4e 	bl	29d2 <_vfprintf_r+0xa46>
    2136:	9b0a      	ldr	r3, [sp, #40]	@ 0x28
    2138:	9a0c      	ldr	r2, [sp, #48]	@ 0x30
    213a:	1a9b      	subs	r3, r3, r2
    213c:	4698      	mov	r8, r3
    213e:	2b00      	cmp	r3, #0
    2140:	dd00      	ble.n	2144 <_vfprintf_r+0x1b8>
    2142:	e148      	b.n	23d6 <_vfprintf_r+0x44a>
    2144:	465b      	mov	r3, fp
    2146:	05db      	lsls	r3, r3, #23
    2148:	d500      	bpl.n	214c <_vfprintf_r+0x1c0>
    214a:	e182      	b.n	2452 <_vfprintf_r+0x4c6>
    214c:	9b0c      	ldr	r3, [sp, #48]	@ 0x30
    214e:	6035      	str	r5, [r6, #0]
    2150:	469c      	mov	ip, r3
    2152:	6073      	str	r3, [r6, #4]
    2154:	687b      	ldr	r3, [r7, #4]
    2156:	4464      	add	r4, ip
    2158:	3301      	adds	r3, #1
    215a:	60bc      	str	r4, [r7, #8]
    215c:	607b      	str	r3, [r7, #4]
    215e:	2b07      	cmp	r3, #7
    2160:	dd00      	ble.n	2164 <_vfprintf_r+0x1d8>
    2162:	e09b      	b.n	229c <_vfprintf_r+0x310>
    2164:	3608      	adds	r6, #8
    2166:	465b      	mov	r3, fp
    2168:	075b      	lsls	r3, r3, #29
    216a:	d506      	bpl.n	217a <_vfprintf_r+0x1ee>
    216c:	9b0e      	ldr	r3, [sp, #56]	@ 0x38
    216e:	9a09      	ldr	r2, [sp, #36]	@ 0x24
    2170:	1a9d      	subs	r5, r3, r2
    2172:	2d00      	cmp	r5, #0
    2174:	dd01      	ble.n	217a <_vfprintf_r+0x1ee>
    2176:	f000 fd99 	bl	2cac <_vfprintf_r+0xd20>
    217a:	9b0e      	ldr	r3, [sp, #56]	@ 0x38
    217c:	9a09      	ldr	r2, [sp, #36]	@ 0x24
    217e:	4293      	cmp	r3, r2
    2180:	da00      	bge.n	2184 <_vfprintf_r+0x1f8>
    2182:	0013      	movs	r3, r2
    2184:	9a0b      	ldr	r2, [sp, #44]	@ 0x2c
    2186:	4694      	mov	ip, r2
    2188:	449c      	add	ip, r3
    218a:	4663      	mov	r3, ip
    218c:	930b      	str	r3, [sp, #44]	@ 0x2c
    218e:	2c00      	cmp	r4, #0
    2190:	d001      	beq.n	2196 <_vfprintf_r+0x20a>
    2192:	f000 fc60 	bl	2a56 <_vfprintf_r+0xaca>
    2196:	2300      	movs	r3, #0
    2198:	607b      	str	r3, [r7, #4]
    219a:	9b0f      	ldr	r3, [sp, #60]	@ 0x3c
    219c:	2b00      	cmp	r3, #0
    219e:	d003      	beq.n	21a8 <_vfprintf_r+0x21c>
    21a0:	990f      	ldr	r1, [sp, #60]	@ 0x3c
    21a2:	9807      	ldr	r0, [sp, #28]
    21a4:	f7ff fafa 	bl	179c <_free_r>
    21a8:	9d06      	ldr	r5, [sp, #24]
    21aa:	ae31      	add	r6, sp, #196	@ 0xc4
    21ac:	782b      	ldrb	r3, [r5, #0]
    21ae:	2b00      	cmp	r3, #0
    21b0:	d000      	beq.n	21b4 <_vfprintf_r+0x228>
    21b2:	e74b      	b.n	204c <_vfprintf_r+0xc0>
    21b4:	9b08      	ldr	r3, [sp, #32]
    21b6:	4698      	mov	r8, r3
    21b8:	68bb      	ldr	r3, [r7, #8]
    21ba:	2b00      	cmp	r3, #0
    21bc:	d001      	beq.n	21c2 <_vfprintf_r+0x236>
    21be:	f001 fa00 	bl	35c2 <_vfprintf_r+0x1636>
    21c2:	2300      	movs	r3, #0
    21c4:	607b      	str	r3, [r7, #4]
    21c6:	f000 fc57 	bl	2a78 <_vfprintf_r+0xaec>
    21ca:	3b30      	subs	r3, #48	@ 0x30
    21cc:	2000      	movs	r0, #0
    21ce:	0019      	movs	r1, r3
    21d0:	9a06      	ldr	r2, [sp, #24]
    21d2:	0083      	lsls	r3, r0, #2
    21d4:	181b      	adds	r3, r3, r0
    21d6:	005b      	lsls	r3, r3, #1
    21d8:	18c8      	adds	r0, r1, r3
    21da:	7813      	ldrb	r3, [r2, #0]
    21dc:	3201      	adds	r2, #1
    21de:	0019      	movs	r1, r3
    21e0:	3930      	subs	r1, #48	@ 0x30
    21e2:	2909      	cmp	r1, #9
    21e4:	d9f5      	bls.n	21d2 <_vfprintf_r+0x246>
    21e6:	900e      	str	r0, [sp, #56]	@ 0x38
    21e8:	9206      	str	r2, [sp, #24]
    21ea:	e752      	b.n	2092 <_vfprintf_r+0x106>
    21ec:	2207      	movs	r2, #7
    21ee:	4699      	mov	r9, r3
    21f0:	9b10      	ldr	r3, [sp, #64]	@ 0x40
    21f2:	46a3      	mov	fp, r4
    21f4:	3307      	adds	r3, #7
    21f6:	4393      	bics	r3, r2
    21f8:	001a      	movs	r2, r3
    21fa:	ca18      	ldmia	r2!, {r3, r4}
    21fc:	0019      	movs	r1, r3
    21fe:	9210      	str	r2, [sp, #64]	@ 0x40
    2200:	0022      	movs	r2, r4
    2202:	9118      	str	r1, [sp, #96]	@ 0x60
    2204:	9219      	str	r2, [sp, #100]	@ 0x64
    2206:	2201      	movs	r2, #1
    2208:	9322      	str	r3, [sp, #136]	@ 0x88
    220a:	9b19      	ldr	r3, [sp, #100]	@ 0x64
    220c:	4252      	negs	r2, r2
    220e:	005b      	lsls	r3, r3, #1
    2210:	085b      	lsrs	r3, r3, #1
    2212:	9323      	str	r3, [sp, #140]	@ 0x8c
    2214:	9822      	ldr	r0, [sp, #136]	@ 0x88
    2216:	9923      	ldr	r1, [sp, #140]	@ 0x8c
    2218:	4b48      	ldr	r3, [pc, #288]	@ (233c <_vfprintf_r+0x3b0>)
    221a:	f007 f9c3 	bl	95a4 <__aeabi_dcmpun>
    221e:	2800      	cmp	r0, #0
    2220:	d001      	beq.n	2226 <_vfprintf_r+0x29a>
    2222:	f000 fedf 	bl	2fe4 <_vfprintf_r+0x1058>
    2226:	9822      	ldr	r0, [sp, #136]	@ 0x88
    2228:	9923      	ldr	r1, [sp, #140]	@ 0x8c
    222a:	2201      	movs	r2, #1
    222c:	4b43      	ldr	r3, [pc, #268]	@ (233c <_vfprintf_r+0x3b0>)
    222e:	4252      	negs	r2, r2
    2230:	f7fe f82a 	bl	288 <__aeabi_dcmple>
    2234:	2800      	cmp	r0, #0
    2236:	d001      	beq.n	223c <_vfprintf_r+0x2b0>
    2238:	f000 fed4 	bl	2fe4 <_vfprintf_r+0x1058>
    223c:	9818      	ldr	r0, [sp, #96]	@ 0x60
    223e:	9919      	ldr	r1, [sp, #100]	@ 0x64
    2240:	2380      	movs	r3, #128	@ 0x80
    2242:	465a      	mov	r2, fp
    2244:	439a      	bics	r2, r3
    2246:	4693      	mov	fp, r2
    2248:	2300      	movs	r3, #0
    224a:	2200      	movs	r2, #0
    224c:	f7fe f812 	bl	274 <__aeabi_dcmplt>
    2250:	2800      	cmp	r0, #0
    2252:	d001      	beq.n	2258 <_vfprintf_r+0x2cc>
    2254:	f001 fbda 	bl	3a0c <_vfprintf_r+0x1a80>
    2258:	464a      	mov	r2, r9
    225a:	ab20      	add	r3, sp, #128	@ 0x80
    225c:	7edb      	ldrb	r3, [r3, #27]
    225e:	2a47      	cmp	r2, #71	@ 0x47
    2260:	dc01      	bgt.n	2266 <_vfprintf_r+0x2da>
    2262:	f001 f9c1 	bl	35e8 <_vfprintf_r+0x165c>
    2266:	4d36      	ldr	r5, [pc, #216]	@ (2340 <_vfprintf_r+0x3b4>)
    2268:	2b00      	cmp	r3, #0
    226a:	d001      	beq.n	2270 <_vfprintf_r+0x2e4>
    226c:	f001 ff92 	bl	4194 <_vfprintf_r+0x2208>
    2270:	930f      	str	r3, [sp, #60]	@ 0x3c
    2272:	3303      	adds	r3, #3
    2274:	930c      	str	r3, [sp, #48]	@ 0x30
    2276:	2300      	movs	r3, #0
    2278:	930a      	str	r3, [sp, #40]	@ 0x28
    227a:	931a      	str	r3, [sp, #104]	@ 0x68
    227c:	9315      	str	r3, [sp, #84]	@ 0x54
    227e:	9314      	str	r3, [sp, #80]	@ 0x50
    2280:	3303      	adds	r3, #3
    2282:	9309      	str	r3, [sp, #36]	@ 0x24
    2284:	e721      	b.n	20ca <_vfprintf_r+0x13e>
    2286:	0014      	movs	r4, r2
    2288:	9a12      	ldr	r2, [sp, #72]	@ 0x48
    228a:	1964      	adds	r4, r4, r5
    228c:	3301      	adds	r3, #1
    228e:	6032      	str	r2, [r6, #0]
    2290:	6075      	str	r5, [r6, #4]
    2292:	60bc      	str	r4, [r7, #8]
    2294:	607b      	str	r3, [r7, #4]
    2296:	2b07      	cmp	r3, #7
    2298:	dc00      	bgt.n	229c <_vfprintf_r+0x310>
    229a:	e763      	b.n	2164 <_vfprintf_r+0x1d8>
    229c:	003a      	movs	r2, r7
    229e:	9908      	ldr	r1, [sp, #32]
    22a0:	9807      	ldr	r0, [sp, #28]
    22a2:	f002 f89b 	bl	43dc <__sprint_r>
    22a6:	2800      	cmp	r0, #0
    22a8:	d000      	beq.n	22ac <_vfprintf_r+0x320>
    22aa:	e3dd      	b.n	2a68 <_vfprintf_r+0xadc>
    22ac:	68bc      	ldr	r4, [r7, #8]
    22ae:	ae31      	add	r6, sp, #196	@ 0xc4
    22b0:	e759      	b.n	2166 <_vfprintf_r+0x1da>
    22b2:	9b06      	ldr	r3, [sp, #24]
    22b4:	781b      	ldrb	r3, [r3, #0]
    22b6:	e6e9      	b.n	208c <_vfprintf_r+0x100>
    22b8:	2320      	movs	r3, #32
    22ba:	431c      	orrs	r4, r3
    22bc:	9b06      	ldr	r3, [sp, #24]
    22be:	781b      	ldrb	r3, [r3, #0]
    22c0:	e6e4      	b.n	208c <_vfprintf_r+0x100>
    22c2:	4699      	mov	r9, r3
    22c4:	0023      	movs	r3, r4
    22c6:	46a3      	mov	fp, r4
    22c8:	069b      	lsls	r3, r3, #26
    22ca:	d401      	bmi.n	22d0 <_vfprintf_r+0x344>
    22cc:	f000 ff0b 	bl	30e6 <_vfprintf_r+0x115a>
    22d0:	2307      	movs	r3, #7
    22d2:	9a10      	ldr	r2, [sp, #64]	@ 0x40
    22d4:	3207      	adds	r2, #7
    22d6:	439a      	bics	r2, r3
    22d8:	3301      	adds	r3, #1
    22da:	469c      	mov	ip, r3
    22dc:	4494      	add	ip, r2
    22de:	4663      	mov	r3, ip
    22e0:	9310      	str	r3, [sp, #64]	@ 0x40
    22e2:	ca0c      	ldmia	r2, {r2, r3}
    22e4:	9216      	str	r2, [sp, #88]	@ 0x58
    22e6:	9317      	str	r3, [sp, #92]	@ 0x5c
    22e8:	2b00      	cmp	r3, #0
    22ea:	da00      	bge.n	22ee <_vfprintf_r+0x362>
    22ec:	e257      	b.n	279e <_vfprintf_r+0x812>
    22ee:	990a      	ldr	r1, [sp, #40]	@ 0x28
    22f0:	2900      	cmp	r1, #0
    22f2:	da00      	bge.n	22f6 <_vfprintf_r+0x36a>
    22f4:	e123      	b.n	253e <_vfprintf_r+0x5b2>
    22f6:	2380      	movs	r3, #128	@ 0x80
    22f8:	465a      	mov	r2, fp
    22fa:	439a      	bics	r2, r3
    22fc:	4693      	mov	fp, r2
    22fe:	9a16      	ldr	r2, [sp, #88]	@ 0x58
    2300:	9b17      	ldr	r3, [sp, #92]	@ 0x5c
    2302:	0010      	movs	r0, r2
    2304:	4318      	orrs	r0, r3
    2306:	d000      	beq.n	230a <_vfprintf_r+0x37e>
    2308:	e119      	b.n	253e <_vfprintf_r+0x5b2>
    230a:	2900      	cmp	r1, #0
    230c:	d101      	bne.n	2312 <_vfprintf_r+0x386>
    230e:	f001 f963 	bl	35d8 <_vfprintf_r+0x164c>
    2312:	2330      	movs	r3, #48	@ 0x30
    2314:	e11e      	b.n	2554 <_vfprintf_r+0x5c8>
    2316:	4699      	mov	r9, r3
    2318:	9b10      	ldr	r3, [sp, #64]	@ 0x40
    231a:	ad41      	add	r5, sp, #260	@ 0x104
    231c:	cb04      	ldmia	r3!, {r2}
    231e:	a920      	add	r1, sp, #128	@ 0x80
    2320:	702a      	strb	r2, [r5, #0]
    2322:	2200      	movs	r2, #0
    2324:	9310      	str	r3, [sp, #64]	@ 0x40
    2326:	46a3      	mov	fp, r4
    2328:	2300      	movs	r3, #0
    232a:	76ca      	strb	r2, [r1, #27]
    232c:	e6c3      	b.n	20b6 <_vfprintf_r+0x12a>
    232e:	46c0      	nop			@ (mov r8, r8)
    2330:	ffffdfff 	.word	0xffffdfff
    2334:	00009904 	.word	0x00009904
    2338:	00009b08 	.word	0x00009b08
    233c:	7fefffff 	.word	0x7fefffff
    2340:	000097bc 	.word	0x000097bc
    2344:	4699      	mov	r9, r3
    2346:	2300      	movs	r3, #0
    2348:	46a3      	mov	fp, r4
    234a:	9c10      	ldr	r4, [sp, #64]	@ 0x40
    234c:	aa20      	add	r2, sp, #128	@ 0x80
    234e:	cc20      	ldmia	r4!, {r5}
    2350:	76d3      	strb	r3, [r2, #27]
    2352:	9b0a      	ldr	r3, [sp, #40]	@ 0x28
    2354:	2d00      	cmp	r5, #0
    2356:	d101      	bne.n	235c <_vfprintf_r+0x3d0>
    2358:	f000 ffa3 	bl	32a2 <_vfprintf_r+0x1316>
    235c:	2b00      	cmp	r3, #0
    235e:	da01      	bge.n	2364 <_vfprintf_r+0x3d8>
    2360:	f001 f897 	bl	3492 <_vfprintf_r+0x1506>
    2364:	001a      	movs	r2, r3
    2366:	2100      	movs	r1, #0
    2368:	0028      	movs	r0, r5
    236a:	f002 fe21 	bl	4fb0 <memchr>
    236e:	aa20      	add	r2, sp, #128	@ 0x80
    2370:	7ed2      	ldrb	r2, [r2, #27]
    2372:	900f      	str	r0, [sp, #60]	@ 0x3c
    2374:	2800      	cmp	r0, #0
    2376:	d101      	bne.n	237c <_vfprintf_r+0x3f0>
    2378:	f001 fd14 	bl	3da4 <_vfprintf_r+0x1e18>
    237c:	1b41      	subs	r1, r0, r5
    237e:	43cb      	mvns	r3, r1
    2380:	17db      	asrs	r3, r3, #31
    2382:	910c      	str	r1, [sp, #48]	@ 0x30
    2384:	4019      	ands	r1, r3
    2386:	9109      	str	r1, [sp, #36]	@ 0x24
    2388:	2a00      	cmp	r2, #0
    238a:	d001      	beq.n	2390 <_vfprintf_r+0x404>
    238c:	3101      	adds	r1, #1
    238e:	9109      	str	r1, [sp, #36]	@ 0x24
    2390:	2300      	movs	r3, #0
    2392:	465a      	mov	r2, fp
    2394:	930f      	str	r3, [sp, #60]	@ 0x3c
    2396:	930a      	str	r3, [sp, #40]	@ 0x28
    2398:	931a      	str	r3, [sp, #104]	@ 0x68
    239a:	9315      	str	r3, [sp, #84]	@ 0x54
    239c:	9314      	str	r3, [sp, #80]	@ 0x50
    239e:	2384      	movs	r3, #132	@ 0x84
    23a0:	401a      	ands	r2, r3
    23a2:	9212      	str	r2, [sp, #72]	@ 0x48
    23a4:	465a      	mov	r2, fp
    23a6:	9410      	str	r4, [sp, #64]	@ 0x40
    23a8:	68bc      	ldr	r4, [r7, #8]
    23aa:	4213      	tst	r3, r2
    23ac:	d000      	beq.n	23b0 <_vfprintf_r+0x424>
    23ae:	e695      	b.n	20dc <_vfprintf_r+0x150>
    23b0:	9b0e      	ldr	r3, [sp, #56]	@ 0x38
    23b2:	9a09      	ldr	r2, [sp, #36]	@ 0x24
    23b4:	1a9b      	subs	r3, r3, r2
    23b6:	4698      	mov	r8, r3
    23b8:	2b00      	cmp	r3, #0
    23ba:	dd00      	ble.n	23be <_vfprintf_r+0x432>
    23bc:	e3d6      	b.n	2b6c <_vfprintf_r+0xbe0>
    23be:	ab20      	add	r3, sp, #128	@ 0x80
    23c0:	7edb      	ldrb	r3, [r3, #27]
    23c2:	2b00      	cmp	r3, #0
    23c4:	d000      	beq.n	23c8 <_vfprintf_r+0x43c>
    23c6:	e68d      	b.n	20e4 <_vfprintf_r+0x158>
    23c8:	9b0a      	ldr	r3, [sp, #40]	@ 0x28
    23ca:	9a0c      	ldr	r2, [sp, #48]	@ 0x30
    23cc:	1a9b      	subs	r3, r3, r2
    23ce:	4698      	mov	r8, r3
    23d0:	2b00      	cmp	r3, #0
    23d2:	dc00      	bgt.n	23d6 <_vfprintf_r+0x44a>
    23d4:	e6b6      	b.n	2144 <_vfprintf_r+0x1b8>
    23d6:	4642      	mov	r2, r8
    23d8:	687b      	ldr	r3, [r7, #4]
    23da:	2a10      	cmp	r2, #16
    23dc:	dc01      	bgt.n	23e2 <_vfprintf_r+0x456>
    23de:	f001 f8ec 	bl	35ba <_vfprintf_r+0x162e>
    23e2:	2210      	movs	r2, #16
    23e4:	991e      	ldr	r1, [sp, #120]	@ 0x78
    23e6:	4692      	mov	sl, r2
    23e8:	9112      	str	r1, [sp, #72]	@ 0x48
    23ea:	0022      	movs	r2, r4
    23ec:	4644      	mov	r4, r8
    23ee:	46a8      	mov	r8, r5
    23f0:	000d      	movs	r5, r1
    23f2:	e003      	b.n	23fc <_vfprintf_r+0x470>
    23f4:	3c10      	subs	r4, #16
    23f6:	3608      	adds	r6, #8
    23f8:	2c10      	cmp	r4, #16
    23fa:	dd16      	ble.n	242a <_vfprintf_r+0x49e>
    23fc:	4651      	mov	r1, sl
    23fe:	3210      	adds	r2, #16
    2400:	3301      	adds	r3, #1
    2402:	6035      	str	r5, [r6, #0]
    2404:	6071      	str	r1, [r6, #4]
    2406:	60ba      	str	r2, [r7, #8]
    2408:	607b      	str	r3, [r7, #4]
    240a:	2b07      	cmp	r3, #7
    240c:	ddf2      	ble.n	23f4 <_vfprintf_r+0x468>
    240e:	003a      	movs	r2, r7
    2410:	9908      	ldr	r1, [sp, #32]
    2412:	9807      	ldr	r0, [sp, #28]
    2414:	f001 ffe2 	bl	43dc <__sprint_r>
    2418:	2800      	cmp	r0, #0
    241a:	d000      	beq.n	241e <_vfprintf_r+0x492>
    241c:	e324      	b.n	2a68 <_vfprintf_r+0xadc>
    241e:	3c10      	subs	r4, #16
    2420:	68ba      	ldr	r2, [r7, #8]
    2422:	687b      	ldr	r3, [r7, #4]
    2424:	ae31      	add	r6, sp, #196	@ 0xc4
    2426:	2c10      	cmp	r4, #16
    2428:	dce8      	bgt.n	23fc <_vfprintf_r+0x470>
    242a:	4645      	mov	r5, r8
    242c:	46a0      	mov	r8, r4
    242e:	0014      	movs	r4, r2
    2430:	9a12      	ldr	r2, [sp, #72]	@ 0x48
    2432:	4444      	add	r4, r8
    2434:	6032      	str	r2, [r6, #0]
    2436:	4642      	mov	r2, r8
    2438:	3301      	adds	r3, #1
    243a:	6072      	str	r2, [r6, #4]
    243c:	60bc      	str	r4, [r7, #8]
    243e:	607b      	str	r3, [r7, #4]
    2440:	2b07      	cmp	r3, #7
    2442:	dd01      	ble.n	2448 <_vfprintf_r+0x4bc>
    2444:	f000 fd66 	bl	2f14 <_vfprintf_r+0xf88>
    2448:	465b      	mov	r3, fp
    244a:	3608      	adds	r6, #8
    244c:	05db      	lsls	r3, r3, #23
    244e:	d400      	bmi.n	2452 <_vfprintf_r+0x4c6>
    2450:	e67c      	b.n	214c <_vfprintf_r+0x1c0>
    2452:	464b      	mov	r3, r9
    2454:	2b65      	cmp	r3, #101	@ 0x65
    2456:	dc00      	bgt.n	245a <_vfprintf_r+0x4ce>
    2458:	e324      	b.n	2aa4 <_vfprintf_r+0xb18>
    245a:	9818      	ldr	r0, [sp, #96]	@ 0x60
    245c:	9919      	ldr	r1, [sp, #100]	@ 0x64
    245e:	2200      	movs	r2, #0
    2460:	2300      	movs	r3, #0
    2462:	f7fd ff01 	bl	268 <__aeabi_dcmpeq>
    2466:	2800      	cmp	r0, #0
    2468:	d101      	bne.n	246e <_vfprintf_r+0x4e2>
    246a:	f000 fc5d 	bl	2d28 <_vfprintf_r+0xd9c>
    246e:	4bde      	ldr	r3, [pc, #888]	@ (27e8 <_vfprintf_r+0x85c>)
    2470:	3401      	adds	r4, #1
    2472:	6033      	str	r3, [r6, #0]
    2474:	2301      	movs	r3, #1
    2476:	6073      	str	r3, [r6, #4]
    2478:	687b      	ldr	r3, [r7, #4]
    247a:	60bc      	str	r4, [r7, #8]
    247c:	3301      	adds	r3, #1
    247e:	607b      	str	r3, [r7, #4]
    2480:	2b07      	cmp	r3, #7
    2482:	dd01      	ble.n	2488 <_vfprintf_r+0x4fc>
    2484:	f000 ffc2 	bl	340c <_vfprintf_r+0x1480>
    2488:	3608      	adds	r6, #8
    248a:	9b28      	ldr	r3, [sp, #160]	@ 0xa0
    248c:	9a11      	ldr	r2, [sp, #68]	@ 0x44
    248e:	4293      	cmp	r3, r2
    2490:	db01      	blt.n	2496 <_vfprintf_r+0x50a>
    2492:	f000 fd51 	bl	2f38 <_vfprintf_r+0xfac>
    2496:	9b1c      	ldr	r3, [sp, #112]	@ 0x70
    2498:	6033      	str	r3, [r6, #0]
    249a:	9b1b      	ldr	r3, [sp, #108]	@ 0x6c
    249c:	469c      	mov	ip, r3
    249e:	6073      	str	r3, [r6, #4]
    24a0:	687b      	ldr	r3, [r7, #4]
    24a2:	4464      	add	r4, ip
    24a4:	3301      	adds	r3, #1
    24a6:	60bc      	str	r4, [r7, #8]
    24a8:	607b      	str	r3, [r7, #4]
    24aa:	2b07      	cmp	r3, #7
    24ac:	dd01      	ble.n	24b2 <_vfprintf_r+0x526>
    24ae:	f000 fee0 	bl	3272 <_vfprintf_r+0x12e6>
    24b2:	3608      	adds	r6, #8
    24b4:	9b11      	ldr	r3, [sp, #68]	@ 0x44
    24b6:	1e5d      	subs	r5, r3, #1
    24b8:	2d00      	cmp	r5, #0
    24ba:	dc00      	bgt.n	24be <_vfprintf_r+0x532>
    24bc:	e653      	b.n	2166 <_vfprintf_r+0x1da>
    24be:	687b      	ldr	r3, [r7, #4]
    24c0:	2d10      	cmp	r5, #16
    24c2:	dc01      	bgt.n	24c8 <_vfprintf_r+0x53c>
    24c4:	f001 feba 	bl	423c <_vfprintf_r+0x22b0>
    24c8:	2210      	movs	r2, #16
    24ca:	49c8      	ldr	r1, [pc, #800]	@ (27ec <_vfprintf_r+0x860>)
    24cc:	4690      	mov	r8, r2
    24ce:	9112      	str	r1, [sp, #72]	@ 0x48
    24d0:	0022      	movs	r2, r4
    24d2:	000c      	movs	r4, r1
    24d4:	e004      	b.n	24e0 <_vfprintf_r+0x554>
    24d6:	3608      	adds	r6, #8
    24d8:	3d10      	subs	r5, #16
    24da:	2d10      	cmp	r5, #16
    24dc:	dc00      	bgt.n	24e0 <_vfprintf_r+0x554>
    24de:	e6d2      	b.n	2286 <_vfprintf_r+0x2fa>
    24e0:	4641      	mov	r1, r8
    24e2:	3210      	adds	r2, #16
    24e4:	3301      	adds	r3, #1
    24e6:	6034      	str	r4, [r6, #0]
    24e8:	6071      	str	r1, [r6, #4]
    24ea:	60ba      	str	r2, [r7, #8]
    24ec:	607b      	str	r3, [r7, #4]
    24ee:	2b07      	cmp	r3, #7
    24f0:	ddf1      	ble.n	24d6 <_vfprintf_r+0x54a>
    24f2:	003a      	movs	r2, r7
    24f4:	9908      	ldr	r1, [sp, #32]
    24f6:	9807      	ldr	r0, [sp, #28]
    24f8:	f001 ff70 	bl	43dc <__sprint_r>
    24fc:	2800      	cmp	r0, #0
    24fe:	d000      	beq.n	2502 <_vfprintf_r+0x576>
    2500:	e2b2      	b.n	2a68 <_vfprintf_r+0xadc>
    2502:	68ba      	ldr	r2, [r7, #8]
    2504:	687b      	ldr	r3, [r7, #4]
    2506:	ae31      	add	r6, sp, #196	@ 0xc4
    2508:	e7e6      	b.n	24d8 <_vfprintf_r+0x54c>
    250a:	4699      	mov	r9, r3
    250c:	2010      	movs	r0, #16
    250e:	0023      	movs	r3, r4
    2510:	4320      	orrs	r0, r4
    2512:	069b      	lsls	r3, r3, #26
    2514:	d401      	bmi.n	251a <_vfprintf_r+0x58e>
    2516:	f000 fdc2 	bl	309e <_vfprintf_r+0x1112>
    251a:	2207      	movs	r2, #7
    251c:	9b10      	ldr	r3, [sp, #64]	@ 0x40
    251e:	3307      	adds	r3, #7
    2520:	4393      	bics	r3, r2
    2522:	001a      	movs	r2, r3
    2524:	ca18      	ldmia	r2!, {r3, r4}
    2526:	9316      	str	r3, [sp, #88]	@ 0x58
    2528:	9417      	str	r4, [sp, #92]	@ 0x5c
    252a:	2300      	movs	r3, #0
    252c:	9210      	str	r2, [sp, #64]	@ 0x40
    252e:	aa20      	add	r2, sp, #128	@ 0x80
    2530:	76d3      	strb	r3, [r2, #27]
    2532:	9b0a      	ldr	r3, [sp, #40]	@ 0x28
    2534:	2b00      	cmp	r3, #0
    2536:	db01      	blt.n	253c <_vfprintf_r+0x5b0>
    2538:	f000 fd05 	bl	2f46 <_vfprintf_r+0xfba>
    253c:	4683      	mov	fp, r0
    253e:	9b16      	ldr	r3, [sp, #88]	@ 0x58
    2540:	9c17      	ldr	r4, [sp, #92]	@ 0x5c
    2542:	2c00      	cmp	r4, #0
    2544:	d000      	beq.n	2548 <_vfprintf_r+0x5bc>
    2546:	e141      	b.n	27cc <_vfprintf_r+0x840>
    2548:	2b09      	cmp	r3, #9
    254a:	d900      	bls.n	254e <_vfprintf_r+0x5c2>
    254c:	e13e      	b.n	27cc <_vfprintf_r+0x840>
    254e:	9b16      	ldr	r3, [sp, #88]	@ 0x58
    2550:	3330      	adds	r3, #48	@ 0x30
    2552:	b2db      	uxtb	r3, r3
    2554:	2084      	movs	r0, #132	@ 0x84
    2556:	2263      	movs	r2, #99	@ 0x63
    2558:	a920      	add	r1, sp, #128	@ 0x80
    255a:	1809      	adds	r1, r1, r0
    255c:	548b      	strb	r3, [r1, r2]
    255e:	9b0a      	ldr	r3, [sp, #40]	@ 0x28
    2560:	9309      	str	r3, [sp, #36]	@ 0x24
    2562:	2b00      	cmp	r3, #0
    2564:	dc01      	bgt.n	256a <_vfprintf_r+0x5de>
    2566:	2301      	movs	r3, #1
    2568:	9309      	str	r3, [sp, #36]	@ 0x24
    256a:	2201      	movs	r2, #1
    256c:	920c      	str	r2, [sp, #48]	@ 0x30
    256e:	aa20      	add	r2, sp, #128	@ 0x80
    2570:	25e7      	movs	r5, #231	@ 0xe7
    2572:	4694      	mov	ip, r2
    2574:	ab20      	add	r3, sp, #128	@ 0x80
    2576:	7edb      	ldrb	r3, [r3, #27]
    2578:	4465      	add	r5, ip
    257a:	2b00      	cmp	r3, #0
    257c:	d002      	beq.n	2584 <_vfprintf_r+0x5f8>
    257e:	9b09      	ldr	r3, [sp, #36]	@ 0x24
    2580:	3301      	adds	r3, #1
    2582:	9309      	str	r3, [sp, #36]	@ 0x24
    2584:	2300      	movs	r3, #0
    2586:	930f      	str	r3, [sp, #60]	@ 0x3c
    2588:	931a      	str	r3, [sp, #104]	@ 0x68
    258a:	9315      	str	r3, [sp, #84]	@ 0x54
    258c:	9314      	str	r3, [sp, #80]	@ 0x50
    258e:	e59c      	b.n	20ca <_vfprintf_r+0x13e>
    2590:	9a10      	ldr	r2, [sp, #64]	@ 0x40
    2592:	ca08      	ldmia	r2!, {r3}
    2594:	930e      	str	r3, [sp, #56]	@ 0x38
    2596:	2b00      	cmp	r3, #0
    2598:	db01      	blt.n	259e <_vfprintf_r+0x612>
    259a:	f000 fce8 	bl	2f6e <_vfprintf_r+0xfe2>
    259e:	9b0e      	ldr	r3, [sp, #56]	@ 0x38
    25a0:	9210      	str	r2, [sp, #64]	@ 0x40
    25a2:	425b      	negs	r3, r3
    25a4:	930e      	str	r3, [sp, #56]	@ 0x38
    25a6:	2304      	movs	r3, #4
    25a8:	431c      	orrs	r4, r3
    25aa:	9b06      	ldr	r3, [sp, #24]
    25ac:	781b      	ldrb	r3, [r3, #0]
    25ae:	e56d      	b.n	208c <_vfprintf_r+0x100>
    25b0:	4699      	mov	r9, r3
    25b2:	2010      	movs	r0, #16
    25b4:	0023      	movs	r3, r4
    25b6:	4320      	orrs	r0, r4
    25b8:	069b      	lsls	r3, r3, #26
    25ba:	d401      	bmi.n	25c0 <_vfprintf_r+0x634>
    25bc:	f000 fd56 	bl	306c <_vfprintf_r+0x10e0>
    25c0:	2307      	movs	r3, #7
    25c2:	9a10      	ldr	r2, [sp, #64]	@ 0x40
    25c4:	3207      	adds	r2, #7
    25c6:	439a      	bics	r2, r3
    25c8:	3301      	adds	r3, #1
    25ca:	469c      	mov	ip, r3
    25cc:	4494      	add	ip, r2
    25ce:	4663      	mov	r3, ip
    25d0:	9310      	str	r3, [sp, #64]	@ 0x40
    25d2:	6813      	ldr	r3, [r2, #0]
    25d4:	6852      	ldr	r2, [r2, #4]
    25d6:	2100      	movs	r1, #0
    25d8:	ac20      	add	r4, sp, #128	@ 0x80
    25da:	76e1      	strb	r1, [r4, #27]
    25dc:	990a      	ldr	r1, [sp, #40]	@ 0x28
    25de:	2900      	cmp	r1, #0
    25e0:	db21      	blt.n	2626 <_vfprintf_r+0x69a>
    25e2:	4983      	ldr	r1, [pc, #524]	@ (27f0 <_vfprintf_r+0x864>)
    25e4:	4001      	ands	r1, r0
    25e6:	468b      	mov	fp, r1
    25e8:	0019      	movs	r1, r3
    25ea:	4311      	orrs	r1, r2
    25ec:	d11e      	bne.n	262c <_vfprintf_r+0x6a0>
    25ee:	990a      	ldr	r1, [sp, #40]	@ 0x28
    25f0:	2900      	cmp	r1, #0
    25f2:	d11b      	bne.n	262c <_vfprintf_r+0x6a0>
    25f4:	2301      	movs	r3, #1
    25f6:	0019      	movs	r1, r3
    25f8:	4001      	ands	r1, r0
    25fa:	9109      	str	r1, [sp, #36]	@ 0x24
    25fc:	4203      	tst	r3, r0
    25fe:	d101      	bne.n	2604 <_vfprintf_r+0x678>
    2600:	f000 fed5 	bl	33ae <_vfprintf_r+0x1422>
    2604:	2484      	movs	r4, #132	@ 0x84
    2606:	2230      	movs	r2, #48	@ 0x30
    2608:	a820      	add	r0, sp, #128	@ 0x80
    260a:	3362      	adds	r3, #98	@ 0x62
    260c:	1900      	adds	r0, r0, r4
    260e:	54c2      	strb	r2, [r0, r3]
    2610:	2300      	movs	r3, #0
    2612:	931a      	str	r3, [sp, #104]	@ 0x68
    2614:	9315      	str	r3, [sp, #84]	@ 0x54
    2616:	9314      	str	r3, [sp, #80]	@ 0x50
    2618:	930f      	str	r3, [sp, #60]	@ 0x3c
    261a:	ab20      	add	r3, sp, #128	@ 0x80
    261c:	25e7      	movs	r5, #231	@ 0xe7
    261e:	469c      	mov	ip, r3
    2620:	910c      	str	r1, [sp, #48]	@ 0x30
    2622:	4465      	add	r5, ip
    2624:	e551      	b.n	20ca <_vfprintf_r+0x13e>
    2626:	4973      	ldr	r1, [pc, #460]	@ (27f4 <_vfprintf_r+0x868>)
    2628:	4008      	ands	r0, r1
    262a:	4683      	mov	fp, r0
    262c:	2107      	movs	r1, #7
    262e:	468c      	mov	ip, r1
    2630:	ad5a      	add	r5, sp, #360	@ 0x168
    2632:	4661      	mov	r1, ip
    2634:	0750      	lsls	r0, r2, #29
    2636:	4019      	ands	r1, r3
    2638:	08db      	lsrs	r3, r3, #3
    263a:	4303      	orrs	r3, r0
    263c:	0018      	movs	r0, r3
    263e:	002c      	movs	r4, r5
    2640:	3130      	adds	r1, #48	@ 0x30
    2642:	3d01      	subs	r5, #1
    2644:	08d2      	lsrs	r2, r2, #3
    2646:	7029      	strb	r1, [r5, #0]
    2648:	4310      	orrs	r0, r2
    264a:	d1f2      	bne.n	2632 <_vfprintf_r+0x6a6>
    264c:	2301      	movs	r3, #1
    264e:	465a      	mov	r2, fp
    2650:	401a      	ands	r2, r3
    2652:	9214      	str	r2, [sp, #80]	@ 0x50
    2654:	465a      	mov	r2, fp
    2656:	4213      	tst	r3, r2
    2658:	d001      	beq.n	265e <_vfprintf_r+0x6d2>
    265a:	f000 fc20 	bl	2e9e <_vfprintf_r+0xf12>
    265e:	9a0a      	ldr	r2, [sp, #40]	@ 0x28
    2660:	ab5a      	add	r3, sp, #360	@ 0x168
    2662:	1b5b      	subs	r3, r3, r5
    2664:	930c      	str	r3, [sp, #48]	@ 0x30
    2666:	9209      	str	r2, [sp, #36]	@ 0x24
    2668:	429a      	cmp	r2, r3
    266a:	da01      	bge.n	2670 <_vfprintf_r+0x6e4>
    266c:	f000 fcb3 	bl	2fd6 <_vfprintf_r+0x104a>
    2670:	2300      	movs	r3, #0
    2672:	931a      	str	r3, [sp, #104]	@ 0x68
    2674:	9315      	str	r3, [sp, #84]	@ 0x54
    2676:	930f      	str	r3, [sp, #60]	@ 0x3c
    2678:	e527      	b.n	20ca <_vfprintf_r+0x13e>
    267a:	2308      	movs	r3, #8
    267c:	431c      	orrs	r4, r3
    267e:	9b06      	ldr	r3, [sp, #24]
    2680:	781b      	ldrb	r3, [r3, #0]
    2682:	e503      	b.n	208c <_vfprintf_r+0x100>
    2684:	9b06      	ldr	r3, [sp, #24]
    2686:	781b      	ldrb	r3, [r3, #0]
    2688:	2b6c      	cmp	r3, #108	@ 0x6c
    268a:	d101      	bne.n	2690 <_vfprintf_r+0x704>
    268c:	f000 fe07 	bl	329e <_vfprintf_r+0x1312>
    2690:	2210      	movs	r2, #16
    2692:	4314      	orrs	r4, r2
    2694:	e4fa      	b.n	208c <_vfprintf_r+0x100>
    2696:	9b06      	ldr	r3, [sp, #24]
    2698:	781b      	ldrb	r3, [r3, #0]
    269a:	2b68      	cmp	r3, #104	@ 0x68
    269c:	d101      	bne.n	26a2 <_vfprintf_r+0x716>
    269e:	f000 fdf5 	bl	328c <_vfprintf_r+0x1300>
    26a2:	2240      	movs	r2, #64	@ 0x40
    26a4:	4314      	orrs	r4, r2
    26a6:	e4f1      	b.n	208c <_vfprintf_r+0x100>
    26a8:	2200      	movs	r2, #0
    26aa:	9910      	ldr	r1, [sp, #64]	@ 0x40
    26ac:	4852      	ldr	r0, [pc, #328]	@ (27f8 <_vfprintf_r+0x86c>)
    26ae:	9d0a      	ldr	r5, [sp, #40]	@ 0x28
    26b0:	46a3      	mov	fp, r4
    26b2:	ac20      	add	r4, sp, #128	@ 0x80
    26b4:	c908      	ldmia	r1!, {r3}
    26b6:	83a0      	strh	r0, [r4, #28]
    26b8:	76e2      	strb	r2, [r4, #27]
    26ba:	2d00      	cmp	r5, #0
    26bc:	da01      	bge.n	26c2 <_vfprintf_r+0x736>
    26be:	f000 fd2b 	bl	3118 <_vfprintf_r+0x118c>
    26c2:	2080      	movs	r0, #128	@ 0x80
    26c4:	465c      	mov	r4, fp
    26c6:	4384      	bics	r4, r0
    26c8:	387e      	subs	r0, #126	@ 0x7e
    26ca:	4304      	orrs	r4, r0
    26cc:	46a3      	mov	fp, r4
    26ce:	2b00      	cmp	r3, #0
    26d0:	d001      	beq.n	26d6 <_vfprintf_r+0x74a>
    26d2:	f000 feb2 	bl	343a <_vfprintf_r+0x14ae>
    26d6:	2d00      	cmp	r5, #0
    26d8:	d101      	bne.n	26de <_vfprintf_r+0x752>
    26da:	f000 ff88 	bl	35ee <_vfprintf_r+0x1662>
    26de:	2484      	movs	r4, #132	@ 0x84
    26e0:	a820      	add	r0, sp, #128	@ 0x80
    26e2:	3363      	adds	r3, #99	@ 0x63
    26e4:	3230      	adds	r2, #48	@ 0x30
    26e6:	1900      	adds	r0, r0, r4
    26e8:	54c2      	strb	r2, [r0, r3]
    26ea:	ab20      	add	r3, sp, #128	@ 0x80
    26ec:	469c      	mov	ip, r3
    26ee:	2300      	movs	r3, #0
    26f0:	9314      	str	r3, [sp, #80]	@ 0x50
    26f2:	3378      	adds	r3, #120	@ 0x78
    26f4:	4699      	mov	r9, r3
    26f6:	2300      	movs	r3, #0
    26f8:	9509      	str	r5, [sp, #36]	@ 0x24
    26fa:	25e7      	movs	r5, #231	@ 0xe7
    26fc:	931a      	str	r3, [sp, #104]	@ 0x68
    26fe:	9315      	str	r3, [sp, #84]	@ 0x54
    2700:	930f      	str	r3, [sp, #60]	@ 0x3c
    2702:	3301      	adds	r3, #1
    2704:	9110      	str	r1, [sp, #64]	@ 0x40
    2706:	4465      	add	r5, ip
    2708:	2100      	movs	r1, #0
    270a:	930c      	str	r3, [sp, #48]	@ 0x30
    270c:	f000 fd44 	bl	3198 <_vfprintf_r+0x120c>
    2710:	4699      	mov	r9, r3
    2712:	0023      	movs	r3, r4
    2714:	069b      	lsls	r3, r3, #26
    2716:	d501      	bpl.n	271c <_vfprintf_r+0x790>
    2718:	f000 fcb8 	bl	308c <_vfprintf_r+0x1100>
    271c:	0022      	movs	r2, r4
    271e:	9910      	ldr	r1, [sp, #64]	@ 0x40
    2720:	c908      	ldmia	r1!, {r3}
    2722:	06d2      	lsls	r2, r2, #27
    2724:	d501      	bpl.n	272a <_vfprintf_r+0x79e>
    2726:	f001 fbee 	bl	3f06 <_vfprintf_r+0x1f7a>
    272a:	0022      	movs	r2, r4
    272c:	0652      	lsls	r2, r2, #25
    272e:	d401      	bmi.n	2734 <_vfprintf_r+0x7a8>
    2730:	f000 ff30 	bl	3594 <_vfprintf_r+0x1608>
    2734:	2200      	movs	r2, #0
    2736:	0020      	movs	r0, r4
    2738:	b29b      	uxth	r3, r3
    273a:	9110      	str	r1, [sp, #64]	@ 0x40
    273c:	e74b      	b.n	25d6 <_vfprintf_r+0x64a>
    273e:	0022      	movs	r2, r4
    2740:	9910      	ldr	r1, [sp, #64]	@ 0x40
    2742:	1d0b      	adds	r3, r1, #4
    2744:	0692      	lsls	r2, r2, #26
    2746:	d501      	bpl.n	274c <_vfprintf_r+0x7c0>
    2748:	f000 fc98 	bl	307c <_vfprintf_r+0x10f0>
    274c:	0022      	movs	r2, r4
    274e:	06d2      	lsls	r2, r2, #27
    2750:	d501      	bpl.n	2756 <_vfprintf_r+0x7ca>
    2752:	f000 fe68 	bl	3426 <_vfprintf_r+0x149a>
    2756:	0022      	movs	r2, r4
    2758:	0652      	lsls	r2, r2, #25
    275a:	d501      	bpl.n	2760 <_vfprintf_r+0x7d4>
    275c:	f000 ff67 	bl	362e <_vfprintf_r+0x16a2>
    2760:	0022      	movs	r2, r4
    2762:	0592      	lsls	r2, r2, #22
    2764:	d401      	bmi.n	276a <_vfprintf_r+0x7de>
    2766:	f000 fe5e 	bl	3426 <_vfprintf_r+0x149a>
    276a:	9a10      	ldr	r2, [sp, #64]	@ 0x40
    276c:	990b      	ldr	r1, [sp, #44]	@ 0x2c
    276e:	6812      	ldr	r2, [r2, #0]
    2770:	9310      	str	r3, [sp, #64]	@ 0x40
    2772:	7011      	strb	r1, [r2, #0]
    2774:	9d06      	ldr	r5, [sp, #24]
    2776:	e519      	b.n	21ac <_vfprintf_r+0x220>
    2778:	4699      	mov	r9, r3
    277a:	2210      	movs	r2, #16
    277c:	0023      	movs	r3, r4
    277e:	4322      	orrs	r2, r4
    2780:	069b      	lsls	r3, r3, #26
    2782:	d501      	bpl.n	2788 <_vfprintf_r+0x7fc>
    2784:	f000 fc88 	bl	3098 <_vfprintf_r+0x110c>
    2788:	9b10      	ldr	r3, [sp, #64]	@ 0x40
    278a:	1d19      	adds	r1, r3, #4
    278c:	9b10      	ldr	r3, [sp, #64]	@ 0x40
    278e:	4693      	mov	fp, r2
    2790:	681b      	ldr	r3, [r3, #0]
    2792:	9110      	str	r1, [sp, #64]	@ 0x40
    2794:	9316      	str	r3, [sp, #88]	@ 0x58
    2796:	17db      	asrs	r3, r3, #31
    2798:	9317      	str	r3, [sp, #92]	@ 0x5c
    279a:	d400      	bmi.n	279e <_vfprintf_r+0x812>
    279c:	e5a7      	b.n	22ee <_vfprintf_r+0x362>
    279e:	9916      	ldr	r1, [sp, #88]	@ 0x58
    27a0:	9a17      	ldr	r2, [sp, #92]	@ 0x5c
    27a2:	2400      	movs	r4, #0
    27a4:	424b      	negs	r3, r1
    27a6:	4194      	sbcs	r4, r2
    27a8:	9316      	str	r3, [sp, #88]	@ 0x58
    27aa:	9417      	str	r4, [sp, #92]	@ 0x5c
    27ac:	232d      	movs	r3, #45	@ 0x2d
    27ae:	aa20      	add	r2, sp, #128	@ 0x80
    27b0:	76d3      	strb	r3, [r2, #27]
    27b2:	9b0a      	ldr	r3, [sp, #40]	@ 0x28
    27b4:	2b00      	cmp	r3, #0
    27b6:	da00      	bge.n	27ba <_vfprintf_r+0x82e>
    27b8:	e6c1      	b.n	253e <_vfprintf_r+0x5b2>
    27ba:	2380      	movs	r3, #128	@ 0x80
    27bc:	465a      	mov	r2, fp
    27be:	439a      	bics	r2, r3
    27c0:	4693      	mov	fp, r2
    27c2:	9b16      	ldr	r3, [sp, #88]	@ 0x58
    27c4:	9c17      	ldr	r4, [sp, #92]	@ 0x5c
    27c6:	2c00      	cmp	r4, #0
    27c8:	d100      	bne.n	27cc <_vfprintf_r+0x840>
    27ca:	e6bd      	b.n	2548 <_vfprintf_r+0x5bc>
    27cc:	2380      	movs	r3, #128	@ 0x80
    27ce:	465a      	mov	r2, fp
    27d0:	00db      	lsls	r3, r3, #3
    27d2:	401a      	ands	r2, r3
    27d4:	2300      	movs	r3, #0
    27d6:	9311      	str	r3, [sp, #68]	@ 0x44
    27d8:	ab5a      	add	r3, sp, #360	@ 0x168
    27da:	46b2      	mov	sl, r6
    27dc:	970f      	str	r7, [sp, #60]	@ 0x3c
    27de:	4698      	mov	r8, r3
    27e0:	9e16      	ldr	r6, [sp, #88]	@ 0x58
    27e2:	9f17      	ldr	r7, [sp, #92]	@ 0x5c
    27e4:	920c      	str	r2, [sp, #48]	@ 0x30
    27e6:	e018      	b.n	281a <_vfprintf_r+0x88e>
    27e8:	000097f8 	.word	0x000097f8
    27ec:	00009b08 	.word	0x00009b08
    27f0:	fffffb7f 	.word	0xfffffb7f
    27f4:	fffffbff 	.word	0xfffffbff
    27f8:	00007830 	.word	0x00007830
    27fc:	9609      	str	r6, [sp, #36]	@ 0x24
    27fe:	0039      	movs	r1, r7
    2800:	220a      	movs	r2, #10
    2802:	2300      	movs	r3, #0
    2804:	9809      	ldr	r0, [sp, #36]	@ 0x24
    2806:	f7fd fd5d 	bl	2c4 <__aeabi_uldivmod>
    280a:	003c      	movs	r4, r7
    280c:	46a8      	mov	r8, r5
    280e:	0006      	movs	r6, r0
    2810:	000f      	movs	r7, r1
    2812:	2c00      	cmp	r4, #0
    2814:	d101      	bne.n	281a <_vfprintf_r+0x88e>
    2816:	f001 f9e8 	bl	3bea <_vfprintf_r+0x1c5e>
    281a:	220a      	movs	r2, #10
    281c:	2300      	movs	r3, #0
    281e:	0030      	movs	r0, r6
    2820:	0039      	movs	r1, r7
    2822:	f7fd fd4f 	bl	2c4 <__aeabi_uldivmod>
    2826:	4645      	mov	r5, r8
    2828:	9b11      	ldr	r3, [sp, #68]	@ 0x44
    282a:	3d01      	subs	r5, #1
    282c:	3301      	adds	r3, #1
    282e:	9311      	str	r3, [sp, #68]	@ 0x44
    2830:	9b0c      	ldr	r3, [sp, #48]	@ 0x30
    2832:	3230      	adds	r2, #48	@ 0x30
    2834:	702a      	strb	r2, [r5, #0]
    2836:	2b00      	cmp	r3, #0
    2838:	d0e0      	beq.n	27fc <_vfprintf_r+0x870>
    283a:	9b1d      	ldr	r3, [sp, #116]	@ 0x74
    283c:	9a11      	ldr	r2, [sp, #68]	@ 0x44
    283e:	781b      	ldrb	r3, [r3, #0]
    2840:	4293      	cmp	r3, r2
    2842:	d1db      	bne.n	27fc <_vfprintf_r+0x870>
    2844:	2aff      	cmp	r2, #255	@ 0xff
    2846:	d0d9      	beq.n	27fc <_vfprintf_r+0x870>
    2848:	2f00      	cmp	r7, #0
    284a:	d001      	beq.n	2850 <_vfprintf_r+0x8c4>
    284c:	f001 f85a 	bl	3904 <_vfprintf_r+0x1978>
    2850:	2e09      	cmp	r6, #9
    2852:	d901      	bls.n	2858 <_vfprintf_r+0x8cc>
    2854:	f001 f856 	bl	3904 <_vfprintf_r+0x1978>
    2858:	9a0a      	ldr	r2, [sp, #40]	@ 0x28
    285a:	ab5a      	add	r3, sp, #360	@ 0x168
    285c:	1b5b      	subs	r3, r3, r5
    285e:	9616      	str	r6, [sp, #88]	@ 0x58
    2860:	9717      	str	r7, [sp, #92]	@ 0x5c
    2862:	930c      	str	r3, [sp, #48]	@ 0x30
    2864:	4656      	mov	r6, sl
    2866:	9f0f      	ldr	r7, [sp, #60]	@ 0x3c
    2868:	9209      	str	r2, [sp, #36]	@ 0x24
    286a:	429a      	cmp	r2, r3
    286c:	da00      	bge.n	2870 <_vfprintf_r+0x8e4>
    286e:	9309      	str	r3, [sp, #36]	@ 0x24
    2870:	ab20      	add	r3, sp, #128	@ 0x80
    2872:	7edb      	ldrb	r3, [r3, #27]
    2874:	e681      	b.n	257a <_vfprintf_r+0x5ee>
    2876:	4699      	mov	r9, r3
    2878:	0023      	movs	r3, r4
    287a:	46a3      	mov	fp, r4
    287c:	069b      	lsls	r3, r3, #26
    287e:	d501      	bpl.n	2884 <_vfprintf_r+0x8f8>
    2880:	f000 fc07 	bl	3092 <_vfprintf_r+0x1106>
    2884:	2310      	movs	r3, #16
    2886:	0020      	movs	r0, r4
    2888:	9910      	ldr	r1, [sp, #64]	@ 0x40
    288a:	4018      	ands	r0, r3
    288c:	c904      	ldmia	r1!, {r2}
    288e:	4223      	tst	r3, r4
    2890:	d001      	beq.n	2896 <_vfprintf_r+0x90a>
    2892:	f001 fb3b 	bl	3f0c <_vfprintf_r+0x1f80>
    2896:	2340      	movs	r3, #64	@ 0x40
    2898:	465d      	mov	r5, fp
    289a:	401c      	ands	r4, r3
    289c:	422b      	tst	r3, r5
    289e:	d101      	bne.n	28a4 <_vfprintf_r+0x918>
    28a0:	f000 fe5a 	bl	3558 <_vfprintf_r+0x15cc>
    28a4:	b293      	uxth	r3, r2
    28a6:	9316      	str	r3, [sp, #88]	@ 0x58
    28a8:	2300      	movs	r3, #0
    28aa:	9317      	str	r3, [sp, #92]	@ 0x5c
    28ac:	ab20      	add	r3, sp, #128	@ 0x80
    28ae:	76d8      	strb	r0, [r3, #27]
    28b0:	9b0a      	ldr	r3, [sp, #40]	@ 0x28
    28b2:	2b00      	cmp	r3, #0
    28b4:	db08      	blt.n	28c8 <_vfprintf_r+0x93c>
    28b6:	2380      	movs	r3, #128	@ 0x80
    28b8:	465a      	mov	r2, fp
    28ba:	439a      	bics	r2, r3
    28bc:	9b16      	ldr	r3, [sp, #88]	@ 0x58
    28be:	4693      	mov	fp, r2
    28c0:	2b00      	cmp	r3, #0
    28c2:	d101      	bne.n	28c8 <_vfprintf_r+0x93c>
    28c4:	f000 fc01 	bl	30ca <_vfprintf_r+0x113e>
    28c8:	9110      	str	r1, [sp, #64]	@ 0x40
    28ca:	e638      	b.n	253e <_vfprintf_r+0x5b2>
    28cc:	9b07      	ldr	r3, [sp, #28]
    28ce:	0018      	movs	r0, r3
    28d0:	4699      	mov	r9, r3
    28d2:	f002 fad5 	bl	4e80 <_localeconv_r>
    28d6:	6843      	ldr	r3, [r0, #4]
    28d8:	0018      	movs	r0, r3
    28da:	9320      	str	r3, [sp, #128]	@ 0x80
    28dc:	f7fe fed6 	bl	168c <strlen>
    28e0:	4680      	mov	r8, r0
    28e2:	9021      	str	r0, [sp, #132]	@ 0x84
    28e4:	4648      	mov	r0, r9
    28e6:	f002 facb 	bl	4e80 <_localeconv_r>
    28ea:	4641      	mov	r1, r8
    28ec:	6882      	ldr	r2, [r0, #8]
    28ee:	9b06      	ldr	r3, [sp, #24]
    28f0:	921d      	str	r2, [sp, #116]	@ 0x74
    28f2:	781b      	ldrb	r3, [r3, #0]
    28f4:	2900      	cmp	r1, #0
    28f6:	d101      	bne.n	28fc <_vfprintf_r+0x970>
    28f8:	f7ff fbc8 	bl	208c <_vfprintf_r+0x100>
    28fc:	2a00      	cmp	r2, #0
    28fe:	d101      	bne.n	2904 <_vfprintf_r+0x978>
    2900:	f7ff fbc4 	bl	208c <_vfprintf_r+0x100>
    2904:	7812      	ldrb	r2, [r2, #0]
    2906:	2a00      	cmp	r2, #0
    2908:	d101      	bne.n	290e <_vfprintf_r+0x982>
    290a:	f7ff fbbf 	bl	208c <_vfprintf_r+0x100>
    290e:	2280      	movs	r2, #128	@ 0x80
    2910:	00d2      	lsls	r2, r2, #3
    2912:	4314      	orrs	r4, r2
    2914:	f7ff fbba 	bl	208c <_vfprintf_r+0x100>
    2918:	2301      	movs	r3, #1
    291a:	431c      	orrs	r4, r3
    291c:	9b06      	ldr	r3, [sp, #24]
    291e:	781b      	ldrb	r3, [r3, #0]
    2920:	f7ff fbb4 	bl	208c <_vfprintf_r+0x100>
    2924:	aa20      	add	r2, sp, #128	@ 0x80
    2926:	9b06      	ldr	r3, [sp, #24]
    2928:	7ed2      	ldrb	r2, [r2, #27]
    292a:	781b      	ldrb	r3, [r3, #0]
    292c:	2a00      	cmp	r2, #0
    292e:	d001      	beq.n	2934 <_vfprintf_r+0x9a8>
    2930:	f7ff fbac 	bl	208c <_vfprintf_r+0x100>
    2934:	3220      	adds	r2, #32
    2936:	a920      	add	r1, sp, #128	@ 0x80
    2938:	76ca      	strb	r2, [r1, #27]
    293a:	f7ff fba7 	bl	208c <_vfprintf_r+0x100>
    293e:	2380      	movs	r3, #128	@ 0x80
    2940:	431c      	orrs	r4, r3
    2942:	9b06      	ldr	r3, [sp, #24]
    2944:	781b      	ldrb	r3, [r3, #0]
    2946:	f7ff fba1 	bl	208c <_vfprintf_r+0x100>
    294a:	9b06      	ldr	r3, [sp, #24]
    294c:	1c5a      	adds	r2, r3, #1
    294e:	781b      	ldrb	r3, [r3, #0]
    2950:	4694      	mov	ip, r2
    2952:	2b2a      	cmp	r3, #42	@ 0x2a
    2954:	d101      	bne.n	295a <_vfprintf_r+0x9ce>
    2956:	f001 fcbf 	bl	42d8 <_vfprintf_r+0x234c>
    295a:	0019      	movs	r1, r3
    295c:	3930      	subs	r1, #48	@ 0x30
    295e:	0010      	movs	r0, r2
    2960:	2200      	movs	r2, #0
    2962:	2909      	cmp	r1, #9
    2964:	d901      	bls.n	296a <_vfprintf_r+0x9de>
    2966:	f001 fa87 	bl	3e78 <_vfprintf_r+0x1eec>
    296a:	0093      	lsls	r3, r2, #2
    296c:	189b      	adds	r3, r3, r2
    296e:	005b      	lsls	r3, r3, #1
    2970:	185a      	adds	r2, r3, r1
    2972:	7803      	ldrb	r3, [r0, #0]
    2974:	3001      	adds	r0, #1
    2976:	0019      	movs	r1, r3
    2978:	3930      	subs	r1, #48	@ 0x30
    297a:	2909      	cmp	r1, #9
    297c:	d9f5      	bls.n	296a <_vfprintf_r+0x9de>
    297e:	9006      	str	r0, [sp, #24]
    2980:	920a      	str	r2, [sp, #40]	@ 0x28
    2982:	2a00      	cmp	r2, #0
    2984:	db01      	blt.n	298a <_vfprintf_r+0x9fe>
    2986:	f7ff fb84 	bl	2092 <_vfprintf_r+0x106>
    298a:	2201      	movs	r2, #1
    298c:	4252      	negs	r2, r2
    298e:	920a      	str	r2, [sp, #40]	@ 0x28
    2990:	f7ff fb7f 	bl	2092 <_vfprintf_r+0x106>
    2994:	232b      	movs	r3, #43	@ 0x2b
    2996:	aa20      	add	r2, sp, #128	@ 0x80
    2998:	76d3      	strb	r3, [r2, #27]
    299a:	9b06      	ldr	r3, [sp, #24]
    299c:	781b      	ldrb	r3, [r3, #0]
    299e:	f7ff fb75 	bl	208c <_vfprintf_r+0x100>
    29a2:	1b63      	subs	r3, r4, r5
    29a4:	4698      	mov	r8, r3
    29a6:	42ac      	cmp	r4, r5
    29a8:	d101      	bne.n	29ae <_vfprintf_r+0xa22>
    29aa:	f7ff fc03 	bl	21b4 <_vfprintf_r+0x228>
    29ae:	4643      	mov	r3, r8
    29b0:	6073      	str	r3, [r6, #4]
    29b2:	68bb      	ldr	r3, [r7, #8]
    29b4:	6035      	str	r5, [r6, #0]
    29b6:	4443      	add	r3, r8
    29b8:	60bb      	str	r3, [r7, #8]
    29ba:	687b      	ldr	r3, [r7, #4]
    29bc:	3301      	adds	r3, #1
    29be:	607b      	str	r3, [r7, #4]
    29c0:	2b07      	cmp	r3, #7
    29c2:	dd00      	ble.n	29c6 <_vfprintf_r+0xa3a>
    29c4:	e0c5      	b.n	2b52 <_vfprintf_r+0xbc6>
    29c6:	3608      	adds	r6, #8
    29c8:	9b0b      	ldr	r3, [sp, #44]	@ 0x2c
    29ca:	4443      	add	r3, r8
    29cc:	930b      	str	r3, [sp, #44]	@ 0x2c
    29ce:	f7ff fb4d 	bl	206c <_vfprintf_r+0xe0>
    29d2:	9b0e      	ldr	r3, [sp, #56]	@ 0x38
    29d4:	9a09      	ldr	r2, [sp, #36]	@ 0x24
    29d6:	1a9b      	subs	r3, r3, r2
    29d8:	4698      	mov	r8, r3
    29da:	2b00      	cmp	r3, #0
    29dc:	dc01      	bgt.n	29e2 <_vfprintf_r+0xa56>
    29de:	f7ff fbaa 	bl	2136 <_vfprintf_r+0x1aa>
    29e2:	4642      	mov	r2, r8
    29e4:	687b      	ldr	r3, [r7, #4]
    29e6:	2a10      	cmp	r2, #16
    29e8:	dc01      	bgt.n	29ee <_vfprintf_r+0xa62>
    29ea:	f001 faaf 	bl	3f4c <_vfprintf_r+0x1fc0>
    29ee:	2210      	movs	r2, #16
    29f0:	49cb      	ldr	r1, [pc, #812]	@ (2d20 <_vfprintf_r+0xd94>)
    29f2:	4692      	mov	sl, r2
    29f4:	9112      	str	r1, [sp, #72]	@ 0x48
    29f6:	0022      	movs	r2, r4
    29f8:	4644      	mov	r4, r8
    29fa:	46a8      	mov	r8, r5
    29fc:	000d      	movs	r5, r1
    29fe:	e003      	b.n	2a08 <_vfprintf_r+0xa7c>
    2a00:	3c10      	subs	r4, #16
    2a02:	3608      	adds	r6, #8
    2a04:	2c10      	cmp	r4, #16
    2a06:	dd15      	ble.n	2a34 <_vfprintf_r+0xaa8>
    2a08:	4651      	mov	r1, sl
    2a0a:	3210      	adds	r2, #16
    2a0c:	3301      	adds	r3, #1
    2a0e:	6035      	str	r5, [r6, #0]
    2a10:	6071      	str	r1, [r6, #4]
    2a12:	60ba      	str	r2, [r7, #8]
    2a14:	607b      	str	r3, [r7, #4]
    2a16:	2b07      	cmp	r3, #7
    2a18:	ddf2      	ble.n	2a00 <_vfprintf_r+0xa74>
    2a1a:	003a      	movs	r2, r7
    2a1c:	9908      	ldr	r1, [sp, #32]
    2a1e:	9807      	ldr	r0, [sp, #28]
    2a20:	f001 fcdc 	bl	43dc <__sprint_r>
    2a24:	2800      	cmp	r0, #0
    2a26:	d11f      	bne.n	2a68 <_vfprintf_r+0xadc>
    2a28:	3c10      	subs	r4, #16
    2a2a:	68ba      	ldr	r2, [r7, #8]
    2a2c:	687b      	ldr	r3, [r7, #4]
    2a2e:	ae31      	add	r6, sp, #196	@ 0xc4
    2a30:	2c10      	cmp	r4, #16
    2a32:	dce9      	bgt.n	2a08 <_vfprintf_r+0xa7c>
    2a34:	4645      	mov	r5, r8
    2a36:	46a0      	mov	r8, r4
    2a38:	0014      	movs	r4, r2
    2a3a:	9a12      	ldr	r2, [sp, #72]	@ 0x48
    2a3c:	4444      	add	r4, r8
    2a3e:	6032      	str	r2, [r6, #0]
    2a40:	4642      	mov	r2, r8
    2a42:	3301      	adds	r3, #1
    2a44:	6072      	str	r2, [r6, #4]
    2a46:	60bc      	str	r4, [r7, #8]
    2a48:	607b      	str	r3, [r7, #4]
    2a4a:	2b07      	cmp	r3, #7
    2a4c:	dd00      	ble.n	2a50 <_vfprintf_r+0xac4>
    2a4e:	e3c9      	b.n	31e4 <_vfprintf_r+0x1258>
    2a50:	3608      	adds	r6, #8
    2a52:	f7ff fb70 	bl	2136 <_vfprintf_r+0x1aa>
    2a56:	003a      	movs	r2, r7
    2a58:	9908      	ldr	r1, [sp, #32]
    2a5a:	9807      	ldr	r0, [sp, #28]
    2a5c:	f001 fcbe 	bl	43dc <__sprint_r>
    2a60:	2800      	cmp	r0, #0
    2a62:	d101      	bne.n	2a68 <_vfprintf_r+0xadc>
    2a64:	f7ff fb97 	bl	2196 <_vfprintf_r+0x20a>
    2a68:	9b08      	ldr	r3, [sp, #32]
    2a6a:	990f      	ldr	r1, [sp, #60]	@ 0x3c
    2a6c:	4698      	mov	r8, r3
    2a6e:	2900      	cmp	r1, #0
    2a70:	d002      	beq.n	2a78 <_vfprintf_r+0xaec>
    2a72:	9807      	ldr	r0, [sp, #28]
    2a74:	f7fe fe92 	bl	179c <_free_r>
    2a78:	4643      	mov	r3, r8
    2a7a:	220c      	movs	r2, #12
    2a7c:	5e9b      	ldrsh	r3, [r3, r2]
    2a7e:	4642      	mov	r2, r8
    2a80:	6e52      	ldr	r2, [r2, #100]	@ 0x64
    2a82:	07d2      	lsls	r2, r2, #31
    2a84:	d403      	bmi.n	2a8e <_vfprintf_r+0xb02>
    2a86:	059a      	lsls	r2, r3, #22
    2a88:	d401      	bmi.n	2a8e <_vfprintf_r+0xb02>
    2a8a:	f000 fc87 	bl	339c <_vfprintf_r+0x1410>
    2a8e:	065b      	lsls	r3, r3, #25
    2a90:	d500      	bpl.n	2a94 <_vfprintf_r+0xb08>
    2a92:	e0ef      	b.n	2c74 <_vfprintf_r+0xce8>
    2a94:	980b      	ldr	r0, [sp, #44]	@ 0x2c
    2a96:	b05b      	add	sp, #364	@ 0x16c
    2a98:	bcf0      	pop	{r4, r5, r6, r7}
    2a9a:	46bb      	mov	fp, r7
    2a9c:	46b2      	mov	sl, r6
    2a9e:	46a9      	mov	r9, r5
    2aa0:	46a0      	mov	r8, r4
    2aa2:	bdf0      	pop	{r4, r5, r6, r7, pc}
    2aa4:	687b      	ldr	r3, [r7, #4]
    2aa6:	3401      	adds	r4, #1
    2aa8:	3301      	adds	r3, #1
    2aaa:	4698      	mov	r8, r3
    2aac:	2308      	movs	r3, #8
    2aae:	4699      	mov	r9, r3
    2ab0:	9b11      	ldr	r3, [sp, #68]	@ 0x44
    2ab2:	44b1      	add	r9, r6
    2ab4:	6035      	str	r5, [r6, #0]
    2ab6:	2b01      	cmp	r3, #1
    2ab8:	dc00      	bgt.n	2abc <_vfprintf_r+0xb30>
    2aba:	e1d6      	b.n	2e6a <_vfprintf_r+0xede>
    2abc:	2301      	movs	r3, #1
    2abe:	6073      	str	r3, [r6, #4]
    2ac0:	4643      	mov	r3, r8
    2ac2:	60bc      	str	r4, [r7, #8]
    2ac4:	607b      	str	r3, [r7, #4]
    2ac6:	2b07      	cmp	r3, #7
    2ac8:	dd01      	ble.n	2ace <_vfprintf_r+0xb42>
    2aca:	f000 fc2f 	bl	332c <_vfprintf_r+0x13a0>
    2ace:	464b      	mov	r3, r9
    2ad0:	9a1c      	ldr	r2, [sp, #112]	@ 0x70
    2ad2:	601a      	str	r2, [r3, #0]
    2ad4:	464a      	mov	r2, r9
    2ad6:	9b1b      	ldr	r3, [sp, #108]	@ 0x6c
    2ad8:	469c      	mov	ip, r3
    2ada:	6053      	str	r3, [r2, #4]
    2adc:	2301      	movs	r3, #1
    2ade:	4464      	add	r4, ip
    2ae0:	469c      	mov	ip, r3
    2ae2:	44e0      	add	r8, ip
    2ae4:	4643      	mov	r3, r8
    2ae6:	60bc      	str	r4, [r7, #8]
    2ae8:	607b      	str	r3, [r7, #4]
    2aea:	2b07      	cmp	r3, #7
    2aec:	dd01      	ble.n	2af2 <_vfprintf_r+0xb66>
    2aee:	f000 fc2d 	bl	334c <_vfprintf_r+0x13c0>
    2af2:	2308      	movs	r3, #8
    2af4:	469c      	mov	ip, r3
    2af6:	44e1      	add	r9, ip
    2af8:	9b11      	ldr	r3, [sp, #68]	@ 0x44
    2afa:	2200      	movs	r2, #0
    2afc:	9818      	ldr	r0, [sp, #96]	@ 0x60
    2afe:	9919      	ldr	r1, [sp, #100]	@ 0x64
    2b00:	1e5e      	subs	r6, r3, #1
    2b02:	2300      	movs	r3, #0
    2b04:	f7fd fbb0 	bl	268 <__aeabi_dcmpeq>
    2b08:	2800      	cmp	r0, #0
    2b0a:	d000      	beq.n	2b0e <_vfprintf_r+0xb82>
    2b0c:	e1d9      	b.n	2ec2 <_vfprintf_r+0xf36>
    2b0e:	2301      	movs	r3, #1
    2b10:	469c      	mov	ip, r3
    2b12:	464b      	mov	r3, r9
    2b14:	44e0      	add	r8, ip
    2b16:	3501      	adds	r5, #1
    2b18:	c360      	stmia	r3!, {r5, r6}
    2b1a:	4643      	mov	r3, r8
    2b1c:	19a4      	adds	r4, r4, r6
    2b1e:	60bc      	str	r4, [r7, #8]
    2b20:	607b      	str	r3, [r7, #4]
    2b22:	2b07      	cmp	r3, #7
    2b24:	dd00      	ble.n	2b28 <_vfprintf_r+0xb9c>
    2b26:	e1ac      	b.n	2e82 <_vfprintf_r+0xef6>
    2b28:	2308      	movs	r3, #8
    2b2a:	469c      	mov	ip, r3
    2b2c:	44e1      	add	r9, ip
    2b2e:	464a      	mov	r2, r9
    2b30:	ab2a      	add	r3, sp, #168	@ 0xa8
    2b32:	6013      	str	r3, [r2, #0]
    2b34:	9b1f      	ldr	r3, [sp, #124]	@ 0x7c
    2b36:	469c      	mov	ip, r3
    2b38:	6053      	str	r3, [r2, #4]
    2b3a:	4643      	mov	r3, r8
    2b3c:	4464      	add	r4, ip
    2b3e:	3301      	adds	r3, #1
    2b40:	60bc      	str	r4, [r7, #8]
    2b42:	607b      	str	r3, [r7, #4]
    2b44:	2b07      	cmp	r3, #7
    2b46:	dd01      	ble.n	2b4c <_vfprintf_r+0xbc0>
    2b48:	f7ff fba8 	bl	229c <_vfprintf_r+0x310>
    2b4c:	464e      	mov	r6, r9
    2b4e:	f7ff fb09 	bl	2164 <_vfprintf_r+0x1d8>
    2b52:	003a      	movs	r2, r7
    2b54:	9908      	ldr	r1, [sp, #32]
    2b56:	9807      	ldr	r0, [sp, #28]
    2b58:	f001 fc40 	bl	43dc <__sprint_r>
    2b5c:	2800      	cmp	r0, #0
    2b5e:	d001      	beq.n	2b64 <_vfprintf_r+0xbd8>
    2b60:	f001 faa2 	bl	40a8 <_vfprintf_r+0x211c>
    2b64:	ae31      	add	r6, sp, #196	@ 0xc4
    2b66:	e72f      	b.n	29c8 <_vfprintf_r+0xa3c>
    2b68:	2302      	movs	r3, #2
    2b6a:	9312      	str	r3, [sp, #72]	@ 0x48
    2b6c:	4641      	mov	r1, r8
    2b6e:	68ba      	ldr	r2, [r7, #8]
    2b70:	687b      	ldr	r3, [r7, #4]
    2b72:	2910      	cmp	r1, #16
    2b74:	dc01      	bgt.n	2b7a <_vfprintf_r+0xbee>
    2b76:	f001 f924 	bl	3dc2 <_vfprintf_r+0x1e36>
    2b7a:	496a      	ldr	r1, [pc, #424]	@ (2d24 <_vfprintf_r+0xd98>)
    2b7c:	0028      	movs	r0, r5
    2b7e:	468a      	mov	sl, r1
    2b80:	4645      	mov	r5, r8
    2b82:	0031      	movs	r1, r6
    2b84:	2410      	movs	r4, #16
    2b86:	4656      	mov	r6, sl
    2b88:	4680      	mov	r8, r0
    2b8a:	e003      	b.n	2b94 <_vfprintf_r+0xc08>
    2b8c:	3d10      	subs	r5, #16
    2b8e:	3108      	adds	r1, #8
    2b90:	2d10      	cmp	r5, #16
    2b92:	dd15      	ble.n	2bc0 <_vfprintf_r+0xc34>
    2b94:	3210      	adds	r2, #16
    2b96:	3301      	adds	r3, #1
    2b98:	600e      	str	r6, [r1, #0]
    2b9a:	604c      	str	r4, [r1, #4]
    2b9c:	60ba      	str	r2, [r7, #8]
    2b9e:	607b      	str	r3, [r7, #4]
    2ba0:	2b07      	cmp	r3, #7
    2ba2:	ddf3      	ble.n	2b8c <_vfprintf_r+0xc00>
    2ba4:	003a      	movs	r2, r7
    2ba6:	9908      	ldr	r1, [sp, #32]
    2ba8:	9807      	ldr	r0, [sp, #28]
    2baa:	f001 fc17 	bl	43dc <__sprint_r>
    2bae:	2800      	cmp	r0, #0
    2bb0:	d000      	beq.n	2bb4 <_vfprintf_r+0xc28>
    2bb2:	e759      	b.n	2a68 <_vfprintf_r+0xadc>
    2bb4:	3d10      	subs	r5, #16
    2bb6:	68ba      	ldr	r2, [r7, #8]
    2bb8:	687b      	ldr	r3, [r7, #4]
    2bba:	a931      	add	r1, sp, #196	@ 0xc4
    2bbc:	2d10      	cmp	r5, #16
    2bbe:	dce9      	bgt.n	2b94 <_vfprintf_r+0xc08>
    2bc0:	4640      	mov	r0, r8
    2bc2:	46b2      	mov	sl, r6
    2bc4:	46a8      	mov	r8, r5
    2bc6:	000e      	movs	r6, r1
    2bc8:	0005      	movs	r5, r0
    2bca:	4651      	mov	r1, sl
    2bcc:	6031      	str	r1, [r6, #0]
    2bce:	4641      	mov	r1, r8
    2bd0:	4442      	add	r2, r8
    2bd2:	3301      	adds	r3, #1
    2bd4:	0014      	movs	r4, r2
    2bd6:	6071      	str	r1, [r6, #4]
    2bd8:	60ba      	str	r2, [r7, #8]
    2bda:	607b      	str	r3, [r7, #4]
    2bdc:	2b07      	cmp	r3, #7
    2bde:	dd00      	ble.n	2be2 <_vfprintf_r+0xc56>
    2be0:	e3ee      	b.n	33c0 <_vfprintf_r+0x1434>
    2be2:	aa20      	add	r2, sp, #128	@ 0x80
    2be4:	7ed2      	ldrb	r2, [r2, #27]
    2be6:	3608      	adds	r6, #8
    2be8:	2a00      	cmp	r2, #0
    2bea:	d000      	beq.n	2bee <_vfprintf_r+0xc62>
    2bec:	e1c4      	b.n	2f78 <_vfprintf_r+0xfec>
    2bee:	9a12      	ldr	r2, [sp, #72]	@ 0x48
    2bf0:	2a00      	cmp	r2, #0
    2bf2:	d101      	bne.n	2bf8 <_vfprintf_r+0xc6c>
    2bf4:	f7ff fa9f 	bl	2136 <_vfprintf_r+0x1aa>
    2bf8:	2200      	movs	r2, #0
    2bfa:	9212      	str	r2, [sp, #72]	@ 0x48
    2bfc:	f7ff fa89 	bl	2112 <_vfprintf_r+0x186>
    2c00:	4641      	mov	r1, r8
    2c02:	9807      	ldr	r0, [sp, #28]
    2c04:	f002 f82c 	bl	4c60 <__swsetup_r>
    2c08:	4643      	mov	r3, r8
    2c0a:	2800      	cmp	r0, #0
    2c0c:	d001      	beq.n	2c12 <_vfprintf_r+0xc86>
    2c0e:	f001 fb0e 	bl	422e <_vfprintf_r+0x22a2>
    2c12:	220c      	movs	r2, #12
    2c14:	5e9b      	ldrsh	r3, [r3, r2]
    2c16:	221a      	movs	r2, #26
    2c18:	401a      	ands	r2, r3
    2c1a:	2a0a      	cmp	r2, #10
    2c1c:	d001      	beq.n	2c22 <_vfprintf_r+0xc96>
    2c1e:	f7ff f9f8 	bl	2012 <_vfprintf_r+0x86>
    2c22:	4642      	mov	r2, r8
    2c24:	210e      	movs	r1, #14
    2c26:	5e52      	ldrsh	r2, [r2, r1]
    2c28:	2a00      	cmp	r2, #0
    2c2a:	da01      	bge.n	2c30 <_vfprintf_r+0xca4>
    2c2c:	f7ff f9f1 	bl	2012 <_vfprintf_r+0x86>
    2c30:	4642      	mov	r2, r8
    2c32:	6e52      	ldr	r2, [r2, #100]	@ 0x64
    2c34:	07d2      	lsls	r2, r2, #31
    2c36:	d403      	bmi.n	2c40 <_vfprintf_r+0xcb4>
    2c38:	059b      	lsls	r3, r3, #22
    2c3a:	d401      	bmi.n	2c40 <_vfprintf_r+0xcb4>
    2c3c:	f000 fe5c 	bl	38f8 <_vfprintf_r+0x196c>
    2c40:	0023      	movs	r3, r4
    2c42:	465a      	mov	r2, fp
    2c44:	4641      	mov	r1, r8
    2c46:	9807      	ldr	r0, [sp, #28]
    2c48:	f001 fb82 	bl	4350 <__sbprintf>
    2c4c:	900b      	str	r0, [sp, #44]	@ 0x2c
    2c4e:	e721      	b.n	2a94 <_vfprintf_r+0xb08>
    2c50:	0599      	lsls	r1, r3, #22
    2c52:	d400      	bmi.n	2c56 <_vfprintf_r+0xcca>
    2c54:	e0f3      	b.n	2e3e <_vfprintf_r+0xeb2>
    2c56:	0499      	lsls	r1, r3, #18
    2c58:	d401      	bmi.n	2c5e <_vfprintf_r+0xcd2>
    2c5a:	f7ff f9c0 	bl	1fde <_vfprintf_r+0x52>
    2c5e:	1352      	asrs	r2, r2, #13
    2c60:	4215      	tst	r5, r2
    2c62:	d101      	bne.n	2c68 <_vfprintf_r+0xcdc>
    2c64:	f7ff f9c5 	bl	1ff2 <_vfprintf_r+0x66>
    2c68:	4643      	mov	r3, r8
    2c6a:	899b      	ldrh	r3, [r3, #12]
    2c6c:	059b      	lsls	r3, r3, #22
    2c6e:	d401      	bmi.n	2c74 <_vfprintf_r+0xce8>
    2c70:	f001 fb0c 	bl	428c <_vfprintf_r+0x2300>
    2c74:	2301      	movs	r3, #1
    2c76:	425b      	negs	r3, r3
    2c78:	930b      	str	r3, [sp, #44]	@ 0x2c
    2c7a:	e70b      	b.n	2a94 <_vfprintf_r+0xb08>
    2c7c:	003a      	movs	r2, r7
    2c7e:	9908      	ldr	r1, [sp, #32]
    2c80:	9807      	ldr	r0, [sp, #28]
    2c82:	f001 fbab 	bl	43dc <__sprint_r>
    2c86:	2800      	cmp	r0, #0
    2c88:	d000      	beq.n	2c8c <_vfprintf_r+0xd00>
    2c8a:	e6ed      	b.n	2a68 <_vfprintf_r+0xadc>
    2c8c:	68bc      	ldr	r4, [r7, #8]
    2c8e:	ae31      	add	r6, sp, #196	@ 0xc4
    2c90:	f7ff fa4c 	bl	212c <_vfprintf_r+0x1a0>
    2c94:	003a      	movs	r2, r7
    2c96:	9908      	ldr	r1, [sp, #32]
    2c98:	9807      	ldr	r0, [sp, #28]
    2c9a:	f001 fb9f 	bl	43dc <__sprint_r>
    2c9e:	2800      	cmp	r0, #0
    2ca0:	d000      	beq.n	2ca4 <_vfprintf_r+0xd18>
    2ca2:	e6e1      	b.n	2a68 <_vfprintf_r+0xadc>
    2ca4:	68bc      	ldr	r4, [r7, #8]
    2ca6:	ae31      	add	r6, sp, #196	@ 0xc4
    2ca8:	f7ff fa2f 	bl	210a <_vfprintf_r+0x17e>
    2cac:	4a1d      	ldr	r2, [pc, #116]	@ (2d24 <_vfprintf_r+0xd98>)
    2cae:	687b      	ldr	r3, [r7, #4]
    2cb0:	4692      	mov	sl, r2
    2cb2:	2210      	movs	r2, #16
    2cb4:	4690      	mov	r8, r2
    2cb6:	2d10      	cmp	r5, #16
    2cb8:	dc04      	bgt.n	2cc4 <_vfprintf_r+0xd38>
    2cba:	e01b      	b.n	2cf4 <_vfprintf_r+0xd68>
    2cbc:	3d10      	subs	r5, #16
    2cbe:	3608      	adds	r6, #8
    2cc0:	2d10      	cmp	r5, #16
    2cc2:	dd17      	ble.n	2cf4 <_vfprintf_r+0xd68>
    2cc4:	4652      	mov	r2, sl
    2cc6:	6032      	str	r2, [r6, #0]
    2cc8:	4642      	mov	r2, r8
    2cca:	3410      	adds	r4, #16
    2ccc:	3301      	adds	r3, #1
    2cce:	6072      	str	r2, [r6, #4]
    2cd0:	60bc      	str	r4, [r7, #8]
    2cd2:	607b      	str	r3, [r7, #4]
    2cd4:	2b07      	cmp	r3, #7
    2cd6:	ddf1      	ble.n	2cbc <_vfprintf_r+0xd30>
    2cd8:	003a      	movs	r2, r7
    2cda:	9908      	ldr	r1, [sp, #32]
    2cdc:	9807      	ldr	r0, [sp, #28]
    2cde:	f001 fb7d 	bl	43dc <__sprint_r>
    2ce2:	2800      	cmp	r0, #0
    2ce4:	d000      	beq.n	2ce8 <_vfprintf_r+0xd5c>
    2ce6:	e6bf      	b.n	2a68 <_vfprintf_r+0xadc>
    2ce8:	3d10      	subs	r5, #16
    2cea:	68bc      	ldr	r4, [r7, #8]
    2cec:	687b      	ldr	r3, [r7, #4]
    2cee:	ae31      	add	r6, sp, #196	@ 0xc4
    2cf0:	2d10      	cmp	r5, #16
    2cf2:	dce7      	bgt.n	2cc4 <_vfprintf_r+0xd38>
    2cf4:	4652      	mov	r2, sl
    2cf6:	1964      	adds	r4, r4, r5
    2cf8:	3301      	adds	r3, #1
    2cfa:	c624      	stmia	r6!, {r2, r5}
    2cfc:	60bc      	str	r4, [r7, #8]
    2cfe:	607b      	str	r3, [r7, #4]
    2d00:	2b07      	cmp	r3, #7
    2d02:	dc01      	bgt.n	2d08 <_vfprintf_r+0xd7c>
    2d04:	f7ff fa39 	bl	217a <_vfprintf_r+0x1ee>
    2d08:	003a      	movs	r2, r7
    2d0a:	9908      	ldr	r1, [sp, #32]
    2d0c:	9807      	ldr	r0, [sp, #28]
    2d0e:	f001 fb65 	bl	43dc <__sprint_r>
    2d12:	2800      	cmp	r0, #0
    2d14:	d000      	beq.n	2d18 <_vfprintf_r+0xd8c>
    2d16:	e6a7      	b.n	2a68 <_vfprintf_r+0xadc>
    2d18:	68bc      	ldr	r4, [r7, #8]
    2d1a:	f7ff fa2e 	bl	217a <_vfprintf_r+0x1ee>
    2d1e:	46c0      	nop			@ (mov r8, r8)
    2d20:	00009b08 	.word	0x00009b08
    2d24:	00009b18 	.word	0x00009b18
    2d28:	9828      	ldr	r0, [sp, #160]	@ 0xa0
    2d2a:	2800      	cmp	r0, #0
    2d2c:	dc00      	bgt.n	2d30 <_vfprintf_r+0xda4>
    2d2e:	e129      	b.n	2f84 <_vfprintf_r+0xff8>
    2d30:	9b14      	ldr	r3, [sp, #80]	@ 0x50
    2d32:	9a11      	ldr	r2, [sp, #68]	@ 0x44
    2d34:	4698      	mov	r8, r3
    2d36:	4293      	cmp	r3, r2
    2d38:	dd00      	ble.n	2d3c <_vfprintf_r+0xdb0>
    2d3a:	4690      	mov	r8, r2
    2d3c:	4643      	mov	r3, r8
    2d3e:	2b00      	cmp	r3, #0
    2d40:	dd0b      	ble.n	2d5a <_vfprintf_r+0xdce>
    2d42:	6073      	str	r3, [r6, #4]
    2d44:	687b      	ldr	r3, [r7, #4]
    2d46:	4444      	add	r4, r8
    2d48:	3301      	adds	r3, #1
    2d4a:	6035      	str	r5, [r6, #0]
    2d4c:	60bc      	str	r4, [r7, #8]
    2d4e:	607b      	str	r3, [r7, #4]
    2d50:	2b07      	cmp	r3, #7
    2d52:	dd01      	ble.n	2d58 <_vfprintf_r+0xdcc>
    2d54:	f000 ff6d 	bl	3c32 <_vfprintf_r+0x1ca6>
    2d58:	3608      	adds	r6, #8
    2d5a:	4643      	mov	r3, r8
    2d5c:	43db      	mvns	r3, r3
    2d5e:	4642      	mov	r2, r8
    2d60:	17db      	asrs	r3, r3, #31
    2d62:	4013      	ands	r3, r2
    2d64:	9a14      	ldr	r2, [sp, #80]	@ 0x50
    2d66:	1ad3      	subs	r3, r2, r3
    2d68:	4698      	mov	r8, r3
    2d6a:	2b00      	cmp	r3, #0
    2d6c:	dd00      	ble.n	2d70 <_vfprintf_r+0xde4>
    2d6e:	e3b7      	b.n	34e0 <_vfprintf_r+0x1554>
    2d70:	9b14      	ldr	r3, [sp, #80]	@ 0x50
    2d72:	469a      	mov	sl, r3
    2d74:	465b      	mov	r3, fp
    2d76:	44aa      	add	sl, r5
    2d78:	055b      	lsls	r3, r3, #21
    2d7a:	d501      	bpl.n	2d80 <_vfprintf_r+0xdf4>
    2d7c:	f000 fe5b 	bl	3a36 <_vfprintf_r+0x1aaa>
    2d80:	9a28      	ldr	r2, [sp, #160]	@ 0xa0
    2d82:	9911      	ldr	r1, [sp, #68]	@ 0x44
    2d84:	428a      	cmp	r2, r1
    2d86:	db04      	blt.n	2d92 <_vfprintf_r+0xe06>
    2d88:	465b      	mov	r3, fp
    2d8a:	07db      	lsls	r3, r3, #31
    2d8c:	d401      	bmi.n	2d92 <_vfprintf_r+0xe06>
    2d8e:	f000 fc3f 	bl	3610 <_vfprintf_r+0x1684>
    2d92:	9b1c      	ldr	r3, [sp, #112]	@ 0x70
    2d94:	6033      	str	r3, [r6, #0]
    2d96:	9b1b      	ldr	r3, [sp, #108]	@ 0x6c
    2d98:	469c      	mov	ip, r3
    2d9a:	6073      	str	r3, [r6, #4]
    2d9c:	687b      	ldr	r3, [r7, #4]
    2d9e:	4464      	add	r4, ip
    2da0:	3301      	adds	r3, #1
    2da2:	60bc      	str	r4, [r7, #8]
    2da4:	607b      	str	r3, [r7, #4]
    2da6:	2b07      	cmp	r3, #7
    2da8:	dd01      	ble.n	2dae <_vfprintf_r+0xe22>
    2daa:	f000 ffe3 	bl	3d74 <_vfprintf_r+0x1de8>
    2dae:	3608      	adds	r6, #8
    2db0:	9b11      	ldr	r3, [sp, #68]	@ 0x44
    2db2:	469c      	mov	ip, r3
    2db4:	1a9a      	subs	r2, r3, r2
    2db6:	4653      	mov	r3, sl
    2db8:	4465      	add	r5, ip
    2dba:	1aed      	subs	r5, r5, r3
    2dbc:	4295      	cmp	r5, r2
    2dbe:	dd00      	ble.n	2dc2 <_vfprintf_r+0xe36>
    2dc0:	0015      	movs	r5, r2
    2dc2:	2d00      	cmp	r5, #0
    2dc4:	dd0c      	ble.n	2de0 <_vfprintf_r+0xe54>
    2dc6:	4653      	mov	r3, sl
    2dc8:	6033      	str	r3, [r6, #0]
    2dca:	687b      	ldr	r3, [r7, #4]
    2dcc:	1964      	adds	r4, r4, r5
    2dce:	3301      	adds	r3, #1
    2dd0:	6075      	str	r5, [r6, #4]
    2dd2:	60bc      	str	r4, [r7, #8]
    2dd4:	607b      	str	r3, [r7, #4]
    2dd6:	2b07      	cmp	r3, #7
    2dd8:	dd01      	ble.n	2dde <_vfprintf_r+0xe52>
    2dda:	f001 f852 	bl	3e82 <_vfprintf_r+0x1ef6>
    2dde:	3608      	adds	r6, #8
    2de0:	43eb      	mvns	r3, r5
    2de2:	17db      	asrs	r3, r3, #31
    2de4:	401d      	ands	r5, r3
    2de6:	1b55      	subs	r5, r2, r5
    2de8:	2d00      	cmp	r5, #0
    2dea:	dc01      	bgt.n	2df0 <_vfprintf_r+0xe64>
    2dec:	f7ff f9bb 	bl	2166 <_vfprintf_r+0x1da>
    2df0:	687b      	ldr	r3, [r7, #4]
    2df2:	2d10      	cmp	r5, #16
    2df4:	dc01      	bgt.n	2dfa <_vfprintf_r+0xe6e>
    2df6:	f001 fa21 	bl	423c <_vfprintf_r+0x22b0>
    2dfa:	2210      	movs	r2, #16
    2dfc:	49c3      	ldr	r1, [pc, #780]	@ (310c <_vfprintf_r+0x1180>)
    2dfe:	4690      	mov	r8, r2
    2e00:	9112      	str	r1, [sp, #72]	@ 0x48
    2e02:	0022      	movs	r2, r4
    2e04:	000c      	movs	r4, r1
    2e06:	e005      	b.n	2e14 <_vfprintf_r+0xe88>
    2e08:	3608      	adds	r6, #8
    2e0a:	3d10      	subs	r5, #16
    2e0c:	2d10      	cmp	r5, #16
    2e0e:	dc01      	bgt.n	2e14 <_vfprintf_r+0xe88>
    2e10:	f7ff fa39 	bl	2286 <_vfprintf_r+0x2fa>
    2e14:	4641      	mov	r1, r8
    2e16:	3210      	adds	r2, #16
    2e18:	3301      	adds	r3, #1
    2e1a:	6034      	str	r4, [r6, #0]
    2e1c:	6071      	str	r1, [r6, #4]
    2e1e:	60ba      	str	r2, [r7, #8]
    2e20:	607b      	str	r3, [r7, #4]
    2e22:	2b07      	cmp	r3, #7
    2e24:	ddf0      	ble.n	2e08 <_vfprintf_r+0xe7c>
    2e26:	003a      	movs	r2, r7
    2e28:	9908      	ldr	r1, [sp, #32]
    2e2a:	9807      	ldr	r0, [sp, #28]
    2e2c:	f001 fad6 	bl	43dc <__sprint_r>
    2e30:	2800      	cmp	r0, #0
    2e32:	d000      	beq.n	2e36 <_vfprintf_r+0xeaa>
    2e34:	e618      	b.n	2a68 <_vfprintf_r+0xadc>
    2e36:	68ba      	ldr	r2, [r7, #8]
    2e38:	687b      	ldr	r3, [r7, #4]
    2e3a:	ae31      	add	r6, sp, #196	@ 0xc4
    2e3c:	e7e5      	b.n	2e0a <_vfprintf_r+0xe7e>
    2e3e:	4643      	mov	r3, r8
    2e40:	6d98      	ldr	r0, [r3, #88]	@ 0x58
    2e42:	f7fe fbc9 	bl	15d8 <__retarget_lock_acquire_recursive>
    2e46:	4643      	mov	r3, r8
    2e48:	220c      	movs	r2, #12
    2e4a:	5e9b      	ldrsh	r3, [r3, r2]
    2e4c:	4642      	mov	r2, r8
    2e4e:	6e52      	ldr	r2, [r2, #100]	@ 0x64
    2e50:	0499      	lsls	r1, r3, #18
    2e52:	d401      	bmi.n	2e58 <_vfprintf_r+0xecc>
    2e54:	f7ff f8c3 	bl	1fde <_vfprintf_r+0x52>
    2e58:	1351      	asrs	r1, r2, #13
    2e5a:	420d      	tst	r5, r1
    2e5c:	d101      	bne.n	2e62 <_vfprintf_r+0xed6>
    2e5e:	f7ff f8c8 	bl	1ff2 <_vfprintf_r+0x66>
    2e62:	4215      	tst	r5, r2
    2e64:	d100      	bne.n	2e68 <_vfprintf_r+0xedc>
    2e66:	e6ff      	b.n	2c68 <_vfprintf_r+0xcdc>
    2e68:	e704      	b.n	2c74 <_vfprintf_r+0xce8>
    2e6a:	2301      	movs	r3, #1
    2e6c:	465a      	mov	r2, fp
    2e6e:	4213      	tst	r3, r2
    2e70:	d000      	beq.n	2e74 <_vfprintf_r+0xee8>
    2e72:	e623      	b.n	2abc <_vfprintf_r+0xb30>
    2e74:	6073      	str	r3, [r6, #4]
    2e76:	4643      	mov	r3, r8
    2e78:	60bc      	str	r4, [r7, #8]
    2e7a:	607b      	str	r3, [r7, #4]
    2e7c:	2b07      	cmp	r3, #7
    2e7e:	dc00      	bgt.n	2e82 <_vfprintf_r+0xef6>
    2e80:	e655      	b.n	2b2e <_vfprintf_r+0xba2>
    2e82:	003a      	movs	r2, r7
    2e84:	9908      	ldr	r1, [sp, #32]
    2e86:	9807      	ldr	r0, [sp, #28]
    2e88:	f001 faa8 	bl	43dc <__sprint_r>
    2e8c:	2800      	cmp	r0, #0
    2e8e:	d000      	beq.n	2e92 <_vfprintf_r+0xf06>
    2e90:	e5ea      	b.n	2a68 <_vfprintf_r+0xadc>
    2e92:	687b      	ldr	r3, [r7, #4]
    2e94:	68bc      	ldr	r4, [r7, #8]
    2e96:	4698      	mov	r8, r3
    2e98:	ab31      	add	r3, sp, #196	@ 0xc4
    2e9a:	4699      	mov	r9, r3
    2e9c:	e647      	b.n	2b2e <_vfprintf_r+0xba2>
    2e9e:	2930      	cmp	r1, #48	@ 0x30
    2ea0:	d100      	bne.n	2ea4 <_vfprintf_r+0xf18>
    2ea2:	e194      	b.n	31ce <_vfprintf_r+0x1242>
    2ea4:	2330      	movs	r3, #48	@ 0x30
    2ea6:	3d01      	subs	r5, #1
    2ea8:	9a0a      	ldr	r2, [sp, #40]	@ 0x28
    2eaa:	3c02      	subs	r4, #2
    2eac:	702b      	strb	r3, [r5, #0]
    2eae:	ab5a      	add	r3, sp, #360	@ 0x168
    2eb0:	1b1b      	subs	r3, r3, r4
    2eb2:	930c      	str	r3, [sp, #48]	@ 0x30
    2eb4:	9209      	str	r2, [sp, #36]	@ 0x24
    2eb6:	429a      	cmp	r2, r3
    2eb8:	da00      	bge.n	2ebc <_vfprintf_r+0xf30>
    2eba:	9309      	str	r3, [sp, #36]	@ 0x24
    2ebc:	0025      	movs	r5, r4
    2ebe:	f7ff fb61 	bl	2584 <_vfprintf_r+0x5f8>
    2ec2:	9b11      	ldr	r3, [sp, #68]	@ 0x44
    2ec4:	2b01      	cmp	r3, #1
    2ec6:	dc00      	bgt.n	2eca <_vfprintf_r+0xf3e>
    2ec8:	e631      	b.n	2b2e <_vfprintf_r+0xba2>
    2eca:	2b11      	cmp	r3, #17
    2ecc:	dc01      	bgt.n	2ed2 <_vfprintf_r+0xf46>
    2ece:	f001 f9aa 	bl	4226 <_vfprintf_r+0x229a>
    2ed2:	488e      	ldr	r0, [pc, #568]	@ (310c <_vfprintf_r+0x1180>)
    2ed4:	0021      	movs	r1, r4
    2ed6:	2510      	movs	r5, #16
    2ed8:	4643      	mov	r3, r8
    2eda:	464a      	mov	r2, r9
    2edc:	0004      	movs	r4, r0
    2ede:	9012      	str	r0, [sp, #72]	@ 0x48
    2ee0:	e004      	b.n	2eec <_vfprintf_r+0xf60>
    2ee2:	3208      	adds	r2, #8
    2ee4:	3e10      	subs	r6, #16
    2ee6:	2e10      	cmp	r6, #16
    2ee8:	dc00      	bgt.n	2eec <_vfprintf_r+0xf60>
    2eea:	e323      	b.n	3534 <_vfprintf_r+0x15a8>
    2eec:	3110      	adds	r1, #16
    2eee:	3301      	adds	r3, #1
    2ef0:	6014      	str	r4, [r2, #0]
    2ef2:	6055      	str	r5, [r2, #4]
    2ef4:	60b9      	str	r1, [r7, #8]
    2ef6:	607b      	str	r3, [r7, #4]
    2ef8:	2b07      	cmp	r3, #7
    2efa:	ddf2      	ble.n	2ee2 <_vfprintf_r+0xf56>
    2efc:	003a      	movs	r2, r7
    2efe:	9908      	ldr	r1, [sp, #32]
    2f00:	9807      	ldr	r0, [sp, #28]
    2f02:	f001 fa6b 	bl	43dc <__sprint_r>
    2f06:	2800      	cmp	r0, #0
    2f08:	d000      	beq.n	2f0c <_vfprintf_r+0xf80>
    2f0a:	e5ad      	b.n	2a68 <_vfprintf_r+0xadc>
    2f0c:	68b9      	ldr	r1, [r7, #8]
    2f0e:	687b      	ldr	r3, [r7, #4]
    2f10:	aa31      	add	r2, sp, #196	@ 0xc4
    2f12:	e7e7      	b.n	2ee4 <_vfprintf_r+0xf58>
    2f14:	003a      	movs	r2, r7
    2f16:	9908      	ldr	r1, [sp, #32]
    2f18:	9807      	ldr	r0, [sp, #28]
    2f1a:	f001 fa5f 	bl	43dc <__sprint_r>
    2f1e:	2800      	cmp	r0, #0
    2f20:	d000      	beq.n	2f24 <_vfprintf_r+0xf98>
    2f22:	e5a1      	b.n	2a68 <_vfprintf_r+0xadc>
    2f24:	68bc      	ldr	r4, [r7, #8]
    2f26:	ae31      	add	r6, sp, #196	@ 0xc4
    2f28:	f7ff f90c 	bl	2144 <_vfprintf_r+0x1b8>
    2f2c:	1352      	asrs	r2, r2, #13
    2f2e:	4215      	tst	r5, r2
    2f30:	d101      	bne.n	2f36 <_vfprintf_r+0xfaa>
    2f32:	f7ff f85e 	bl	1ff2 <_vfprintf_r+0x66>
    2f36:	e69d      	b.n	2c74 <_vfprintf_r+0xce8>
    2f38:	465b      	mov	r3, fp
    2f3a:	07db      	lsls	r3, r3, #31
    2f3c:	d401      	bmi.n	2f42 <_vfprintf_r+0xfb6>
    2f3e:	f7ff f912 	bl	2166 <_vfprintf_r+0x1da>
    2f42:	f7ff faa8 	bl	2496 <_vfprintf_r+0x50a>
    2f46:	2380      	movs	r3, #128	@ 0x80
    2f48:	4398      	bics	r0, r3
    2f4a:	9a16      	ldr	r2, [sp, #88]	@ 0x58
    2f4c:	9b17      	ldr	r3, [sp, #92]	@ 0x5c
    2f4e:	0011      	movs	r1, r2
    2f50:	4683      	mov	fp, r0
    2f52:	4319      	orrs	r1, r3
    2f54:	d001      	beq.n	2f5a <_vfprintf_r+0xfce>
    2f56:	f7ff faf2 	bl	253e <_vfprintf_r+0x5b2>
    2f5a:	9b0a      	ldr	r3, [sp, #40]	@ 0x28
    2f5c:	2b00      	cmp	r3, #0
    2f5e:	d100      	bne.n	2f62 <_vfprintf_r+0xfd6>
    2f60:	e0b8      	b.n	30d4 <_vfprintf_r+0x1148>
    2f62:	2300      	movs	r3, #0
    2f64:	2400      	movs	r4, #0
    2f66:	9316      	str	r3, [sp, #88]	@ 0x58
    2f68:	9417      	str	r4, [sp, #92]	@ 0x5c
    2f6a:	f7ff faf0 	bl	254e <_vfprintf_r+0x5c2>
    2f6e:	9b06      	ldr	r3, [sp, #24]
    2f70:	9210      	str	r2, [sp, #64]	@ 0x40
    2f72:	781b      	ldrb	r3, [r3, #0]
    2f74:	f7ff f88a 	bl	208c <_vfprintf_r+0x100>
    2f78:	9a12      	ldr	r2, [sp, #72]	@ 0x48
    2f7a:	4690      	mov	r8, r2
    2f7c:	2200      	movs	r2, #0
    2f7e:	9212      	str	r2, [sp, #72]	@ 0x48
    2f80:	f7ff f8b3 	bl	20ea <_vfprintf_r+0x15e>
    2f84:	4b62      	ldr	r3, [pc, #392]	@ (3110 <_vfprintf_r+0x1184>)
    2f86:	3401      	adds	r4, #1
    2f88:	6033      	str	r3, [r6, #0]
    2f8a:	2301      	movs	r3, #1
    2f8c:	6073      	str	r3, [r6, #4]
    2f8e:	687b      	ldr	r3, [r7, #4]
    2f90:	60bc      	str	r4, [r7, #8]
    2f92:	3301      	adds	r3, #1
    2f94:	607b      	str	r3, [r7, #4]
    2f96:	2b07      	cmp	r3, #7
    2f98:	dd01      	ble.n	2f9e <_vfprintf_r+0x1012>
    2f9a:	f000 fe2d 	bl	3bf8 <_vfprintf_r+0x1c6c>
    2f9e:	3608      	adds	r6, #8
    2fa0:	2800      	cmp	r0, #0
    2fa2:	d000      	beq.n	2fa6 <_vfprintf_r+0x101a>
    2fa4:	e254      	b.n	3450 <_vfprintf_r+0x14c4>
    2fa6:	465a      	mov	r2, fp
    2fa8:	2301      	movs	r3, #1
    2faa:	4013      	ands	r3, r2
    2fac:	9a11      	ldr	r2, [sp, #68]	@ 0x44
    2fae:	4313      	orrs	r3, r2
    2fb0:	d101      	bne.n	2fb6 <_vfprintf_r+0x102a>
    2fb2:	f7ff f8d8 	bl	2166 <_vfprintf_r+0x1da>
    2fb6:	9b1c      	ldr	r3, [sp, #112]	@ 0x70
    2fb8:	6033      	str	r3, [r6, #0]
    2fba:	9b1b      	ldr	r3, [sp, #108]	@ 0x6c
    2fbc:	1919      	adds	r1, r3, r4
    2fbe:	6073      	str	r3, [r6, #4]
    2fc0:	687b      	ldr	r3, [r7, #4]
    2fc2:	60b9      	str	r1, [r7, #8]
    2fc4:	3301      	adds	r3, #1
    2fc6:	607b      	str	r3, [r7, #4]
    2fc8:	2b07      	cmp	r3, #7
    2fca:	dd01      	ble.n	2fd0 <_vfprintf_r+0x1044>
    2fcc:	f000 fc2d 	bl	382a <_vfprintf_r+0x189e>
    2fd0:	0032      	movs	r2, r6
    2fd2:	3208      	adds	r2, #8
    2fd4:	e24e      	b.n	3474 <_vfprintf_r+0x14e8>
    2fd6:	9309      	str	r3, [sp, #36]	@ 0x24
    2fd8:	2300      	movs	r3, #0
    2fda:	931a      	str	r3, [sp, #104]	@ 0x68
    2fdc:	9315      	str	r3, [sp, #84]	@ 0x54
    2fde:	930f      	str	r3, [sp, #60]	@ 0x3c
    2fe0:	f7ff f873 	bl	20ca <_vfprintf_r+0x13e>
    2fe4:	9818      	ldr	r0, [sp, #96]	@ 0x60
    2fe6:	9919      	ldr	r1, [sp, #100]	@ 0x64
    2fe8:	0002      	movs	r2, r0
    2fea:	000b      	movs	r3, r1
    2fec:	f006 fada 	bl	95a4 <__aeabi_dcmpun>
    2ff0:	2800      	cmp	r0, #0
    2ff2:	d001      	beq.n	2ff8 <_vfprintf_r+0x106c>
    2ff4:	f001 f838 	bl	4068 <_vfprintf_r+0x20dc>
    2ff8:	464b      	mov	r3, r9
    2ffa:	2b61      	cmp	r3, #97	@ 0x61
    2ffc:	d101      	bne.n	3002 <_vfprintf_r+0x1076>
    2ffe:	f000 fe59 	bl	3cb4 <_vfprintf_r+0x1d28>
    3002:	2b41      	cmp	r3, #65	@ 0x41
    3004:	d100      	bne.n	3008 <_vfprintf_r+0x107c>
    3006:	e337      	b.n	3678 <_vfprintf_r+0x16ec>
    3008:	9b0a      	ldr	r3, [sp, #40]	@ 0x28
    300a:	3301      	adds	r3, #1
    300c:	d101      	bne.n	3012 <_vfprintf_r+0x1086>
    300e:	f000 ffcc 	bl	3faa <_vfprintf_r+0x201e>
    3012:	2380      	movs	r3, #128	@ 0x80
    3014:	465a      	mov	r2, fp
    3016:	005b      	lsls	r3, r3, #1
    3018:	431a      	orrs	r2, r3
    301a:	4692      	mov	sl, r2
    301c:	464a      	mov	r2, r9
    301e:	9b19      	ldr	r3, [sp, #100]	@ 0x64
    3020:	2a67      	cmp	r2, #103	@ 0x67
    3022:	d101      	bne.n	3028 <_vfprintf_r+0x109c>
    3024:	f000 ffa1 	bl	3f6a <_vfprintf_r+0x1fde>
    3028:	2200      	movs	r2, #0
    302a:	920f      	str	r2, [sp, #60]	@ 0x3c
    302c:	464a      	mov	r2, r9
    302e:	2a47      	cmp	r2, #71	@ 0x47
    3030:	d101      	bne.n	3036 <_vfprintf_r+0x10aa>
    3032:	f000 ff9a 	bl	3f6a <_vfprintf_r+0x1fde>
    3036:	2380      	movs	r3, #128	@ 0x80
    3038:	465a      	mov	r2, fp
    303a:	005b      	lsls	r3, r3, #1
    303c:	431a      	orrs	r2, r3
    303e:	4692      	mov	sl, r2
    3040:	9918      	ldr	r1, [sp, #96]	@ 0x60
    3042:	9a19      	ldr	r2, [sp, #100]	@ 0x64
    3044:	2a00      	cmp	r2, #0
    3046:	da01      	bge.n	304c <_vfprintf_r+0x10c0>
    3048:	f000 ff75 	bl	3f36 <_vfprintf_r+0x1faa>
    304c:	9b18      	ldr	r3, [sp, #96]	@ 0x60
    304e:	9c19      	ldr	r4, [sp, #100]	@ 0x64
    3050:	9324      	str	r3, [sp, #144]	@ 0x90
    3052:	9425      	str	r4, [sp, #148]	@ 0x94
    3054:	2300      	movs	r3, #0
    3056:	9312      	str	r3, [sp, #72]	@ 0x48
    3058:	464b      	mov	r3, r9
    305a:	3b41      	subs	r3, #65	@ 0x41
    305c:	2b25      	cmp	r3, #37	@ 0x25
    305e:	d901      	bls.n	3064 <_vfprintf_r+0x10d8>
    3060:	f000 fc00 	bl	3864 <_vfprintf_r+0x18d8>
    3064:	4a2b      	ldr	r2, [pc, #172]	@ (3114 <_vfprintf_r+0x1188>)
    3066:	009b      	lsls	r3, r3, #2
    3068:	58d3      	ldr	r3, [r2, r3]
    306a:	469f      	mov	pc, r3
    306c:	9b10      	ldr	r3, [sp, #64]	@ 0x40
    306e:	1d19      	adds	r1, r3, #4
    3070:	9b10      	ldr	r3, [sp, #64]	@ 0x40
    3072:	2200      	movs	r2, #0
    3074:	681b      	ldr	r3, [r3, #0]
    3076:	9110      	str	r1, [sp, #64]	@ 0x40
    3078:	f7ff faad 	bl	25d6 <_vfprintf_r+0x64a>
    307c:	680a      	ldr	r2, [r1, #0]
    307e:	990b      	ldr	r1, [sp, #44]	@ 0x2c
    3080:	9310      	str	r3, [sp, #64]	@ 0x40
    3082:	6011      	str	r1, [r2, #0]
    3084:	17c9      	asrs	r1, r1, #31
